

Microchip MPLAB XC8 Assembler V3.00 build 20241204225717 
                                                                                               Tue Apr 01 16:42:46 2025

Microchip MPLAB XC8 C Compiler v3.00 (Free license) build 20241204225717 Og1 
     1                           	processor	16F18855
     2                           	pagewidth 120
     3                           	opt	flic
     4                           	psect	idataBANK2,global,class=CODE,space=0,delta=2,noexec
     5                           	psect	idataBANK3,global,class=CODE,space=0,delta=2,noexec
     6                           	psect	idataBANK4,global,class=CODE,space=0,delta=2,noexec
     7                           	psect	idataBANK5,global,class=CODE,space=0,delta=2,noexec
     8                           	psect	stringtext1,global,class=STRCODE,space=0,delta=2,noexec
     9                           	psect	stringtext2,global,class=STRCODE,space=0,delta=2,noexec
    10                           	psect	stringtext3,global,class=STRCODE,space=0,delta=2,noexec
    11                           	psect	stringtext4,global,class=STRCODE,space=0,delta=2,noexec
    12                           	psect	stringtext5,global,class=STRCODE,space=0,delta=2,noexec
    13                           	psect	stringtext6,global,class=STRCODE,space=0,delta=2,noexec
    14                           	psect	stringtext7,global,class=STRCODE,space=0,delta=2,noexec
    15                           	psect	cinit,global,class=CODE,space=0,merge=1,delta=2
    16                           	psect	bssCOMMON,global,class=COMMON,space=1,delta=1,noexec
    17                           	psect	bssBANK1,global,class=BANK1,space=1,delta=1,noexec
    18                           	psect	bssBANK2,global,class=BANK2,space=1,delta=1,noexec
    19                           	psect	dataBANK2,global,class=BANK2,space=1,delta=1,noexec
    20                           	psect	bssBANK3,global,class=BANK3,space=1,delta=1,noexec
    21                           	psect	dataBANK3,global,class=BANK3,space=1,delta=1,noexec
    22                           	psect	dataBANK4,global,class=BANK4,space=1,delta=1,noexec
    23                           	psect	dataBANK5,global,class=BANK5,space=1,delta=1,noexec
    24                           	psect	inittext,global,class=CODE,space=0,delta=2
    25                           	psect	clrtext,global,class=CODE,space=0,delta=2
    26                           	psect	cstackBANK2,global,class=BANK2,space=1,delta=1,noexec
    27                           	psect	cstackBANK1,global,class=BANK1,space=1,delta=1,noexec
    28                           	psect	cstackCOMMON,global,class=COMMON,space=1,delta=1,noexec
    29                           	psect	cstackBANK0,global,class=BANK0,space=1,delta=1,noexec
    30                           	psect	maintext,global,class=CODE,space=0,merge=1,split=1,delta=2
    31                           	psect	text1,local,class=CODE,space=0,merge=1,delta=2
    32                           	psect	text2,local,class=CODE,space=0,merge=1,delta=2,group=2
    33                           	psect	text3,local,class=CODE,space=0,merge=1,delta=2,group=2
    34                           	psect	text4,local,class=CODE,space=0,merge=1,delta=2,group=2
    35                           	psect	text5,local,class=CODE,space=0,merge=1,delta=2,group=2
    36                           	psect	text6,local,class=CODE,space=0,merge=1,delta=2,group=1
    37                           	psect	text7,local,class=CODE,space=0,merge=1,delta=2,group=1
    38                           	psect	text8,local,class=CODE,space=0,merge=1,delta=2,group=1
    39                           	psect	text9,local,class=CODE,space=0,merge=1,delta=2,group=1
    40                           	psect	text10,local,class=CODE,space=0,merge=1,delta=2,group=1
    41                           	psect	text11,local,class=CODE,space=0,merge=1,delta=2,group=1
    42                           	psect	text12,local,class=CODE,space=0,merge=1,delta=2,group=1
    43                           	psect	text13,local,class=CODE,space=0,merge=1,delta=2,group=1
    44                           	psect	text14,local,class=CODE,space=0,merge=1,delta=2,group=1
    45                           	psect	text15,local,class=CODE,space=0,merge=1,delta=2,group=1
    46                           	psect	text16,local,class=CODE,space=0,merge=1,delta=2
    47                           	psect	text17,local,class=CODE,space=0,merge=1,delta=2
    48                           	psect	text18,local,class=CODE,space=0,merge=1,delta=2
    49                           	psect	text19,local,class=CODE,space=0,merge=1,delta=2,group=1
    50                           	psect	text20,local,class=CODE,space=0,merge=1,delta=2
    51                           	psect	text21,local,class=CODE,space=0,merge=1,delta=2
    52                           	psect	text22,local,class=CODE,space=0,merge=1,delta=2
    53                           	psect	text23,local,class=CODE,space=0,merge=1,delta=2
    54                           	psect	text24,local,class=CODE,space=0,merge=1,delta=2
    55                           	psect	text25,local,class=CODE,space=0,merge=1,delta=2
    56                           	psect	text26,local,class=CODE,space=0,merge=1,delta=2
    57                           	psect	text27,local,class=CODE,space=0,merge=1,delta=2
    58                           	psect	text28,local,class=CODE,space=0,merge=1,delta=2
    59                           	psect	text29,local,class=CODE,space=0,merge=1,delta=2
    60                           	psect	text30,local,class=CODE,space=0,merge=1,delta=2
    61                           	psect	text31,local,class=CODE,space=0,merge=1,delta=2
    62                           	psect	text32,local,class=CODE,space=0,merge=1,delta=2
    63                           	psect	text33,local,class=CODE,space=0,merge=1,delta=2
    64                           	psect	text34,local,class=CODE,space=0,merge=1,delta=2
    65                           	psect	text35,local,class=CODE,space=0,merge=1,delta=2
    66                           	psect	text36,local,class=CODE,space=0,merge=1,delta=2
    67                           	psect	text37,local,class=CODE,space=0,merge=1,delta=2
    68                           	psect	text38,local,class=CODE,space=0,merge=1,delta=2
    69                           	psect	text39,local,class=CODE,space=0,merge=1,delta=2
    70                           	psect	text40,local,class=CODE,space=0,merge=1,delta=2
    71                           	psect	text41,local,class=CODE,space=0,merge=1,delta=2
    72                           	psect	intentry,global,class=CODE,space=0,delta=2
    73                           	psect	config,global,abs,ovrld,class=CONFIG,space=4,delta=2,noexec
    74                           	dabs	1,0x7E,2
    75     0000                     
    76                           ; Generated 11/01/2024 GMT
    77                           ; 
    78                           ; Copyright © 2024, Microchip Technology Inc. and its subsidiaries ("Microchip")
    79                           ; All rights reserved.
    80                           ; 
    81                           ; This software is developed by Microchip Technology Inc. and its subsidiaries ("Microch
      +                          ip").
    82                           ; 
    83                           ; Redistribution and use in source and binary forms, with or without modification, are
    84                           ; permitted provided that the following conditions are met:
    85                           ; 
    86                           ;     1. Redistributions of source code must retain the above copyright notice, this lis
      +                          t of
    87                           ;        conditions and the following disclaimer.
    88                           ; 
    89                           ;     2. Redistributions in binary form must reproduce the above copyright notice, this 
      +                          list
    90                           ;        of conditions and the following disclaimer in the documentation and/or other
    91                           ;        materials provided with the distribution. Publication is not required when
    92                           ;        this file is used in an embedded application.
    93                           ; 
    94                           ;     3. Microchip's name may not be used to endorse or promote products derived from th
      +                          is
    95                           ;        software without specific prior written permission.
    96                           ; 
    97                           ; THIS SOFTWARE IS PROVIDED BY MICROCHIP "AS IS" AND ANY EXPRESS OR IMPLIED WARRANTIES,
    98                           ; INCLUDING, BUT NOT LIMITED TO, THE IMPLIED WARRANTIES OF MERCHANTABILITY AND FITNESS F
      +                          OR
    99                           ; PURPOSE ARE DISCLAIMED.  IN NO EVENT SHALL MICROCHIP BE LIABLE FOR ANY DIRECT, INDIREC
      +                          T,
   100                           ; INCIDENTAL, SPECIAL, EXEMPLARY, OR CONSEQUENTIAL DAMAGES (INCLUDING BUT NOT LIMITED TO
   101                           ; PROCUREMENT OF SUBSTITUTE GOODS OR SERVICES; LOSS OF USE, DATA OR PROFITS; OR BUSINESS
   102                           ; INTERRUPTION) HOWSOEVER CAUSED AND ON ANY THEORY OF LIABILITY, WHETHER IN CONTRACT, ST
      +                          RICT
   103                           ; LIABILITY, OR TORT (INCLUDING NEGLIGENCE OR OTHERWISE) ARISING IN ANY WAY OUT OF THE U
      +                          SE OF
   104                           ; THIS SOFTWARE, EVEN IF ADVISED OF THE POSSIBILITY OF SUCH DAMAGE.
   105                           ; 
   106                           ; 
   107                           ; Code-generator required, PIC16F18855 Definitions
   108                           ; 
   109                           ; SFR Addresses
   110     0008                     bsr             equ	8
   111     0005                     fsr0h           equ	5
   112     0004                     fsr0l           equ	4
   113     0007                     fsr1h           equ	7
   114     0006                     fsr1l           equ	6
   115     0000                     indf            equ	0
   116     0000                     indf0           equ	0
   117     0001                     indf1           equ	1
   118     000B                     intcon          equ	11
   119     0002                     pc              equ	2
   120     0002                     pcl             equ	2
   121     000A                     pclath          equ	10
   122     0003                     status          equ	3
   123     0009                     wreg            equ	9
   124     0000                     INDF0           equ	0	;# 
   125     0001                     INDF1           equ	1	;# 
   126     0002                     PCL             equ	2	;# 
   127     0003                     STATUS          equ	3	;# 
   128     0004                     FSR0L           equ	4	;# 
   129     0005                     FSR0H           equ	5	;# 
   130     0006                     FSR1L           equ	6	;# 
   131     0007                     FSR1H           equ	7	;# 
   132     0008                     BSR             equ	8	;# 
   133     0009                     WREG            equ	9	;# 
   134     000A                     PCLATH          equ	10	;# 
   135     000B                     INTCON          equ	11	;# 
   136     000C                     PORTA           equ	12	;# 
   137     000D                     PORTB           equ	13	;# 
   138     000E                     PORTC           equ	14	;# 
   139     0010                     PORTE           equ	16	;# 
   140     0011                     TRISA           equ	17	;# 
   141     0012                     TRISB           equ	18	;# 
   142     0013                     TRISC           equ	19	;# 
   143     0016                     LATA            equ	22	;# 
   144     0017                     LATB            equ	23	;# 
   145     0018                     LATC            equ	24	;# 
   146     001C                     TMR0L           equ	28	;# 
   147     001C                     TMR0            equ	28	;# 
   148     001D                     TMR0H           equ	29	;# 
   149     001D                     PR0             equ	29	;# 
   150     001E                     T0CON0          equ	30	;# 
   151     001F                     T0CON1          equ	31	;# 
   152     008C                     ADRES           equ	140	;# 
   153     008C                     ADRESL          equ	140	;# 
   154     008D                     ADRESH          equ	141	;# 
   155     008E                     ADPREV          equ	142	;# 
   156     008E                     ADPREVL         equ	142	;# 
   157     008F                     ADPREVH         equ	143	;# 
   158     0090                     ADACC           equ	144	;# 
   159     0090                     ADACCL          equ	144	;# 
   160     0091                     ADACCH          equ	145	;# 
   161     0093                     ADCON0          equ	147	;# 
   162     0094                     ADCON1          equ	148	;# 
   163     0095                     ADCON2          equ	149	;# 
   164     0096                     ADCON3          equ	150	;# 
   165     0097                     ADSTAT          equ	151	;# 
   166     0098                     ADCLK           equ	152	;# 
   167     0099                     ADACT           equ	153	;# 
   168     009A                     ADREF           equ	154	;# 
   169     009B                     ADCAP           equ	155	;# 
   170     009C                     ADPRE           equ	156	;# 
   171     009D                     ADACQ           equ	157	;# 
   172     009E                     ADPCH           equ	158	;# 
   173     010C                     ADCNT           equ	268	;# 
   174     010D                     ADRPT           equ	269	;# 
   175     010E                     ADLTH           equ	270	;# 
   176     010E                     ADLTHL          equ	270	;# 
   177     010F                     ADLTHH          equ	271	;# 
   178     0110                     ADUTH           equ	272	;# 
   179     0110                     ADUTHL          equ	272	;# 
   180     0111                     ADUTHH          equ	273	;# 
   181     0112                     ADSTPT          equ	274	;# 
   182     0112                     ADSTPTL         equ	274	;# 
   183     0113                     ADSTPTH         equ	275	;# 
   184     0114                     ADFLTR          equ	276	;# 
   185     0114                     ADFLTRL         equ	276	;# 
   186     0115                     ADFLTRH         equ	277	;# 
   187     0116                     ADERR           equ	278	;# 
   188     0116                     ADERRL          equ	278	;# 
   189     0117                     ADERRH          equ	279	;# 
   190     0119                     RC1REG          equ	281	;# 
   191     0119                     RCREG           equ	281	;# 
   192     0119                     RCREG1          equ	281	;# 
   193     011A                     TX1REG          equ	282	;# 
   194     011A                     TXREG1          equ	282	;# 
   195     011A                     TXREG           equ	282	;# 
   196     011B                     SP1BRG          equ	283	;# 
   197     011B                     SPBRG           equ	283	;# 
   198     011B                     SP1BRGL         equ	283	;# 
   199     011B                     SPBRG1          equ	283	;# 
   200     011B                     SPBRGL          equ	283	;# 
   201     011C                     SP1BRGH         equ	284	;# 
   202     011C                     SPBRGH          equ	284	;# 
   203     011C                     SPBRGH1         equ	284	;# 
   204     011D                     RC1STA          equ	285	;# 
   205     011D                     RCSTA1          equ	285	;# 
   206     011D                     RCSTA           equ	285	;# 
   207     011E                     TX1STA          equ	286	;# 
   208     011E                     TXSTA1          equ	286	;# 
   209     011E                     TXSTA           equ	286	;# 
   210     011F                     BAUD1CON        equ	287	;# 
   211     011F                     BAUDCON1        equ	287	;# 
   212     011F                     BAUDCTL1        equ	287	;# 
   213     011F                     BAUDCON         equ	287	;# 
   214     011F                     BAUDCTL         equ	287	;# 
   215     018C                     SSP1BUF         equ	396	;# 
   216     018D                     SSP1ADD         equ	397	;# 
   217     018E                     SSP1MSK         equ	398	;# 
   218     018F                     SSP1STAT        equ	399	;# 
   219     0190                     SSP1CON1        equ	400	;# 
   220     0191                     SSP1CON2        equ	401	;# 
   221     0192                     SSP1CON3        equ	402	;# 
   222     0196                     SSP2BUF         equ	406	;# 
   223     0197                     SSP2ADD         equ	407	;# 
   224     0198                     SSP2MSK         equ	408	;# 
   225     0199                     SSP2STAT        equ	409	;# 
   226     019A                     SSP2CON1        equ	410	;# 
   227     019B                     SSP2CON2        equ	411	;# 
   228     019C                     SSP2CON3        equ	412	;# 
   229     020C                     TMR1            equ	524	;# 
   230     020C                     TMR1L           equ	524	;# 
   231     020D                     TMR1H           equ	525	;# 
   232     020E                     T1CON           equ	526	;# 
   233     020F                     T1GCON          equ	527	;# 
   234     020F                     PR1             equ	527	;# 
   235     0210                     T1GATE          equ	528	;# 
   236     0210                     TMR1GATE        equ	528	;# 
   237     0211                     T1CLK           equ	529	;# 
   238     0211                     TMR1CLK         equ	529	;# 
   239     0212                     TMR3            equ	530	;# 
   240     0212                     TMR3L           equ	530	;# 
   241     0213                     TMR3H           equ	531	;# 
   242     0214                     T3CON           equ	532	;# 
   243     0215                     T3GCON          equ	533	;# 
   244     0215                     PR3             equ	533	;# 
   245     0216                     T3GATE          equ	534	;# 
   246     0216                     TMR3GATE        equ	534	;# 
   247     0217                     T3CLK           equ	535	;# 
   248     0217                     TMR3CLK         equ	535	;# 
   249     0218                     TMR5            equ	536	;# 
   250     0218                     TMR5L           equ	536	;# 
   251     0219                     TMR5H           equ	537	;# 
   252     021A                     T5CON           equ	538	;# 
   253     021B                     T5GCON          equ	539	;# 
   254     021B                     PR5             equ	539	;# 
   255     021C                     T5GATE          equ	540	;# 
   256     021C                     TMR5GATE        equ	540	;# 
   257     021D                     T5CLK           equ	541	;# 
   258     021D                     TMR5CLK         equ	541	;# 
   259     021E                     CCPTMRS0        equ	542	;# 
   260     021F                     CCPTMRS1        equ	543	;# 
   261     028C                     T2TMR           equ	652	;# 
   262     028C                     TMR2            equ	652	;# 
   263     028D                     T2PR            equ	653	;# 
   264     028D                     PR2             equ	653	;# 
   265     028E                     T2CON           equ	654	;# 
   266     028F                     T2HLT           equ	655	;# 
   267     0290                     T2CLKCON        equ	656	;# 
   268     0290                     T2CLK           equ	656	;# 
   269     0291                     T2RST           equ	657	;# 
   270     0292                     T4TMR           equ	658	;# 
   271     0292                     TMR4            equ	658	;# 
   272     0293                     T4PR            equ	659	;# 
   273     0293                     PR4             equ	659	;# 
   274     0294                     T4CON           equ	660	;# 
   275     0295                     T4HLT           equ	661	;# 
   276     0296                     T4CLKCON        equ	662	;# 
   277     0296                     T4CLK           equ	662	;# 
   278     0297                     T4RST           equ	663	;# 
   279     0298                     T6TMR           equ	664	;# 
   280     0298                     TMR6            equ	664	;# 
   281     0299                     T6PR            equ	665	;# 
   282     0299                     PR6             equ	665	;# 
   283     029A                     T6CON           equ	666	;# 
   284     029B                     T6HLT           equ	667	;# 
   285     029C                     T6CLKCON        equ	668	;# 
   286     029C                     T6CLK           equ	668	;# 
   287     029D                     T6RST           equ	669	;# 
   288     030C                     CCPR1           equ	780	;# 
   289     030C                     CCPR1L          equ	780	;# 
   290     030D                     CCPR1H          equ	781	;# 
   291     030E                     CCP1CON         equ	782	;# 
   292     030F                     CCP1CAP         equ	783	;# 
   293     0310                     CCPR2           equ	784	;# 
   294     0310                     CCPR2L          equ	784	;# 
   295     0311                     CCPR2H          equ	785	;# 
   296     0312                     CCP2CON         equ	786	;# 
   297     0313                     CCP2CAP         equ	787	;# 
   298     0314                     CCPR3           equ	788	;# 
   299     0314                     CCPR3L          equ	788	;# 
   300     0315                     CCPR3H          equ	789	;# 
   301     0316                     CCP3CON         equ	790	;# 
   302     0317                     CCP3CAP         equ	791	;# 
   303     0318                     CCPR4           equ	792	;# 
   304     0318                     CCPR4L          equ	792	;# 
   305     0319                     CCPR4H          equ	793	;# 
   306     031A                     CCP4CON         equ	794	;# 
   307     031B                     CCP4CAP         equ	795	;# 
   308     031C                     CCPR5           equ	796	;# 
   309     031C                     CCPR5L          equ	796	;# 
   310     031D                     CCPR5H          equ	797	;# 
   311     031E                     CCP5CON         equ	798	;# 
   312     031F                     CCP5CAP         equ	799	;# 
   313     038C                     PWM6DC          equ	908	;# 
   314     038C                     PWM6DCL         equ	908	;# 
   315     038D                     PWM6DCH         equ	909	;# 
   316     038E                     PWM6CON         equ	910	;# 
   317     0390                     PWM7DC          equ	912	;# 
   318     0390                     PWM7DCL         equ	912	;# 
   319     0391                     PWM7DCH         equ	913	;# 
   320     0392                     PWM7CON         equ	914	;# 
   321     040C                     SCANLADRL       equ	1036	;# 
   322     040D                     SCANLADRH       equ	1037	;# 
   323     040E                     SCANHADRL       equ	1038	;# 
   324     040F                     SCANHADRH       equ	1039	;# 
   325     0410                     SCANCON0        equ	1040	;# 
   326     0411                     SCANTRIG        equ	1041	;# 
   327     0416                     CRCDATA         equ	1046	;# 
   328     0416                     CRCDATL         equ	1046	;# 
   329     0417                     CRCDATH         equ	1047	;# 
   330     0418                     CRCACC          equ	1048	;# 
   331     0418                     CRCACCL         equ	1048	;# 
   332     0419                     CRCACCH         equ	1049	;# 
   333     041A                     CRCSHFT         equ	1050	;# 
   334     041A                     CRCSHIFTL       equ	1050	;# 
   335     041B                     CRCSHIFTH       equ	1051	;# 
   336     041C                     CRCXOR          equ	1052	;# 
   337     041C                     CRCXORL         equ	1052	;# 
   338     041D                     CRCXORH         equ	1053	;# 
   339     041E                     CRCCON0         equ	1054	;# 
   340     041F                     CRCCON1         equ	1055	;# 
   341     048C                     SMT1TMR         equ	1164	;# 
   342     048C                     SMT1TMRL        equ	1164	;# 
   343     048D                     SMT1TMRH        equ	1165	;# 
   344     048E                     SMT1TMRU        equ	1166	;# 
   345     048F                     SMT1CPR         equ	1167	;# 
   346     048F                     SMT1CPRL        equ	1167	;# 
   347     0490                     SMT1CPRH        equ	1168	;# 
   348     0491                     SMT1CPRU        equ	1169	;# 
   349     0492                     SMT1CPW         equ	1170	;# 
   350     0492                     SMT1CPWL        equ	1170	;# 
   351     0493                     SMT1CPWH        equ	1171	;# 
   352     0494                     SMT1CPWU        equ	1172	;# 
   353     0495                     SMT1PR          equ	1173	;# 
   354     0495                     SMT1PRL         equ	1173	;# 
   355     0496                     SMT1PRH         equ	1174	;# 
   356     0497                     SMT1PRU         equ	1175	;# 
   357     0498                     SMT1CON0        equ	1176	;# 
   358     0499                     SMT1CON1        equ	1177	;# 
   359     049A                     SMT1STAT        equ	1178	;# 
   360     049B                     SMT1CLK         equ	1179	;# 
   361     049C                     SMT1SIG         equ	1180	;# 
   362     049D                     SMT1WIN         equ	1181	;# 
   363     050C                     SMT2TMR         equ	1292	;# 
   364     050C                     SMT2TMRL        equ	1292	;# 
   365     050D                     SMT2TMRH        equ	1293	;# 
   366     050E                     SMT2TMRU        equ	1294	;# 
   367     050F                     SMT2CPR         equ	1295	;# 
   368     050F                     SMT2CPRL        equ	1295	;# 
   369     0510                     SMT2CPRH        equ	1296	;# 
   370     0511                     SMT2CPRU        equ	1297	;# 
   371     0512                     SMT2CPW         equ	1298	;# 
   372     0512                     SMT2CPWL        equ	1298	;# 
   373     0513                     SMT2CPWH        equ	1299	;# 
   374     0514                     SMT2CPWU        equ	1300	;# 
   375     0515                     SMT2PR          equ	1301	;# 
   376     0515                     SMT2PRL         equ	1301	;# 
   377     0516                     SMT2PRH         equ	1302	;# 
   378     0517                     SMT2PRU         equ	1303	;# 
   379     0518                     SMT2CON0        equ	1304	;# 
   380     0519                     SMT2CON1        equ	1305	;# 
   381     051A                     SMT2STAT        equ	1306	;# 
   382     051B                     SMT2CLK         equ	1307	;# 
   383     051C                     SMT2SIG         equ	1308	;# 
   384     051D                     SMT2WIN         equ	1309	;# 
   385     058C                     NCO1ACC         equ	1420	;# 
   386     058C                     NCO1ACCL        equ	1420	;# 
   387     058D                     NCO1ACCH        equ	1421	;# 
   388     058E                     NCO1ACCU        equ	1422	;# 
   389     058F                     NCO1INC         equ	1423	;# 
   390     058F                     NCO1INCL        equ	1423	;# 
   391     0590                     NCO1INCH        equ	1424	;# 
   392     0591                     NCO1INCU        equ	1425	;# 
   393     0592                     NCO1CON         equ	1426	;# 
   394     0593                     NCO1CLK         equ	1427	;# 
   395     060C                     CWG1CLKCON      equ	1548	;# 
   396     060D                     CWG1ISM         equ	1549	;# 
   397     060E                     CWG1DBR         equ	1550	;# 
   398     060F                     CWG1DBF         equ	1551	;# 
   399     0610                     CWG1CON0        equ	1552	;# 
   400     0611                     CWG1CON1        equ	1553	;# 
   401     0612                     CWG1AS0         equ	1554	;# 
   402     0613                     CWG1AS1         equ	1555	;# 
   403     0614                     CWG1STR         equ	1556	;# 
   404     0616                     CWG2CLKCON      equ	1558	;# 
   405     0617                     CWG2ISM         equ	1559	;# 
   406     0618                     CWG2DBR         equ	1560	;# 
   407     0619                     CWG2DBF         equ	1561	;# 
   408     061A                     CWG2CON0        equ	1562	;# 
   409     061B                     CWG2CON1        equ	1563	;# 
   410     061C                     CWG2AS0         equ	1564	;# 
   411     061D                     CWG2AS1         equ	1565	;# 
   412     061E                     CWG2STR         equ	1566	;# 
   413     068C                     CWG3CLKCON      equ	1676	;# 
   414     068D                     CWG3ISM         equ	1677	;# 
   415     068E                     CWG3DBR         equ	1678	;# 
   416     068F                     CWG3DBF         equ	1679	;# 
   417     0690                     CWG3CON0        equ	1680	;# 
   418     0691                     CWG3CON1        equ	1681	;# 
   419     0692                     CWG3AS0         equ	1682	;# 
   420     0693                     CWG3AS1         equ	1683	;# 
   421     0694                     CWG3STR         equ	1684	;# 
   422     070C                     PIR0            equ	1804	;# 
   423     070D                     PIR1            equ	1805	;# 
   424     070E                     PIR2            equ	1806	;# 
   425     070F                     PIR3            equ	1807	;# 
   426     0710                     PIR4            equ	1808	;# 
   427     0711                     PIR5            equ	1809	;# 
   428     0712                     PIR6            equ	1810	;# 
   429     0713                     PIR7            equ	1811	;# 
   430     0714                     PIR8            equ	1812	;# 
   431     0716                     PIE0            equ	1814	;# 
   432     0717                     PIE1            equ	1815	;# 
   433     0718                     PIE2            equ	1816	;# 
   434     0719                     PIE3            equ	1817	;# 
   435     071A                     PIE4            equ	1818	;# 
   436     071B                     PIE5            equ	1819	;# 
   437     071C                     PIE6            equ	1820	;# 
   438     071D                     PIE7            equ	1821	;# 
   439     071E                     PIE8            equ	1822	;# 
   440     0796                     PMD0            equ	1942	;# 
   441     0797                     PMD1            equ	1943	;# 
   442     0798                     PMD2            equ	1944	;# 
   443     0799                     PMD3            equ	1945	;# 
   444     079A                     PMD4            equ	1946	;# 
   445     079B                     PMD5            equ	1947	;# 
   446     080C                     WDTCON0         equ	2060	;# 
   447     080D                     WDTCON1         equ	2061	;# 
   448     080E                     WDTPSL          equ	2062	;# 
   449     080F                     WDTPSH          equ	2063	;# 
   450     0810                     WDTTMR          equ	2064	;# 
   451     0811                     BORCON          equ	2065	;# 
   452     0812                     VREGCON         equ	2066	;# 
   453     0813                     PCON0           equ	2067	;# 
   454     0814                     CCDCON          equ	2068	;# 
   455     081A                     NVMADRL         equ	2074	;# 
   456     081B                     NVMADRH         equ	2075	;# 
   457     081C                     NVMDATL         equ	2076	;# 
   458     081D                     NVMDATH         equ	2077	;# 
   459     081E                     NVMCON1         equ	2078	;# 
   460     081F                     NVMCON2         equ	2079	;# 
   461     088C                     CPUDOZE         equ	2188	;# 
   462     088D                     OSCCON1         equ	2189	;# 
   463     088E                     OSCCON2         equ	2190	;# 
   464     088F                     OSCCON3         equ	2191	;# 
   465     0890                     OSCSTAT         equ	2192	;# 
   466     0891                     OSCEN           equ	2193	;# 
   467     0892                     OSCTUNE         equ	2194	;# 
   468     0893                     OSCFRQ          equ	2195	;# 
   469     0895                     CLKRCON         equ	2197	;# 
   470     0896                     CLKRCLK         equ	2198	;# 
   471     0897                     MDCON0          equ	2199	;# 
   472     0898                     MDCON1          equ	2200	;# 
   473     0899                     MDSRC           equ	2201	;# 
   474     089A                     MDCARL          equ	2202	;# 
   475     089B                     MDCARH          equ	2203	;# 
   476     090C                     FVRCON          equ	2316	;# 
   477     090E                     DAC1CON0        equ	2318	;# 
   478     090F                     DAC1CON1        equ	2319	;# 
   479     091F                     ZCD1CON         equ	2335	;# 
   480     091F                     ZCDCON          equ	2335	;# 
   481     098F                     CMOUT           equ	2447	;# 
   482     098F                     CMSTAT          equ	2447	;# 
   483     0990                     CM1CON0         equ	2448	;# 
   484     0991                     CM1CON1         equ	2449	;# 
   485     0992                     CM1NSEL         equ	2450	;# 
   486     0993                     CM1PSEL         equ	2451	;# 
   487     0994                     CM2CON0         equ	2452	;# 
   488     0995                     CM2CON1         equ	2453	;# 
   489     0996                     CM2NSEL         equ	2454	;# 
   490     0997                     CM2PSEL         equ	2455	;# 
   491     0E0F                     CLCDATA         equ	3599	;# 
   492     0E10                     CLC1CON         equ	3600	;# 
   493     0E11                     CLC1POL         equ	3601	;# 
   494     0E12                     CLC1SEL0        equ	3602	;# 
   495     0E13                     CLC1SEL1        equ	3603	;# 
   496     0E14                     CLC1SEL2        equ	3604	;# 
   497     0E15                     CLC1SEL3        equ	3605	;# 
   498     0E16                     CLC1GLS0        equ	3606	;# 
   499     0E17                     CLC1GLS1        equ	3607	;# 
   500     0E18                     CLC1GLS2        equ	3608	;# 
   501     0E19                     CLC1GLS3        equ	3609	;# 
   502     0E1A                     CLC2CON         equ	3610	;# 
   503     0E1B                     CLC2POL         equ	3611	;# 
   504     0E1C                     CLC2SEL0        equ	3612	;# 
   505     0E1D                     CLC2SEL1        equ	3613	;# 
   506     0E1E                     CLC2SEL2        equ	3614	;# 
   507     0E1F                     CLC2SEL3        equ	3615	;# 
   508     0E20                     CLC2GLS0        equ	3616	;# 
   509     0E21                     CLC2GLS1        equ	3617	;# 
   510     0E22                     CLC2GLS2        equ	3618	;# 
   511     0E23                     CLC2GLS3        equ	3619	;# 
   512     0E24                     CLC3CON         equ	3620	;# 
   513     0E25                     CLC3POL         equ	3621	;# 
   514     0E26                     CLC3SEL0        equ	3622	;# 
   515     0E27                     CLC3SEL1        equ	3623	;# 
   516     0E28                     CLC3SEL2        equ	3624	;# 
   517     0E29                     CLC3SEL3        equ	3625	;# 
   518     0E2A                     CLC3GLS0        equ	3626	;# 
   519     0E2B                     CLC3GLS1        equ	3627	;# 
   520     0E2C                     CLC3GLS2        equ	3628	;# 
   521     0E2D                     CLC3GLS3        equ	3629	;# 
   522     0E2E                     CLC4CON         equ	3630	;# 
   523     0E2F                     CLC4POL         equ	3631	;# 
   524     0E30                     CLC4SEL0        equ	3632	;# 
   525     0E31                     CLC4SEL1        equ	3633	;# 
   526     0E32                     CLC4SEL2        equ	3634	;# 
   527     0E33                     CLC4SEL3        equ	3635	;# 
   528     0E34                     CLC4GLS0        equ	3636	;# 
   529     0E35                     CLC4GLS1        equ	3637	;# 
   530     0E36                     CLC4GLS2        equ	3638	;# 
   531     0E37                     CLC4GLS3        equ	3639	;# 
   532     0E8F                     PPSLOCK         equ	3727	;# 
   533     0E90                     INTPPS          equ	3728	;# 
   534     0E91                     T0CKIPPS        equ	3729	;# 
   535     0E92                     T1CKIPPS        equ	3730	;# 
   536     0E93                     T1GPPS          equ	3731	;# 
   537     0E94                     T3CKIPPS        equ	3732	;# 
   538     0E95                     T3GPPS          equ	3733	;# 
   539     0E96                     T5CKIPPS        equ	3734	;# 
   540     0E97                     T5GPPS          equ	3735	;# 
   541     0E9C                     T2AINPPS        equ	3740	;# 
   542     0E9D                     T4AINPPS        equ	3741	;# 
   543     0E9E                     T6AINPPS        equ	3742	;# 
   544     0EA1                     CCP1PPS         equ	3745	;# 
   545     0EA2                     CCP2PPS         equ	3746	;# 
   546     0EA3                     CCP3PPS         equ	3747	;# 
   547     0EA4                     CCP4PPS         equ	3748	;# 
   548     0EA5                     CCP5PPS         equ	3749	;# 
   549     0EA9                     SMT1WINPPS      equ	3753	;# 
   550     0EAA                     SMT1SIGPPS      equ	3754	;# 
   551     0EAB                     SMT2WINPPS      equ	3755	;# 
   552     0EAC                     SMT2SIGPPS      equ	3756	;# 
   553     0EB1                     CWG1PPS         equ	3761	;# 
   554     0EB2                     CWG2PPS         equ	3762	;# 
   555     0EB3                     CWG3PPS         equ	3763	;# 
   556     0EB8                     MDCARLPPS       equ	3768	;# 
   557     0EB9                     MDCARHPPS       equ	3769	;# 
   558     0EBA                     MDSRCPPS        equ	3770	;# 
   559     0EBB                     CLCIN0PPS       equ	3771	;# 
   560     0EBC                     CLCIN1PPS       equ	3772	;# 
   561     0EBD                     CLCIN2PPS       equ	3773	;# 
   562     0EBE                     CLCIN3PPS       equ	3774	;# 
   563     0EC3                     ADCACTPPS       equ	3779	;# 
   564     0EC5                     SSP1CLKPPS      equ	3781	;# 
   565     0EC6                     SSP1DATPPS      equ	3782	;# 
   566     0EC7                     SSP1SSPPS       equ	3783	;# 
   567     0EC8                     SSP2CLKPPS      equ	3784	;# 
   568     0EC9                     SSP2DATPPS      equ	3785	;# 
   569     0ECA                     SSP2SSPPS       equ	3786	;# 
   570     0ECB                     RXPPS           equ	3787	;# 
   571     0ECC                     TXPPS           equ	3788	;# 
   572     0F10                     RA0PPS          equ	3856	;# 
   573     0F11                     RA1PPS          equ	3857	;# 
   574     0F12                     RA2PPS          equ	3858	;# 
   575     0F13                     RA3PPS          equ	3859	;# 
   576     0F14                     RA4PPS          equ	3860	;# 
   577     0F15                     RA5PPS          equ	3861	;# 
   578     0F16                     RA6PPS          equ	3862	;# 
   579     0F17                     RA7PPS          equ	3863	;# 
   580     0F18                     RB0PPS          equ	3864	;# 
   581     0F19                     RB1PPS          equ	3865	;# 
   582     0F1A                     RB2PPS          equ	3866	;# 
   583     0F1B                     RB3PPS          equ	3867	;# 
   584     0F1C                     RB4PPS          equ	3868	;# 
   585     0F1D                     RB5PPS          equ	3869	;# 
   586     0F1E                     RB6PPS          equ	3870	;# 
   587     0F1F                     RB7PPS          equ	3871	;# 
   588     0F20                     RC0PPS          equ	3872	;# 
   589     0F21                     RC1PPS          equ	3873	;# 
   590     0F22                     RC2PPS          equ	3874	;# 
   591     0F23                     RC3PPS          equ	3875	;# 
   592     0F24                     RC4PPS          equ	3876	;# 
   593     0F25                     RC5PPS          equ	3877	;# 
   594     0F26                     RC6PPS          equ	3878	;# 
   595     0F27                     RC7PPS          equ	3879	;# 
   596     0F38                     ANSELA          equ	3896	;# 
   597     0F39                     WPUA            equ	3897	;# 
   598     0F3A                     ODCONA          equ	3898	;# 
   599     0F3B                     SLRCONA         equ	3899	;# 
   600     0F3C                     INLVLA          equ	3900	;# 
   601     0F3D                     IOCAP           equ	3901	;# 
   602     0F3E                     IOCAN           equ	3902	;# 
   603     0F3F                     IOCAF           equ	3903	;# 
   604     0F40                     CCDNA           equ	3904	;# 
   605     0F41                     CCDPA           equ	3905	;# 
   606     0F43                     ANSELB          equ	3907	;# 
   607     0F44                     WPUB            equ	3908	;# 
   608     0F45                     ODCONB          equ	3909	;# 
   609     0F46                     SLRCONB         equ	3910	;# 
   610     0F47                     INLVLB          equ	3911	;# 
   611     0F48                     IOCBP           equ	3912	;# 
   612     0F49                     IOCBN           equ	3913	;# 
   613     0F4A                     IOCBF           equ	3914	;# 
   614     0F4B                     CCDNB           equ	3915	;# 
   615     0F4C                     CCDPB           equ	3916	;# 
   616     0F4E                     ANSELC          equ	3918	;# 
   617     0F4F                     WPUC            equ	3919	;# 
   618     0F50                     ODCONC          equ	3920	;# 
   619     0F51                     SLRCONC         equ	3921	;# 
   620     0F52                     INLVLC          equ	3922	;# 
   621     0F53                     IOCCP           equ	3923	;# 
   622     0F54                     IOCCN           equ	3924	;# 
   623     0F55                     IOCCF           equ	3925	;# 
   624     0F56                     CCDNC           equ	3926	;# 
   625     0F57                     CCDPC           equ	3927	;# 
   626     0F65                     WPUE            equ	3941	;# 
   627     0F68                     INLVLE          equ	3944	;# 
   628     0F69                     IOCEP           equ	3945	;# 
   629     0F6A                     IOCEN           equ	3946	;# 
   630     0F6B                     IOCEF           equ	3947	;# 
   631     0FE4                     STATUS_SHAD     equ	4068	;# 
   632     0FE5                     WREG_SHAD       equ	4069	;# 
   633     0FE6                     BSR_SHAD        equ	4070	;# 
   634     0FE7                     PCLATH_SHAD     equ	4071	;# 
   635     0FE8                     FSR0L_SHAD      equ	4072	;# 
   636     0FE9                     FSR0H_SHAD      equ	4073	;# 
   637     0FEA                     FSR1L_SHAD      equ	4074	;# 
   638     0FEB                     FSR1H_SHAD      equ	4075	;# 
   639     0FED                     STKPTR          equ	4077	;# 
   640     0FEE                     TOSL            equ	4078	;# 
   641     0FEF                     TOSH            equ	4079	;# 
   642     0000                     INDF0           equ	0	;# 
   643     0001                     INDF1           equ	1	;# 
   644     0002                     PCL             equ	2	;# 
   645     0003                     STATUS          equ	3	;# 
   646     0004                     FSR0L           equ	4	;# 
   647     0005                     FSR0H           equ	5	;# 
   648     0006                     FSR1L           equ	6	;# 
   649     0007                     FSR1H           equ	7	;# 
   650     0008                     BSR             equ	8	;# 
   651     0009                     WREG            equ	9	;# 
   652     000A                     PCLATH          equ	10	;# 
   653     000B                     INTCON          equ	11	;# 
   654     000C                     PORTA           equ	12	;# 
   655     000D                     PORTB           equ	13	;# 
   656     000E                     PORTC           equ	14	;# 
   657     0010                     PORTE           equ	16	;# 
   658     0011                     TRISA           equ	17	;# 
   659     0012                     TRISB           equ	18	;# 
   660     0013                     TRISC           equ	19	;# 
   661     0016                     LATA            equ	22	;# 
   662     0017                     LATB            equ	23	;# 
   663     0018                     LATC            equ	24	;# 
   664     001C                     TMR0L           equ	28	;# 
   665     001C                     TMR0            equ	28	;# 
   666     001D                     TMR0H           equ	29	;# 
   667     001D                     PR0             equ	29	;# 
   668     001E                     T0CON0          equ	30	;# 
   669     001F                     T0CON1          equ	31	;# 
   670     008C                     ADRES           equ	140	;# 
   671     008C                     ADRESL          equ	140	;# 
   672     008D                     ADRESH          equ	141	;# 
   673     008E                     ADPREV          equ	142	;# 
   674     008E                     ADPREVL         equ	142	;# 
   675     008F                     ADPREVH         equ	143	;# 
   676     0090                     ADACC           equ	144	;# 
   677     0090                     ADACCL          equ	144	;# 
   678     0091                     ADACCH          equ	145	;# 
   679     0093                     ADCON0          equ	147	;# 
   680     0094                     ADCON1          equ	148	;# 
   681     0095                     ADCON2          equ	149	;# 
   682     0096                     ADCON3          equ	150	;# 
   683     0097                     ADSTAT          equ	151	;# 
   684     0098                     ADCLK           equ	152	;# 
   685     0099                     ADACT           equ	153	;# 
   686     009A                     ADREF           equ	154	;# 
   687     009B                     ADCAP           equ	155	;# 
   688     009C                     ADPRE           equ	156	;# 
   689     009D                     ADACQ           equ	157	;# 
   690     009E                     ADPCH           equ	158	;# 
   691     010C                     ADCNT           equ	268	;# 
   692     010D                     ADRPT           equ	269	;# 
   693     010E                     ADLTH           equ	270	;# 
   694     010E                     ADLTHL          equ	270	;# 
   695     010F                     ADLTHH          equ	271	;# 
   696     0110                     ADUTH           equ	272	;# 
   697     0110                     ADUTHL          equ	272	;# 
   698     0111                     ADUTHH          equ	273	;# 
   699     0112                     ADSTPT          equ	274	;# 
   700     0112                     ADSTPTL         equ	274	;# 
   701     0113                     ADSTPTH         equ	275	;# 
   702     0114                     ADFLTR          equ	276	;# 
   703     0114                     ADFLTRL         equ	276	;# 
   704     0115                     ADFLTRH         equ	277	;# 
   705     0116                     ADERR           equ	278	;# 
   706     0116                     ADERRL          equ	278	;# 
   707     0117                     ADERRH          equ	279	;# 
   708     0119                     RC1REG          equ	281	;# 
   709     0119                     RCREG           equ	281	;# 
   710     0119                     RCREG1          equ	281	;# 
   711     011A                     TX1REG          equ	282	;# 
   712     011A                     TXREG1          equ	282	;# 
   713     011A                     TXREG           equ	282	;# 
   714     011B                     SP1BRG          equ	283	;# 
   715     011B                     SPBRG           equ	283	;# 
   716     011B                     SP1BRGL         equ	283	;# 
   717     011B                     SPBRG1          equ	283	;# 
   718     011B                     SPBRGL          equ	283	;# 
   719     011C                     SP1BRGH         equ	284	;# 
   720     011C                     SPBRGH          equ	284	;# 
   721     011C                     SPBRGH1         equ	284	;# 
   722     011D                     RC1STA          equ	285	;# 
   723     011D                     RCSTA1          equ	285	;# 
   724     011D                     RCSTA           equ	285	;# 
   725     011E                     TX1STA          equ	286	;# 
   726     011E                     TXSTA1          equ	286	;# 
   727     011E                     TXSTA           equ	286	;# 
   728     011F                     BAUD1CON        equ	287	;# 
   729     011F                     BAUDCON1        equ	287	;# 
   730     011F                     BAUDCTL1        equ	287	;# 
   731     011F                     BAUDCON         equ	287	;# 
   732     011F                     BAUDCTL         equ	287	;# 
   733     018C                     SSP1BUF         equ	396	;# 
   734     018D                     SSP1ADD         equ	397	;# 
   735     018E                     SSP1MSK         equ	398	;# 
   736     018F                     SSP1STAT        equ	399	;# 
   737     0190                     SSP1CON1        equ	400	;# 
   738     0191                     SSP1CON2        equ	401	;# 
   739     0192                     SSP1CON3        equ	402	;# 
   740     0196                     SSP2BUF         equ	406	;# 
   741     0197                     SSP2ADD         equ	407	;# 
   742     0198                     SSP2MSK         equ	408	;# 
   743     0199                     SSP2STAT        equ	409	;# 
   744     019A                     SSP2CON1        equ	410	;# 
   745     019B                     SSP2CON2        equ	411	;# 
   746     019C                     SSP2CON3        equ	412	;# 
   747     020C                     TMR1            equ	524	;# 
   748     020C                     TMR1L           equ	524	;# 
   749     020D                     TMR1H           equ	525	;# 
   750     020E                     T1CON           equ	526	;# 
   751     020F                     T1GCON          equ	527	;# 
   752     020F                     PR1             equ	527	;# 
   753     0210                     T1GATE          equ	528	;# 
   754     0210                     TMR1GATE        equ	528	;# 
   755     0211                     T1CLK           equ	529	;# 
   756     0211                     TMR1CLK         equ	529	;# 
   757     0212                     TMR3            equ	530	;# 
   758     0212                     TMR3L           equ	530	;# 
   759     0213                     TMR3H           equ	531	;# 
   760     0214                     T3CON           equ	532	;# 
   761     0215                     T3GCON          equ	533	;# 
   762     0215                     PR3             equ	533	;# 
   763     0216                     T3GATE          equ	534	;# 
   764     0216                     TMR3GATE        equ	534	;# 
   765     0217                     T3CLK           equ	535	;# 
   766     0217                     TMR3CLK         equ	535	;# 
   767     0218                     TMR5            equ	536	;# 
   768     0218                     TMR5L           equ	536	;# 
   769     0219                     TMR5H           equ	537	;# 
   770     021A                     T5CON           equ	538	;# 
   771     021B                     T5GCON          equ	539	;# 
   772     021B                     PR5             equ	539	;# 
   773     021C                     T5GATE          equ	540	;# 
   774     021C                     TMR5GATE        equ	540	;# 
   775     021D                     T5CLK           equ	541	;# 
   776     021D                     TMR5CLK         equ	541	;# 
   777     021E                     CCPTMRS0        equ	542	;# 
   778     021F                     CCPTMRS1        equ	543	;# 
   779     028C                     T2TMR           equ	652	;# 
   780     028C                     TMR2            equ	652	;# 
   781     028D                     T2PR            equ	653	;# 
   782     028D                     PR2             equ	653	;# 
   783     028E                     T2CON           equ	654	;# 
   784     028F                     T2HLT           equ	655	;# 
   785     0290                     T2CLKCON        equ	656	;# 
   786     0290                     T2CLK           equ	656	;# 
   787     0291                     T2RST           equ	657	;# 
   788     0292                     T4TMR           equ	658	;# 
   789     0292                     TMR4            equ	658	;# 
   790     0293                     T4PR            equ	659	;# 
   791     0293                     PR4             equ	659	;# 
   792     0294                     T4CON           equ	660	;# 
   793     0295                     T4HLT           equ	661	;# 
   794     0296                     T4CLKCON        equ	662	;# 
   795     0296                     T4CLK           equ	662	;# 
   796     0297                     T4RST           equ	663	;# 
   797     0298                     T6TMR           equ	664	;# 
   798     0298                     TMR6            equ	664	;# 
   799     0299                     T6PR            equ	665	;# 
   800     0299                     PR6             equ	665	;# 
   801     029A                     T6CON           equ	666	;# 
   802     029B                     T6HLT           equ	667	;# 
   803     029C                     T6CLKCON        equ	668	;# 
   804     029C                     T6CLK           equ	668	;# 
   805     029D                     T6RST           equ	669	;# 
   806     030C                     CCPR1           equ	780	;# 
   807     030C                     CCPR1L          equ	780	;# 
   808     030D                     CCPR1H          equ	781	;# 
   809     030E                     CCP1CON         equ	782	;# 
   810     030F                     CCP1CAP         equ	783	;# 
   811     0310                     CCPR2           equ	784	;# 
   812     0310                     CCPR2L          equ	784	;# 
   813     0311                     CCPR2H          equ	785	;# 
   814     0312                     CCP2CON         equ	786	;# 
   815     0313                     CCP2CAP         equ	787	;# 
   816     0314                     CCPR3           equ	788	;# 
   817     0314                     CCPR3L          equ	788	;# 
   818     0315                     CCPR3H          equ	789	;# 
   819     0316                     CCP3CON         equ	790	;# 
   820     0317                     CCP3CAP         equ	791	;# 
   821     0318                     CCPR4           equ	792	;# 
   822     0318                     CCPR4L          equ	792	;# 
   823     0319                     CCPR4H          equ	793	;# 
   824     031A                     CCP4CON         equ	794	;# 
   825     031B                     CCP4CAP         equ	795	;# 
   826     031C                     CCPR5           equ	796	;# 
   827     031C                     CCPR5L          equ	796	;# 
   828     031D                     CCPR5H          equ	797	;# 
   829     031E                     CCP5CON         equ	798	;# 
   830     031F                     CCP5CAP         equ	799	;# 
   831     038C                     PWM6DC          equ	908	;# 
   832     038C                     PWM6DCL         equ	908	;# 
   833     038D                     PWM6DCH         equ	909	;# 
   834     038E                     PWM6CON         equ	910	;# 
   835     0390                     PWM7DC          equ	912	;# 
   836     0390                     PWM7DCL         equ	912	;# 
   837     0391                     PWM7DCH         equ	913	;# 
   838     0392                     PWM7CON         equ	914	;# 
   839     040C                     SCANLADRL       equ	1036	;# 
   840     040D                     SCANLADRH       equ	1037	;# 
   841     040E                     SCANHADRL       equ	1038	;# 
   842     040F                     SCANHADRH       equ	1039	;# 
   843     0410                     SCANCON0        equ	1040	;# 
   844     0411                     SCANTRIG        equ	1041	;# 
   845     0416                     CRCDATA         equ	1046	;# 
   846     0416                     CRCDATL         equ	1046	;# 
   847     0417                     CRCDATH         equ	1047	;# 
   848     0418                     CRCACC          equ	1048	;# 
   849     0418                     CRCACCL         equ	1048	;# 
   850     0419                     CRCACCH         equ	1049	;# 
   851     041A                     CRCSHFT         equ	1050	;# 
   852     041A                     CRCSHIFTL       equ	1050	;# 
   853     041B                     CRCSHIFTH       equ	1051	;# 
   854     041C                     CRCXOR          equ	1052	;# 
   855     041C                     CRCXORL         equ	1052	;# 
   856     041D                     CRCXORH         equ	1053	;# 
   857     041E                     CRCCON0         equ	1054	;# 
   858     041F                     CRCCON1         equ	1055	;# 
   859     048C                     SMT1TMR         equ	1164	;# 
   860     048C                     SMT1TMRL        equ	1164	;# 
   861     048D                     SMT1TMRH        equ	1165	;# 
   862     048E                     SMT1TMRU        equ	1166	;# 
   863     048F                     SMT1CPR         equ	1167	;# 
   864     048F                     SMT1CPRL        equ	1167	;# 
   865     0490                     SMT1CPRH        equ	1168	;# 
   866     0491                     SMT1CPRU        equ	1169	;# 
   867     0492                     SMT1CPW         equ	1170	;# 
   868     0492                     SMT1CPWL        equ	1170	;# 
   869     0493                     SMT1CPWH        equ	1171	;# 
   870     0494                     SMT1CPWU        equ	1172	;# 
   871     0495                     SMT1PR          equ	1173	;# 
   872     0495                     SMT1PRL         equ	1173	;# 
   873     0496                     SMT1PRH         equ	1174	;# 
   874     0497                     SMT1PRU         equ	1175	;# 
   875     0498                     SMT1CON0        equ	1176	;# 
   876     0499                     SMT1CON1        equ	1177	;# 
   877     049A                     SMT1STAT        equ	1178	;# 
   878     049B                     SMT1CLK         equ	1179	;# 
   879     049C                     SMT1SIG         equ	1180	;# 
   880     049D                     SMT1WIN         equ	1181	;# 
   881     050C                     SMT2TMR         equ	1292	;# 
   882     050C                     SMT2TMRL        equ	1292	;# 
   883     050D                     SMT2TMRH        equ	1293	;# 
   884     050E                     SMT2TMRU        equ	1294	;# 
   885     050F                     SMT2CPR         equ	1295	;# 
   886     050F                     SMT2CPRL        equ	1295	;# 
   887     0510                     SMT2CPRH        equ	1296	;# 
   888     0511                     SMT2CPRU        equ	1297	;# 
   889     0512                     SMT2CPW         equ	1298	;# 
   890     0512                     SMT2CPWL        equ	1298	;# 
   891     0513                     SMT2CPWH        equ	1299	;# 
   892     0514                     SMT2CPWU        equ	1300	;# 
   893     0515                     SMT2PR          equ	1301	;# 
   894     0515                     SMT2PRL         equ	1301	;# 
   895     0516                     SMT2PRH         equ	1302	;# 
   896     0517                     SMT2PRU         equ	1303	;# 
   897     0518                     SMT2CON0        equ	1304	;# 
   898     0519                     SMT2CON1        equ	1305	;# 
   899     051A                     SMT2STAT        equ	1306	;# 
   900     051B                     SMT2CLK         equ	1307	;# 
   901     051C                     SMT2SIG         equ	1308	;# 
   902     051D                     SMT2WIN         equ	1309	;# 
   903     058C                     NCO1ACC         equ	1420	;# 
   904     058C                     NCO1ACCL        equ	1420	;# 
   905     058D                     NCO1ACCH        equ	1421	;# 
   906     058E                     NCO1ACCU        equ	1422	;# 
   907     058F                     NCO1INC         equ	1423	;# 
   908     058F                     NCO1INCL        equ	1423	;# 
   909     0590                     NCO1INCH        equ	1424	;# 
   910     0591                     NCO1INCU        equ	1425	;# 
   911     0592                     NCO1CON         equ	1426	;# 
   912     0593                     NCO1CLK         equ	1427	;# 
   913     060C                     CWG1CLKCON      equ	1548	;# 
   914     060D                     CWG1ISM         equ	1549	;# 
   915     060E                     CWG1DBR         equ	1550	;# 
   916     060F                     CWG1DBF         equ	1551	;# 
   917     0610                     CWG1CON0        equ	1552	;# 
   918     0611                     CWG1CON1        equ	1553	;# 
   919     0612                     CWG1AS0         equ	1554	;# 
   920     0613                     CWG1AS1         equ	1555	;# 
   921     0614                     CWG1STR         equ	1556	;# 
   922     0616                     CWG2CLKCON      equ	1558	;# 
   923     0617                     CWG2ISM         equ	1559	;# 
   924     0618                     CWG2DBR         equ	1560	;# 
   925     0619                     CWG2DBF         equ	1561	;# 
   926     061A                     CWG2CON0        equ	1562	;# 
   927     061B                     CWG2CON1        equ	1563	;# 
   928     061C                     CWG2AS0         equ	1564	;# 
   929     061D                     CWG2AS1         equ	1565	;# 
   930     061E                     CWG2STR         equ	1566	;# 
   931     068C                     CWG3CLKCON      equ	1676	;# 
   932     068D                     CWG3ISM         equ	1677	;# 
   933     068E                     CWG3DBR         equ	1678	;# 
   934     068F                     CWG3DBF         equ	1679	;# 
   935     0690                     CWG3CON0        equ	1680	;# 
   936     0691                     CWG3CON1        equ	1681	;# 
   937     0692                     CWG3AS0         equ	1682	;# 
   938     0693                     CWG3AS1         equ	1683	;# 
   939     0694                     CWG3STR         equ	1684	;# 
   940     070C                     PIR0            equ	1804	;# 
   941     070D                     PIR1            equ	1805	;# 
   942     070E                     PIR2            equ	1806	;# 
   943     070F                     PIR3            equ	1807	;# 
   944     0710                     PIR4            equ	1808	;# 
   945     0711                     PIR5            equ	1809	;# 
   946     0712                     PIR6            equ	1810	;# 
   947     0713                     PIR7            equ	1811	;# 
   948     0714                     PIR8            equ	1812	;# 
   949     0716                     PIE0            equ	1814	;# 
   950     0717                     PIE1            equ	1815	;# 
   951     0718                     PIE2            equ	1816	;# 
   952     0719                     PIE3            equ	1817	;# 
   953     071A                     PIE4            equ	1818	;# 
   954     071B                     PIE5            equ	1819	;# 
   955     071C                     PIE6            equ	1820	;# 
   956     071D                     PIE7            equ	1821	;# 
   957     071E                     PIE8            equ	1822	;# 
   958     0796                     PMD0            equ	1942	;# 
   959     0797                     PMD1            equ	1943	;# 
   960     0798                     PMD2            equ	1944	;# 
   961     0799                     PMD3            equ	1945	;# 
   962     079A                     PMD4            equ	1946	;# 
   963     079B                     PMD5            equ	1947	;# 
   964     080C                     WDTCON0         equ	2060	;# 
   965     080D                     WDTCON1         equ	2061	;# 
   966     080E                     WDTPSL          equ	2062	;# 
   967     080F                     WDTPSH          equ	2063	;# 
   968     0810                     WDTTMR          equ	2064	;# 
   969     0811                     BORCON          equ	2065	;# 
   970     0812                     VREGCON         equ	2066	;# 
   971     0813                     PCON0           equ	2067	;# 
   972     0814                     CCDCON          equ	2068	;# 
   973     081A                     NVMADRL         equ	2074	;# 
   974     081B                     NVMADRH         equ	2075	;# 
   975     081C                     NVMDATL         equ	2076	;# 
   976     081D                     NVMDATH         equ	2077	;# 
   977     081E                     NVMCON1         equ	2078	;# 
   978     081F                     NVMCON2         equ	2079	;# 
   979     088C                     CPUDOZE         equ	2188	;# 
   980     088D                     OSCCON1         equ	2189	;# 
   981     088E                     OSCCON2         equ	2190	;# 
   982     088F                     OSCCON3         equ	2191	;# 
   983     0890                     OSCSTAT         equ	2192	;# 
   984     0891                     OSCEN           equ	2193	;# 
   985     0892                     OSCTUNE         equ	2194	;# 
   986     0893                     OSCFRQ          equ	2195	;# 
   987     0895                     CLKRCON         equ	2197	;# 
   988     0896                     CLKRCLK         equ	2198	;# 
   989     0897                     MDCON0          equ	2199	;# 
   990     0898                     MDCON1          equ	2200	;# 
   991     0899                     MDSRC           equ	2201	;# 
   992     089A                     MDCARL          equ	2202	;# 
   993     089B                     MDCARH          equ	2203	;# 
   994     090C                     FVRCON          equ	2316	;# 
   995     090E                     DAC1CON0        equ	2318	;# 
   996     090F                     DAC1CON1        equ	2319	;# 
   997     091F                     ZCD1CON         equ	2335	;# 
   998     091F                     ZCDCON          equ	2335	;# 
   999     098F                     CMOUT           equ	2447	;# 
  1000     098F                     CMSTAT          equ	2447	;# 
  1001     0990                     CM1CON0         equ	2448	;# 
  1002     0991                     CM1CON1         equ	2449	;# 
  1003     0992                     CM1NSEL         equ	2450	;# 
  1004     0993                     CM1PSEL         equ	2451	;# 
  1005     0994                     CM2CON0         equ	2452	;# 
  1006     0995                     CM2CON1         equ	2453	;# 
  1007     0996                     CM2NSEL         equ	2454	;# 
  1008     0997                     CM2PSEL         equ	2455	;# 
  1009     0E0F                     CLCDATA         equ	3599	;# 
  1010     0E10                     CLC1CON         equ	3600	;# 
  1011     0E11                     CLC1POL         equ	3601	;# 
  1012     0E12                     CLC1SEL0        equ	3602	;# 
  1013     0E13                     CLC1SEL1        equ	3603	;# 
  1014     0E14                     CLC1SEL2        equ	3604	;# 
  1015     0E15                     CLC1SEL3        equ	3605	;# 
  1016     0E16                     CLC1GLS0        equ	3606	;# 
  1017     0E17                     CLC1GLS1        equ	3607	;# 
  1018     0E18                     CLC1GLS2        equ	3608	;# 
  1019     0E19                     CLC1GLS3        equ	3609	;# 
  1020     0E1A                     CLC2CON         equ	3610	;# 
  1021     0E1B                     CLC2POL         equ	3611	;# 
  1022     0E1C                     CLC2SEL0        equ	3612	;# 
  1023     0E1D                     CLC2SEL1        equ	3613	;# 
  1024     0E1E                     CLC2SEL2        equ	3614	;# 
  1025     0E1F                     CLC2SEL3        equ	3615	;# 
  1026     0E20                     CLC2GLS0        equ	3616	;# 
  1027     0E21                     CLC2GLS1        equ	3617	;# 
  1028     0E22                     CLC2GLS2        equ	3618	;# 
  1029     0E23                     CLC2GLS3        equ	3619	;# 
  1030     0E24                     CLC3CON         equ	3620	;# 
  1031     0E25                     CLC3POL         equ	3621	;# 
  1032     0E26                     CLC3SEL0        equ	3622	;# 
  1033     0E27                     CLC3SEL1        equ	3623	;# 
  1034     0E28                     CLC3SEL2        equ	3624	;# 
  1035     0E29                     CLC3SEL3        equ	3625	;# 
  1036     0E2A                     CLC3GLS0        equ	3626	;# 
  1037     0E2B                     CLC3GLS1        equ	3627	;# 
  1038     0E2C                     CLC3GLS2        equ	3628	;# 
  1039     0E2D                     CLC3GLS3        equ	3629	;# 
  1040     0E2E                     CLC4CON         equ	3630	;# 
  1041     0E2F                     CLC4POL         equ	3631	;# 
  1042     0E30                     CLC4SEL0        equ	3632	;# 
  1043     0E31                     CLC4SEL1        equ	3633	;# 
  1044     0E32                     CLC4SEL2        equ	3634	;# 
  1045     0E33                     CLC4SEL3        equ	3635	;# 
  1046     0E34                     CLC4GLS0        equ	3636	;# 
  1047     0E35                     CLC4GLS1        equ	3637	;# 
  1048     0E36                     CLC4GLS2        equ	3638	;# 
  1049     0E37                     CLC4GLS3        equ	3639	;# 
  1050     0E8F                     PPSLOCK         equ	3727	;# 
  1051     0E90                     INTPPS          equ	3728	;# 
  1052     0E91                     T0CKIPPS        equ	3729	;# 
  1053     0E92                     T1CKIPPS        equ	3730	;# 
  1054     0E93                     T1GPPS          equ	3731	;# 
  1055     0E94                     T3CKIPPS        equ	3732	;# 
  1056     0E95                     T3GPPS          equ	3733	;# 
  1057     0E96                     T5CKIPPS        equ	3734	;# 
  1058     0E97                     T5GPPS          equ	3735	;# 
  1059     0E9C                     T2AINPPS        equ	3740	;# 
  1060     0E9D                     T4AINPPS        equ	3741	;# 
  1061     0E9E                     T6AINPPS        equ	3742	;# 
  1062     0EA1                     CCP1PPS         equ	3745	;# 
  1063     0EA2                     CCP2PPS         equ	3746	;# 
  1064     0EA3                     CCP3PPS         equ	3747	;# 
  1065     0EA4                     CCP4PPS         equ	3748	;# 
  1066     0EA5                     CCP5PPS         equ	3749	;# 
  1067     0EA9                     SMT1WINPPS      equ	3753	;# 
  1068     0EAA                     SMT1SIGPPS      equ	3754	;# 
  1069     0EAB                     SMT2WINPPS      equ	3755	;# 
  1070     0EAC                     SMT2SIGPPS      equ	3756	;# 
  1071     0EB1                     CWG1PPS         equ	3761	;# 
  1072     0EB2                     CWG2PPS         equ	3762	;# 
  1073     0EB3                     CWG3PPS         equ	3763	;# 
  1074     0EB8                     MDCARLPPS       equ	3768	;# 
  1075     0EB9                     MDCARHPPS       equ	3769	;# 
  1076     0EBA                     MDSRCPPS        equ	3770	;# 
  1077     0EBB                     CLCIN0PPS       equ	3771	;# 
  1078     0EBC                     CLCIN1PPS       equ	3772	;# 
  1079     0EBD                     CLCIN2PPS       equ	3773	;# 
  1080     0EBE                     CLCIN3PPS       equ	3774	;# 
  1081     0EC3                     ADCACTPPS       equ	3779	;# 
  1082     0EC5                     SSP1CLKPPS      equ	3781	;# 
  1083     0EC6                     SSP1DATPPS      equ	3782	;# 
  1084     0EC7                     SSP1SSPPS       equ	3783	;# 
  1085     0EC8                     SSP2CLKPPS      equ	3784	;# 
  1086     0EC9                     SSP2DATPPS      equ	3785	;# 
  1087     0ECA                     SSP2SSPPS       equ	3786	;# 
  1088     0ECB                     RXPPS           equ	3787	;# 
  1089     0ECC                     TXPPS           equ	3788	;# 
  1090     0F10                     RA0PPS          equ	3856	;# 
  1091     0F11                     RA1PPS          equ	3857	;# 
  1092     0F12                     RA2PPS          equ	3858	;# 
  1093     0F13                     RA3PPS          equ	3859	;# 
  1094     0F14                     RA4PPS          equ	3860	;# 
  1095     0F15                     RA5PPS          equ	3861	;# 
  1096     0F16                     RA6PPS          equ	3862	;# 
  1097     0F17                     RA7PPS          equ	3863	;# 
  1098     0F18                     RB0PPS          equ	3864	;# 
  1099     0F19                     RB1PPS          equ	3865	;# 
  1100     0F1A                     RB2PPS          equ	3866	;# 
  1101     0F1B                     RB3PPS          equ	3867	;# 
  1102     0F1C                     RB4PPS          equ	3868	;# 
  1103     0F1D                     RB5PPS          equ	3869	;# 
  1104     0F1E                     RB6PPS          equ	3870	;# 
  1105     0F1F                     RB7PPS          equ	3871	;# 
  1106     0F20                     RC0PPS          equ	3872	;# 
  1107     0F21                     RC1PPS          equ	3873	;# 
  1108     0F22                     RC2PPS          equ	3874	;# 
  1109     0F23                     RC3PPS          equ	3875	;# 
  1110     0F24                     RC4PPS          equ	3876	;# 
  1111     0F25                     RC5PPS          equ	3877	;# 
  1112     0F26                     RC6PPS          equ	3878	;# 
  1113     0F27                     RC7PPS          equ	3879	;# 
  1114     0F38                     ANSELA          equ	3896	;# 
  1115     0F39                     WPUA            equ	3897	;# 
  1116     0F3A                     ODCONA          equ	3898	;# 
  1117     0F3B                     SLRCONA         equ	3899	;# 
  1118     0F3C                     INLVLA          equ	3900	;# 
  1119     0F3D                     IOCAP           equ	3901	;# 
  1120     0F3E                     IOCAN           equ	3902	;# 
  1121     0F3F                     IOCAF           equ	3903	;# 
  1122     0F40                     CCDNA           equ	3904	;# 
  1123     0F41                     CCDPA           equ	3905	;# 
  1124     0F43                     ANSELB          equ	3907	;# 
  1125     0F44                     WPUB            equ	3908	;# 
  1126     0F45                     ODCONB          equ	3909	;# 
  1127     0F46                     SLRCONB         equ	3910	;# 
  1128     0F47                     INLVLB          equ	3911	;# 
  1129     0F48                     IOCBP           equ	3912	;# 
  1130     0F49                     IOCBN           equ	3913	;# 
  1131     0F4A                     IOCBF           equ	3914	;# 
  1132     0F4B                     CCDNB           equ	3915	;# 
  1133     0F4C                     CCDPB           equ	3916	;# 
  1134     0F4E                     ANSELC          equ	3918	;# 
  1135     0F4F                     WPUC            equ	3919	;# 
  1136     0F50                     ODCONC          equ	3920	;# 
  1137     0F51                     SLRCONC         equ	3921	;# 
  1138     0F52                     INLVLC          equ	3922	;# 
  1139     0F53                     IOCCP           equ	3923	;# 
  1140     0F54                     IOCCN           equ	3924	;# 
  1141     0F55                     IOCCF           equ	3925	;# 
  1142     0F56                     CCDNC           equ	3926	;# 
  1143     0F57                     CCDPC           equ	3927	;# 
  1144     0F65                     WPUE            equ	3941	;# 
  1145     0F68                     INLVLE          equ	3944	;# 
  1146     0F69                     IOCEP           equ	3945	;# 
  1147     0F6A                     IOCEN           equ	3946	;# 
  1148     0F6B                     IOCEF           equ	3947	;# 
  1149     0FE4                     STATUS_SHAD     equ	4068	;# 
  1150     0FE5                     WREG_SHAD       equ	4069	;# 
  1151     0FE6                     BSR_SHAD        equ	4070	;# 
  1152     0FE7                     PCLATH_SHAD     equ	4071	;# 
  1153     0FE8                     FSR0L_SHAD      equ	4072	;# 
  1154     0FE9                     FSR0H_SHAD      equ	4073	;# 
  1155     0FEA                     FSR1L_SHAD      equ	4074	;# 
  1156     0FEB                     FSR1H_SHAD      equ	4075	;# 
  1157     0FED                     STKPTR          equ	4077	;# 
  1158     0FEE                     TOSL            equ	4078	;# 
  1159     0FEF                     TOSH            equ	4079	;# 
  1160                           
  1161                           	psect	idataBANK2
  1162     0002                     __pidataBANK2:
  1163                           
  1164                           ;initializer for _frequency
  1165     0002  34FF               	retlw	255
  1166     0003  34FF               	retlw	255
  1167                           
  1168                           	psect	idataBANK3
  1169     1CC0                     __pidataBANK3:
  1170                           
  1171                           ;initializer for _IR_Home2
  1172     1CC0  3453               	retlw	83
  1173     1CC1  3445               	retlw	69
  1174     1CC2  344E               	retlw	78
  1175     1CC3  3453               	retlw	83
  1176     1CC4  3449               	retlw	73
  1177     1CC5  344E               	retlw	78
  1178     1CC6  3447               	retlw	71
  1179                           
  1180                           ;initializer for _MA_Home2
  1181     1CC7  3453               	retlw	83
  1182     1CC8  3445               	retlw	69
  1183     1CC9  344E               	retlw	78
  1184     1CCA  3453               	retlw	83
  1185     1CCB  3449               	retlw	73
  1186     1CCC  344E               	retlw	78
  1187     1CCD  3447               	retlw	71
  1188                           
  1189                           ;initializer for _Loading
  1190     1CCE  347C               	retlw	124
  1191     1CCF  342F               	retlw	47
  1192     1CD0  342D               	retlw	45
  1193     1CD1  345C               	retlw	92
  1194                           
  1195                           ;initializer for _FFT_Result1
  1196     1CD2  3446               	retlw	70
  1197     1CD3  3455               	retlw	85
  1198     1CD4  344E               	retlw	78
  1199     1CD5  3444               	retlw	68
  1200     1CD6  3441               	retlw	65
  1201     1CD7  344D               	retlw	77
  1202     1CD8  3445               	retlw	69
  1203     1CD9  344E               	retlw	78
  1204     1CDA  3454               	retlw	84
  1205     1CDB  3441               	retlw	65
  1206     1CDC  344C               	retlw	76
  1207                           
  1208                           ;initializer for _FFT_Result2
  1209     1CDD  3420               	retlw	32
  1210     1CDE  3448               	retlw	72
  1211     1CDF  347A               	retlw	122
  1212                           
  1213                           	psect	idataBANK4
  1214     1DD8                     __pidataBANK4:
  1215                           
  1216                           ;initializer for _Rover_Team
  1217     1DD8  343C               	retlw	60
  1218     1DD9  343C               	retlw	60
  1219     1DDA  3452               	retlw	82
  1220     1DDB  344F               	retlw	79
  1221     1DDC  3456               	retlw	86
  1222     1DDD  3445               	retlw	69
  1223     1DDE  3452               	retlw	82
  1224     1DDF  3420               	retlw	32
  1225     1DE0  3454               	retlw	84
  1226     1DE1  3445               	retlw	69
  1227     1DE2  3441               	retlw	65
  1228     1DE3  344D               	retlw	77
  1229     1DE4  3420               	retlw	32
  1230     1DE5  3435               	retlw	53
  1231     1DE6  343E               	retlw	62
  1232     1DE7  343E               	retlw	62
  1233                           
  1234                           ;initializer for _IR_Home1
  1235     1DE8  3449               	retlw	73
  1236     1DE9  3452               	retlw	82
  1237     1DEA  3420               	retlw	32
  1238     1DEB  3444               	retlw	68
  1239     1DEC  3445               	retlw	69
  1240     1DED  3454               	retlw	84
  1241     1DEE  3445               	retlw	69
  1242     1DEF  3443               	retlw	67
  1243     1DF0  3454               	retlw	84
  1244     1DF1  3449               	retlw	73
  1245     1DF2  344F               	retlw	79
  1246     1DF3  344E               	retlw	78
  1247                           
  1248                           ;initializer for _LT_Home
  1249     1DF4  344C               	retlw	76
  1250     1DF5  3441               	retlw	65
  1251     1DF6  3453               	retlw	83
  1252     1DF7  3445               	retlw	69
  1253     1DF8  3452               	retlw	82
  1254     1DF9  3420               	retlw	32
  1255     1DFA  3454               	retlw	84
  1256     1DFB  3455               	retlw	85
  1257     1DFC  3452               	retlw	82
  1258     1DFD  3452               	retlw	82
  1259     1DFE  3445               	retlw	69
  1260     1DFF  3454               	retlw	84
  1261                           
  1262                           ;initializer for _FFT_Home2
  1263     1E00  3454               	retlw	84
  1264     1E01  3452               	retlw	82
  1265     1E02  3441               	retlw	65
  1266     1E03  344E               	retlw	78
  1267     1E04  3453               	retlw	83
  1268     1E05  3446               	retlw	70
  1269     1E06  344F               	retlw	79
  1270     1E07  3452               	retlw	82
  1271     1E08  344D               	retlw	77
  1272     1E09  3420               	retlw	32
  1273     1E0A  3420               	retlw	32
  1274     1E0B  3420               	retlw	32
  1275     1E0C  3420               	retlw	32
  1276     1E0D  3420               	retlw	32
  1277     1E0E  3420               	retlw	32
  1278     1E0F  3420               	retlw	32
  1279                           
  1280                           ;initializer for _FFT_Home1
  1281     1E10  3446               	retlw	70
  1282     1E11  3441               	retlw	65
  1283     1E12  3453               	retlw	83
  1284     1E13  3454               	retlw	84
  1285     1E14  3420               	retlw	32
  1286     1E15  3446               	retlw	70
  1287     1E16  344F               	retlw	79
  1288     1E17  3455               	retlw	85
  1289     1E18  3452               	retlw	82
  1290     1E19  3449               	retlw	73
  1291     1E1A  3445               	retlw	69
  1292     1E1B  3452               	retlw	82
  1293     1E1C  3420               	retlw	32
  1294     1E1D  3420               	retlw	32
  1295     1E1E  3420               	retlw	32
  1296     1E1F  3420               	retlw	32
  1297                           
  1298                           	psect	idataBANK5
  1299     07EF                     __pidataBANK5:
  1300                           
  1301                           ;initializer for _MA_Home1
  1302     07EF  344D               	retlw	77
  1303     07F0  3441               	retlw	65
  1304     07F1  3447               	retlw	71
  1305     07F2  344E               	retlw	78
  1306     07F3  3445               	retlw	69
  1307     07F4  3454               	retlw	84
  1308     07F5  3449               	retlw	73
  1309     07F6  3443               	retlw	67
  1310     07F7  3420               	retlw	32
  1311     07F8  3441               	retlw	65
  1312     07F9  344E               	retlw	78
  1313     07FA  344F               	retlw	79
  1314     07FB  344D               	retlw	77
  1315     07FC  3441               	retlw	65
  1316     07FD  344C               	retlw	76
  1317     07FE  3459               	retlw	89
  1318                           
  1319                           	psect	stringtext1
  1320     1800                     __pstringtext1:
  1321     1800                     _atanlo:
  1322     1800  3469               	retlw	105
  1323     1801  3437               	retlw	55
  1324     1802  34AC               	retlw	172
  1325     1803  3431               	retlw	49
  1326     1804  3468               	retlw	104
  1327     1805  3421               	retlw	33
  1328     1806  3422               	retlw	34
  1329     1807  3433               	retlw	51
  1330     1808  34B4               	retlw	180
  1331     1809  340F               	retlw	15
  1332     180A  3414               	retlw	20
  1333     180B  3433               	retlw	51
  1334     180C  3468               	retlw	104
  1335     180D  3421               	retlw	33
  1336     180E  34A2               	retlw	162
  1337     180F  3433               	retlw	51
  1338     1810                     __end_of_atanlo:
  1339                           
  1340                           	psect	stringtext2
  1341     1810                     __pstringtext2:
  1342     1810                     _atanhi:
  1343     1810  3438               	retlw	56
  1344     1811  3463               	retlw	99
  1345     1812  34ED               	retlw	237
  1346     1813  343E               	retlw	62
  1347     1814  34DA               	retlw	218
  1348     1815  340F               	retlw	15
  1349     1816  3449               	retlw	73
  1350     1817  343F               	retlw	63
  1351     1818  345E               	retlw	94
  1352     1819  3498               	retlw	152
  1353     181A  347B               	retlw	123
  1354     181B  343F               	retlw	63
  1355     181C  34DA               	retlw	218
  1356     181D  340F               	retlw	15
  1357     181E  34C9               	retlw	201
  1358     181F  343F               	retlw	63
  1359     1820                     __end_of_atanhi:
  1360                           
  1361                           	psect	stringtext3
  1362     1820                     __pstringtext3:
  1363     1820                     _aT4:
  1364     1820  3425               	retlw	37
  1365     1821  34AC               	retlw	172
  1366     1822  347C               	retlw	124
  1367     1823  343D               	retlw	61
  1368     1824                     __end_of_aT4:
  1369                           
  1370                           	psect	stringtext4
  1371     1824                     __pstringtext4:
  1372     1824                     _aT3:
  1373     1824  3447               	retlw	71
  1374     1825  3412               	retlw	18
  1375     1826  34DA               	retlw	218
  1376     1827  34BD               	retlw	189
  1377     1828                     __end_of_aT3:
  1378                           
  1379                           	psect	stringtext5
  1380     1828                     __pstringtext5:
  1381     1828                     _aT2:
  1382     1828  340D               	retlw	13
  1383     1829  34F5               	retlw	245
  1384     182A  3411               	retlw	17
  1385     182B  343E               	retlw	62
  1386     182C                     __end_of_aT2:
  1387                           
  1388                           	psect	stringtext6
  1389     182C                     __pstringtext6:
  1390     182C                     _aT1:
  1391     182C  3498               	retlw	152
  1392     182D  34CA               	retlw	202
  1393     182E  344C               	retlw	76
  1394     182F  34BE               	retlw	190
  1395     1830                     __end_of_aT1:
  1396                           
  1397                           	psect	stringtext7
  1398     1830                     __pstringtext7:
  1399     1830                     _aT0:
  1400     1830  34A9               	retlw	169
  1401     1831  34AA               	retlw	170
  1402     1832  34AA               	retlw	170
  1403     1833  343E               	retlw	62
  1404     1834                     __end_of_aT0:
  1405     0012                     _TRISBbits      set	18
  1406     0013                     _TRISCbits      set	19
  1407     0011                     _TRISAbits      set	17
  1408     0016                     _LATAbits       set	22
  1409     000B                     _INTCONbits     set	11
  1410     0017                     _LATBbits       set	23
  1411     000D                     _PORTBbits      set	13
  1412     0119                     _RC1REG         set	281
  1413     011A                     _TX1REG         set	282
  1414     011E                     _TX1STAbits     set	286
  1415     011D                     _RC1STAbits     set	285
  1416     011B                     _SP1BRGL        set	283
  1417     011C                     _SP1BRGH        set	284
  1418     011F                     _BAUD1CONbits   set	287
  1419     08F2                     _BRGH           set	2290
  1420     08FB                     _BRG16          set	2299
  1421     0197                     _SSP2ADDbits    set	407
  1422     019A                     _SSP2CON1bits   set	410
  1423     0199                     _SSP2STATbits   set	409
  1424     0196                     _SSP2BUF        set	406
  1425     019B                     _SSP2CON2bits   set	411
  1426     070F                     _PIR3bits       set	1807
  1427     0719                     _PIE3bits       set	1817
  1428     0EC9                     _SSP2DATPPSbits set	3785
  1429     0EC8                     _SSP2CLKPPSbits set	3784
  1430     0E8F                     _PPSLOCKbits    set	3727
  1431     0F25                     _RC5PPS         set	3877
  1432     0F23                     _RC3PPS         set	3875
  1433     0F24                     _RC4PPS         set	3876
  1434     0F44                     _WPUBbits       set	3908
  1435     0F45                     _ODCONBbits     set	3909
  1436     0F43                     _ANSELBbits     set	3907
  1437     0F4E                     _ANSELCbits     set	3918
  1438     0F38                     _ANSELAbits     set	3896
  1439                           
  1440                           	psect	cinit
  1441     002C                     start_initialization:	
  1442                           ; #config settings
  1443                           
  1444     002C                     __initialization:
  1445                           
  1446                           ; Initialize objects allocated to BANK2
  1447     002C  0022               	movlb	2	; select bank2
  1448     002D  3180  2002  3180   	fcall	__pidataBANK2	;fetch initializer
  1449     0030  00EE               	movwf	__pdataBANK2& (0+127)
  1450     0031  3180  2003  3180   	fcall	__pidataBANK2+1	;fetch initializer
  1451     0034  00EF               	movwf	(__pdataBANK2+1)& (0+127)
  1452                           
  1453                           ; Initialize objects allocated to BANK3
  1454     0035  30C0               	movlw	low __pidataBANK3
  1455     0036  0084               	movwf	4
  1456     0037  309C               	movlw	(high __pidataBANK3)| (0+128)
  1457     0038  0085               	movwf	5
  1458     0039  30CA               	movlw	low __pdataBANK3
  1459     003A  0086               	movwf	6
  1460     003B  3001               	movlw	high __pdataBANK3
  1461     003C  0087               	movwf	7
  1462     003D  3020               	movlw	32
  1463     003E  319B  238D  3180   	fcall	init_ram
  1464                           
  1465                           ; Initialize objects allocated to BANK4
  1466     0041  30D8               	movlw	low __pidataBANK4
  1467     0042  0084               	movwf	4
  1468     0043  309D               	movlw	(high __pidataBANK4)| (0+128)
  1469     0044  0085               	movwf	5
  1470     0045  3020               	movlw	low __pdataBANK4
  1471     0046  0086               	movwf	6
  1472     0047  3002               	movlw	high __pdataBANK4
  1473     0048  0087               	movwf	7
  1474     0049  3048               	movlw	72
  1475     004A  319B  238D  3180   	fcall	init_ram
  1476                           
  1477                           ; Initialize objects allocated to BANK5
  1478     004D  30EF               	movlw	low __pidataBANK5
  1479     004E  0084               	movwf	4
  1480     004F  3087               	movlw	(high __pidataBANK5)| (0+128)
  1481     0050  0085               	movwf	5
  1482     0051  30A0               	movlw	low __pdataBANK5
  1483     0052  0086               	movwf	6
  1484     0053  3002               	movlw	high __pdataBANK5
  1485     0054  0087               	movwf	7
  1486     0055  3010               	movlw	16
  1487     0056  319B  238D  3180   	fcall	init_ram
  1488                           
  1489                           ; Clear objects allocated to COMMON
  1490     0059  01FC               	clrf	__pbssCOMMON& (0+127)
  1491                           
  1492                           ; Clear objects allocated to BANK1
  1493     005A  30E8               	movlw	low __pbssBANK1
  1494     005B  0084               	movwf	4
  1495     005C  3000               	movlw	high __pbssBANK1
  1496     005D  0085               	movwf	5
  1497     005E  3008               	movlw	8
  1498     005F  319B  2387  3180   	fcall	clear_ram0
  1499                           
  1500                           ; Clear objects allocated to BANK2
  1501     0062  304C               	movlw	low __pbssBANK2
  1502     0063  0084               	movwf	4
  1503     0064  3001               	movlw	high __pbssBANK2
  1504     0065  0085               	movwf	5
  1505     0066  3022               	movlw	34
  1506     0067  319B  2387  3180   	fcall	clear_ram0
  1507                           
  1508                           ; Clear objects allocated to BANK3
  1509     006A  30A0               	movlw	low __pbssBANK3
  1510     006B  0084               	movwf	4
  1511     006C  3001               	movlw	high __pbssBANK3
  1512     006D  0085               	movwf	5
  1513     006E  302A               	movlw	42
  1514     006F  319B  2387  3180   	fcall	clear_ram0
  1515     0072                     end_of_initialization:	
  1516                           ;End of C runtime variable initialization code
  1517                           
  1518     0072                     __end_of__initialization:
  1519     0072  107E               	bcf	int$flags,0	;clear compiler interrupt flag (level 1)
  1520     0073  0020               	movlb	0
  1521     0074  319E  2E69         	ljmp	_main	;jump to C main() function
  1522                           
  1523                           	psect	bssCOMMON
  1524     007C                     __pbssCOMMON:
  1525     007C                     _UART_Not_Recieved:
  1526     007C                     	ds	1
  1527                           
  1528                           	psect	bssBANK1
  1529     00E8                     __pbssBANK1:
  1530     00E8                     _angle:
  1531     00E8                     	ds	4
  1532     00EC                     _right_Joystick_Y:
  1533     00EC                     	ds	2
  1534     00EE                     _right_Joystick_X:
  1535     00EE                     	ds	2
  1536                           
  1537                           	psect	bssBANK2
  1538     014C                     __pbssBANK2:
  1539     014C                     _LCD:
  1540     014C                     	ds	12
  1541     0158                     _speed:
  1542     0158                     	ds	4
  1543     015C                     _errno:
  1544     015C                     	ds	2
  1545     015E                     _counter:
  1546     015E                     	ds	2
  1547     0160                     _left_Pot:
  1548     0160                     	ds	2
  1549     0162                     _left_Joystick_Y:
  1550     0162                     	ds	2
  1551     0164                     _left_Joystick_X:
  1552     0164                     	ds	2
  1553     0166                     _message:
  1554     0166                     	ds	2
  1555     0168                     _confirm:
  1556     0168                     	ds	1
  1557     0169                     _bf:
  1558     0169                     	ds	1
  1559     016A                     _freq_char:
  1560     016A                     	ds	4
  1561                           
  1562                           	psect	dataBANK2
  1563     016E                     __pdataBANK2:
  1564     016E                     _frequency:
  1565     016E                     	ds	2
  1566                           
  1567                           	psect	bssBANK3
  1568     01A0                     __pbssBANK3:
  1569     01A0                     _arr:
  1570     01A0                     	ds	26
  1571     01BA                     _freq_digit:
  1572     01BA                     	ds	8
  1573     01C2                     fabsf@F465:
  1574     01C2                     	ds	4
  1575     01C6                     ___fpclassifyf@F465:
  1576     01C6                     	ds	4
  1577                           
  1578                           	psect	dataBANK3
  1579     01CA                     __pdataBANK3:
  1580     01CA                     _IR_Home2:
  1581     01CA                     	ds	7
  1582     01D1                     _MA_Home2:
  1583     01D1                     	ds	7
  1584     01D8                     _Loading:
  1585     01D8                     	ds	4
  1586     01DC                     _FFT_Result1:
  1587     01DC                     	ds	11
  1588     01E7                     _FFT_Result2:
  1589     01E7                     	ds	3
  1590                           
  1591                           	psect	dataBANK4
  1592     0220                     __pdataBANK4:
  1593     0220                     _Rover_Team:
  1594     0220                     	ds	16
  1595     0230                     _IR_Home1:
  1596     0230                     	ds	12
  1597     023C                     _LT_Home:
  1598     023C                     	ds	12
  1599     0248                     _FFT_Home2:
  1600     0248                     	ds	16
  1601     0258                     _FFT_Home1:
  1602     0258                     	ds	16
  1603                           
  1604                           	psect	dataBANK5
  1605     02A0                     __pdataBANK5:
  1606     02A0                     _MA_Home1:
  1607     02A0                     	ds	16
  1608                           
  1609                           	psect	inittext
  1610     1B8D                     init_ram:
  1611     1B8D  00FE               	movwf	btemp
  1612     1B8E                     initloop:
  1613     1B8E  0012               	moviw fsr0++
  1614     1B8F  001E               	movwi fsr1++
  1615     1B90  0BFE               	decfsz	btemp,f
  1616     1B91  2B8E               	goto	initloop
  1617     1B92  3400               	retlw	0
  1618                           
  1619                           	psect	clrtext
  1620     1B87                     clear_ram0:	
  1621                           ;	Called with FSR0 containing the base address, and
  1622                           ;	WREG with the size to clear
  1623                           
  1624     1B87  0064               	clrwdt	;clear the watchdog before getting into this loop
  1625     1B88                     clrloop0:
  1626     1B88  0180               	clrf	0	;clear RAM location pointed to by FSR
  1627     1B89  3101               	addfsr 0,1
  1628     1B8A  0B89               	decfsz	9,f	;Have we reached the end of clearing yet?
  1629     1B8B  2B88               	goto	clrloop0	;have we reached the end yet?
  1630     1B8C  3400               	retlw	0	;all done for this memory range, return
  1631                           
  1632                           	psect	cstackBANK2
  1633     0120                     __pcstackBANK2:
  1634     0120                     _atanf$1915:
  1635                           
  1636                           ; 4 bytes @ 0x0
  1637     0120                     	ds	4
  1638     0124                     _atanf$1917:
  1639                           
  1640                           ; 4 bytes @ 0x4
  1641     0124                     	ds	4
  1642     0128                     _atanf$1918:
  1643                           
  1644                           ; 4 bytes @ 0x8
  1645     0128                     	ds	4
  1646     012C                     atanf@s1:
  1647                           
  1648                           ; 4 bytes @ 0xC
  1649     012C                     	ds	4
  1650     0130                     atanf@s2:
  1651                           
  1652                           ; 4 bytes @ 0x10
  1653     0130                     	ds	4
  1654     0134                     _atanf$1914:
  1655                           
  1656                           ; 4 bytes @ 0x14
  1657     0134                     	ds	4
  1658     0138                     _atanf$1916:
  1659                           
  1660                           ; 4 bytes @ 0x18
  1661     0138                     	ds	4
  1662     013C                     atanf@sign:
  1663                           
  1664                           ; 1 bytes @ 0x1C
  1665     013C                     	ds	1
  1666     013D                     atanf@w:
  1667                           
  1668                           ; 4 bytes @ 0x1D
  1669     013D                     	ds	4
  1670     0141                     atanf@id:
  1671                           
  1672                           ; 1 bytes @ 0x21
  1673     0141                     	ds	1
  1674     0142                     atanf@z:
  1675                           
  1676                           ; 4 bytes @ 0x22
  1677     0142                     	ds	4
  1678     0146                     atanf@ix:
  1679                           
  1680                           ; 4 bytes @ 0x26
  1681     0146                     	ds	4
  1682     014A                     ??_main:
  1683                           
  1684                           ; 1 bytes @ 0x2A
  1685     014A                     	ds	2
  1686                           
  1687                           	psect	cstackBANK1
  1688     00A0                     __pcstackBANK1:
  1689     00A0                     ?_MotorSettings:
  1690     00A0                     ?___flsub:	
  1691                           ; 1 bytes @ 0x0
  1692                           
  1693     00A0                     MotorSettings@motorA_pwm:	
  1694                           ; 4 bytes @ 0x0
  1695                           
  1696     00A0                     ___flsub@a:	
  1697                           ; 1 bytes @ 0x0
  1698                           
  1699     00A0                     ??___flmul:	
  1700                           ; 4 bytes @ 0x0
  1701                           
  1702                           
  1703                           ; 1 bytes @ 0x0
  1704     00A0                     	ds	1
  1705     00A1                     MotorSettings@motorB:
  1706                           
  1707                           ; 1 bytes @ 0x1
  1708     00A1                     	ds	1
  1709     00A2                     MotorSettings@motorB_pwm:
  1710                           
  1711                           ; 1 bytes @ 0x2
  1712     00A2                     	ds	1
  1713     00A3                     MotorSettings@message:
  1714                           
  1715                           ; 10 bytes @ 0x3
  1716     00A3                     	ds	1
  1717     00A4                     ___flsub@b:
  1718                           
  1719                           ; 4 bytes @ 0x4
  1720     00A4                     	ds	1
  1721     00A5                     ___flmul@sign:
  1722                           
  1723                           ; 1 bytes @ 0x5
  1724     00A5                     	ds	1
  1725     00A6                     ___flmul@grs:
  1726                           
  1727                           ; 4 bytes @ 0x6
  1728     00A6                     	ds	4
  1729     00AA                     ___flmul@aexp:
  1730                           
  1731                           ; 1 bytes @ 0xA
  1732     00AA                     	ds	1
  1733     00AB                     ___flmul@bexp:
  1734                           
  1735                           ; 1 bytes @ 0xB
  1736     00AB                     	ds	1
  1737     00AC                     ___flmul@prod:
  1738                           
  1739                           ; 4 bytes @ 0xC
  1740     00AC                     	ds	1
  1741     00AD                     MotorSettings@motorA:
  1742                           
  1743                           ; 1 bytes @ 0xD
  1744     00AD                     	ds	3
  1745     00B0                     ___flmul@temp:
  1746                           
  1747                           ; 2 bytes @ 0x10
  1748     00B0                     	ds	2
  1749     00B2                     ?___fldiv:
  1750     00B2                     ___fldiv@a:	
  1751                           ; 4 bytes @ 0x12
  1752                           
  1753                           
  1754                           ; 4 bytes @ 0x12
  1755     00B2                     	ds	4
  1756     00B6                     ___fldiv@b:
  1757                           
  1758                           ; 4 bytes @ 0x16
  1759     00B6                     	ds	4
  1760     00BA                     ??___fldiv:
  1761                           
  1762                           ; 1 bytes @ 0x1A
  1763     00BA                     	ds	5
  1764     00BF                     ___fldiv@rem:
  1765                           
  1766                           ; 4 bytes @ 0x1F
  1767     00BF                     	ds	4
  1768     00C3                     ___fldiv@sign:
  1769                           
  1770                           ; 1 bytes @ 0x23
  1771     00C3                     	ds	1
  1772     00C4                     ___fldiv@new_exp:
  1773                           
  1774                           ; 2 bytes @ 0x24
  1775     00C4                     	ds	2
  1776     00C6                     ___fldiv@grs:
  1777                           
  1778                           ; 4 bytes @ 0x26
  1779     00C6                     	ds	4
  1780     00CA                     ___fldiv@bexp:
  1781                           
  1782                           ; 1 bytes @ 0x2A
  1783     00CA                     	ds	1
  1784     00CB                     ___fldiv@aexp:
  1785                           
  1786                           ; 1 bytes @ 0x2B
  1787     00CB                     	ds	1
  1788     00CC                     ?_atanf:
  1789     00CC                     atanf@x:	
  1790                           ; 4 bytes @ 0x2C
  1791                           
  1792                           
  1793                           ; 4 bytes @ 0x2C
  1794     00CC                     	ds	4
  1795     00D0                     ??_atanf:
  1796                           
  1797                           ; 1 bytes @ 0x30
  1798     00D0                     	ds	6
  1799     00D6                     ??_vectorCalculations:
  1800                           
  1801                           ; 1 bytes @ 0x36
  1802     00D6                     	ds	4
  1803     00DA                     _vectorCalculations$1911:
  1804                           
  1805                           ; 4 bytes @ 0x3A
  1806     00DA                     	ds	4
  1807     00DE                     _vectorCalculations$1912:
  1808                           
  1809                           ; 4 bytes @ 0x3E
  1810     00DE                     	ds	4
  1811     00E2                     _vectorCalculations$1913:
  1812                           
  1813                           ; 4 bytes @ 0x42
  1814     00E2                     	ds	4
  1815     00E6                     vectorCalculations@magnitude:
  1816                           
  1817                           ; 2 bytes @ 0x46
  1818     00E6                     	ds	2
  1819                           
  1820                           	psect	cstackCOMMON
  1821     0070                     __pcstackCOMMON:
  1822     0070                     ?_I2C_start:
  1823     0070                     ?_I2C_write:	
  1824                           ; 1 bytes @ 0x0
  1825                           
  1826     0070                     ?_I2C_stop:	
  1827                           ; 1 bytes @ 0x0
  1828                           
  1829     0070                     ?_configI2C:	
  1830                           ; 1 bytes @ 0x0
  1831                           
  1832     0070                     ?_HAL_Pulse_Enable:	
  1833                           ; 1 bytes @ 0x0
  1834                           
  1835     0070                     ?__write_byte:	
  1836                           ; 1 bytes @ 0x0
  1837                           
  1838     0070                     ?_HAL_Write_Init_Nibble:	
  1839                           ; 1 bytes @ 0x0
  1840                           
  1841     0070                     ?_HAL_Write_Command:	
  1842                           ; 1 bytes @ 0x0
  1843                           
  1844     0070                     ?_HAL_Clear:	
  1845                           ; 1 bytes @ 0x0
  1846                           
  1847     0070                     ?_HAL_Display_On:	
  1848                           ; 1 bytes @ 0x0
  1849                           
  1850     0070                     ?_init_LCD:	
  1851                           ; 1 bytes @ 0x0
  1852                           
  1853     0070                     ?_initinit:	
  1854                           ; 1 bytes @ 0x0
  1855                           
  1856     0070                     ?_configUART1:	
  1857                           ; 1 bytes @ 0x0
  1858                           
  1859     0070                     ?_configISR:	
  1860                           ; 1 bytes @ 0x0
  1861                           
  1862     0070                     ?_UART_sendData:	
  1863                           ; 1 bytes @ 0x0
  1864                           
  1865     0070                     ?_configPins:	
  1866                           ; 1 bytes @ 0x0
  1867                           
  1868     0070                     ?_mergeVariables:	
  1869                           ; 1 bytes @ 0x0
  1870                           
  1871     0070                     ?_Flysky:	
  1872                           ; 1 bytes @ 0x0
  1873                           
  1874     0070                     ?_vectorCalculations:	
  1875                           ; 1 bytes @ 0x0
  1876                           
  1877     0070                     ?_initialize_all:	
  1878                           ; 1 bytes @ 0x0
  1879                           
  1880     0070                     ?_main:	
  1881                           ; 1 bytes @ 0x0
  1882                           
  1883     0070                     ?_ISR:	
  1884                           ; 1 bytes @ 0x0
  1885                           
  1886     0070                     ??_ISR:	
  1887                           ; 1 bytes @ 0x0
  1888                           
  1889                           
  1890                           ; 1 bytes @ 0x0
  1891     0070                     	ds	1
  1892     0071                     ?_HAL_LED_ON:
  1893     0071                     ?_HAL_LED_OFF:	
  1894                           ; 1 bytes @ 0x1
  1895                           
  1896     0071                     ?___flge:	
  1897                           ; 1 bytes @ 0x1
  1898                           
  1899     0071                     ?__Umul8_16:	
  1900                           ; 1 bit 
  1901                           
  1902     0071                     ?___fpclassifyf:	
  1903                           ; 2 bytes @ 0x1
  1904                           
  1905     0071                     ?___wmul:	
  1906                           ; 2 bytes @ 0x1
  1907                           
  1908     0071                     ?___awdiv:	
  1909                           ; 2 bytes @ 0x1
  1910                           
  1911     0071                     ?_fabsf:	
  1912                           ; 2 bytes @ 0x1
  1913                           
  1914     0071                     ?___flneg:	
  1915                           ; 4 bytes @ 0x1
  1916                           
  1917     0071                     I2C_write@data:	
  1918                           ; 4 bytes @ 0x1
  1919                           
  1920     0071                     UART_sendData@byte:	
  1921                           ; 1 bytes @ 0x1
  1922                           
  1923     0071                     __Umul8_16@multiplicand:	
  1924                           ; 1 bytes @ 0x1
  1925                           
  1926     0071                     HAL_LED_ON@LED:	
  1927                           ; 1 bytes @ 0x1
  1928                           
  1929     0071                     HAL_LED_OFF@LED:	
  1930                           ; 2 bytes @ 0x1
  1931                           
  1932     0071                     ___wmul@multiplier:	
  1933                           ; 2 bytes @ 0x1
  1934                           
  1935     0071                     ___awdiv@divisor:	
  1936                           ; 2 bytes @ 0x1
  1937                           
  1938     0071                     ___flge@ff1:	
  1939                           ; 2 bytes @ 0x1
  1940                           
  1941     0071                     ___flneg@f1:	
  1942                           ; 4 bytes @ 0x1
  1943                           
  1944     0071                     ___fpclassifyf@x:	
  1945                           ; 4 bytes @ 0x1
  1946                           
  1947     0071                     fabsf@x:	
  1948                           ; 4 bytes @ 0x1
  1949                           
  1950     0071                     ??_I2C_start:	
  1951                           ; 4 bytes @ 0x1
  1952                           
  1953     0071                     ??_I2C_write:	
  1954                           ; 1 bytes @ 0x1
  1955                           
  1956     0071                     ??_I2C_stop:	
  1957                           ; 1 bytes @ 0x1
  1958                           
  1959     0071                     ??_configI2C:	
  1960                           ; 1 bytes @ 0x1
  1961                           
  1962     0071                     ??_configUART1:	
  1963                           ; 1 bytes @ 0x1
  1964                           
  1965     0071                     ??_configISR:	
  1966                           ; 1 bytes @ 0x1
  1967                           
  1968     0071                     ??_UART_sendData:	
  1969                           ; 1 bytes @ 0x1
  1970                           
  1971     0071                     ??_configPins:	
  1972                           ; 1 bytes @ 0x1
  1973                           
  1974                           
  1975                           ; 1 bytes @ 0x1
  1976     0071                     	ds	1
  1977     0072                     ?_HAL_I2C_Master_Transmit:
  1978     0072                     ?_UART_SendBuffer:	
  1979                           ; 1 bytes @ 0x2
  1980                           
  1981     0072                     HAL_I2C_Master_Transmit@dataByte:	
  1982                           ; 1 bytes @ 0x2
  1983                           
  1984     0072                     UART_SendBuffer@buffer:	
  1985                           ; 1 bytes @ 0x2
  1986                           
  1987                           
  1988                           ; 1 bytes @ 0x2
  1989     0072                     	ds	1
  1990     0073                     HAL_I2C_Master_Transmit@numberOfDataBytes:
  1991     0073                     UART_SendBuffer@length:	
  1992                           ; 1 bytes @ 0x3
  1993                           
  1994     0073                     ___wmul@multiplicand:	
  1995                           ; 1 bytes @ 0x3
  1996                           
  1997     0073                     ___awdiv@dividend:	
  1998                           ; 2 bytes @ 0x3
  1999                           
  2000     0073                     ??__Umul8_16:	
  2001                           ; 2 bytes @ 0x3
  2002                           
  2003     0073                     ??_HAL_LED_ON:	
  2004                           ; 1 bytes @ 0x3
  2005                           
  2006     0073                     ??_HAL_LED_OFF:	
  2007                           ; 1 bytes @ 0x3
  2008                           
  2009                           
  2010                           ; 1 bytes @ 0x3
  2011     0073                     	ds	1
  2012     0074                     HAL_I2C_Master_Transmit@slaveAddress:
  2013     0074                     UART_SendBuffer@i:	
  2014                           ; 1 bytes @ 0x4
  2015                           
  2016     0074                     ??_HAL_I2C_Master_Transmit:	
  2017                           ; 1 bytes @ 0x4
  2018                           
  2019     0074                     ??_UART_SendBuffer:	
  2020                           ; 1 bytes @ 0x4
  2021                           
  2022                           
  2023                           ; 1 bytes @ 0x4
  2024     0074                     	ds	1
  2025     0075                     HAL_Pulse_Enable@byte:
  2026     0075                     ___awdiv@counter:	
  2027                           ; 1 bytes @ 0x5
  2028                           
  2029     0075                     ___wmul@product:	
  2030                           ; 1 bytes @ 0x5
  2031                           
  2032     0075                     __Umul8_16@product:	
  2033                           ; 2 bytes @ 0x5
  2034                           
  2035     0075                     ___flge@ff2:	
  2036                           ; 2 bytes @ 0x5
  2037                           
  2038     0075                     fabsf@u:	
  2039                           ; 4 bytes @ 0x5
  2040                           
  2041     0075                     Flysky@message:	
  2042                           ; 4 bytes @ 0x5
  2043                           
  2044     0075                     ??___fpclassifyf:	
  2045                           ; 6 bytes @ 0x5
  2046                           
  2047     0075                     ??_fabsf:	
  2048                           ; 1 bytes @ 0x5
  2049                           
  2050     0075                     ??_HAL_Pulse_Enable:	
  2051                           ; 1 bytes @ 0x5
  2052                           
  2053     0075                     ??_Flysky:	
  2054                           ; 1 bytes @ 0x5
  2055                           
  2056     0075                     ??___wmul:	
  2057                           ; 1 bytes @ 0x5
  2058                           
  2059     0075                     ??___awdiv:	
  2060                           ; 1 bytes @ 0x5
  2061                           
  2062     0075                     ??___flneg:	
  2063                           ; 1 bytes @ 0x5
  2064                           
  2065                           
  2066                           ; 1 bytes @ 0x5
  2067     0075                     	ds	1
  2068     0076                     __write_byte@byte:
  2069     0076                     ___awdiv@sign:	
  2070                           ; 1 bytes @ 0x6
  2071                           
  2072     0076                     ??__write_byte:	
  2073                           ; 1 bytes @ 0x6
  2074                           
  2075     0076                     ??_HAL_Write_Init_Nibble:	
  2076                           ; 1 bytes @ 0x6
  2077                           
  2078                           
  2079                           ; 1 bytes @ 0x6
  2080     0076                     	ds	1
  2081     0077                     ?___xxtofl:
  2082     0077                     ___awdiv@quotient:	
  2083                           ; 4 bytes @ 0x7
  2084                           
  2085     0077                     __Umul8_16@word_mpld:	
  2086                           ; 2 bytes @ 0x7
  2087                           
  2088     0077                     ___xxtofl@val:	
  2089                           ; 2 bytes @ 0x7
  2090                           
  2091     0077                     ??_HAL_Write_Command:	
  2092                           ; 4 bytes @ 0x7
  2093                           
  2094                           
  2095                           ; 1 bytes @ 0x7
  2096     0077                     	ds	1
  2097     0078                     HAL_Write_Init_Nibble@nibble:
  2098     0078                     HAL_Write_Command@cmd:	
  2099                           ; 1 bytes @ 0x8
  2100                           
  2101                           
  2102                           ; 1 bytes @ 0x8
  2103     0078                     	ds	1
  2104     0079                     HAL_Write_Init_Nibble@byte:
  2105     0079                     __Umul8_16@multiplier:	
  2106                           ; 1 bytes @ 0x9
  2107                           
  2108     0079                     HAL_Set_Entry_Mode@entry_mode:	
  2109                           ; 1 bytes @ 0x9
  2110                           
  2111     0079                     ??_HAL_Clear:	
  2112                           ; 2 bytes @ 0x9
  2113                           
  2114     0079                     ??_HAL_Display_On:	
  2115                           ; 1 bytes @ 0x9
  2116                           
  2117     0079                     ??_HAL_Set_Entry_Mode:	
  2118                           ; 1 bytes @ 0x9
  2119                           
  2120                           
  2121                           ; 1 bytes @ 0x9
  2122     0079                     	ds	2
  2123     007B                     ??_init_LCD:
  2124     007B                     ??_initinit:	
  2125                           ; 1 bytes @ 0xB
  2126                           
  2127     007B                     ??_MotorSettings:	
  2128                           ; 1 bytes @ 0xB
  2129                           
  2130     007B                     ??___flsub:	
  2131                           ; 1 bytes @ 0xB
  2132                           
  2133                           
  2134                           ; 1 bytes @ 0xB
  2135     007B                     	ds	1
  2136     007C                     ??_initialize_all:
  2137                           
  2138                           	psect	cstackBANK0
  2139     0020                     __pcstackBANK0:	
  2140                           ; 1 bytes @ 0xC
  2141                           
  2142     0020                     ?_HAL_Set_Entry_Mode:
  2143     0020                     HAL_Set_Entry_Mode@inc:	
  2144                           ; 1 bytes @ 0x0
  2145                           
  2146     0020                     ___fpclassifyf@e:	
  2147                           ; 2 bytes @ 0x0
  2148                           
  2149     0020                     ??_mergeVariables:	
  2150                           ; 2 bytes @ 0x0
  2151                           
  2152     0020                     ??___flge:	
  2153                           ; 1 bytes @ 0x0
  2154                           
  2155     0020                     ??___xxtofl:	
  2156                           ; 1 bytes @ 0x0
  2157                           
  2158                           
  2159                           ; 1 bytes @ 0x0
  2160     0020                     	ds	2
  2161     0022                     HAL_Set_Entry_Mode@shift:
  2162     0022                     ___fpclassifyf@u:	
  2163                           ; 2 bytes @ 0x2
  2164                           
  2165                           
  2166                           ; 4 bytes @ 0x2
  2167     0022                     	ds	2
  2168     0024                     ___xxtofl@sign:
  2169                           
  2170                           ; 1 bytes @ 0x4
  2171     0024                     	ds	1
  2172     0025                     ___xxtofl@exp:
  2173                           
  2174                           ; 1 bytes @ 0x5
  2175     0025                     	ds	1
  2176     0026                     ___xxtofl@arg:
  2177                           
  2178                           ; 4 bytes @ 0x6
  2179     0026                     	ds	4
  2180     002A                     ?_sqrtf:
  2181     002A                     sqrtf@x:	
  2182                           ; 4 bytes @ 0xA
  2183                           
  2184                           
  2185                           ; 4 bytes @ 0xA
  2186     002A                     	ds	4
  2187     002E                     ??_sqrtf:
  2188                           
  2189                           ; 1 bytes @ 0xE
  2190     002E                     	ds	8
  2191     0036                     sqrtf@s:
  2192                           
  2193                           ; 4 bytes @ 0x16
  2194     0036                     	ds	4
  2195     003A                     sqrtf@i:
  2196                           
  2197                           ; 4 bytes @ 0x1A
  2198     003A                     	ds	4
  2199     003E                     sqrtf@q:
  2200                           
  2201                           ; 4 bytes @ 0x1E
  2202     003E                     	ds	4
  2203     0042                     sqrtf@t:
  2204                           
  2205                           ; 4 bytes @ 0x22
  2206     0042                     	ds	4
  2207     0046                     sqrtf@m:
  2208                           
  2209                           ; 4 bytes @ 0x26
  2210     0046                     	ds	4
  2211     004A                     sqrtf@r:
  2212                           
  2213                           ; 4 bytes @ 0x2A
  2214     004A                     	ds	4
  2215     004E                     sqrtf@ix:
  2216                           
  2217                           ; 4 bytes @ 0x2E
  2218     004E                     	ds	4
  2219     0052                     ?___fladd:
  2220     0052                     ___fladd@b:	
  2221                           ; 4 bytes @ 0x32
  2222                           
  2223                           
  2224                           ; 4 bytes @ 0x32
  2225     0052                     	ds	4
  2226     0056                     ___fladd@a:
  2227                           
  2228                           ; 4 bytes @ 0x36
  2229     0056                     	ds	4
  2230     005A                     ??___fladd:
  2231                           
  2232                           ; 1 bytes @ 0x3A
  2233     005A                     	ds	8
  2234     0062                     ___fladd@signs:
  2235                           
  2236                           ; 1 bytes @ 0x42
  2237     0062                     	ds	1
  2238     0063                     ___fladd@aexp:
  2239                           
  2240                           ; 1 bytes @ 0x43
  2241     0063                     	ds	1
  2242     0064                     ___fladd@bexp:
  2243                           
  2244                           ; 1 bytes @ 0x44
  2245     0064                     	ds	1
  2246     0065                     ___fladd@grs:
  2247                           
  2248                           ; 1 bytes @ 0x45
  2249     0065                     	ds	1
  2250     0066                     ?___fltol:
  2251     0066                     ?___flmul:	
  2252                           ; 4 bytes @ 0x46
  2253                           
  2254     0066                     ___fltol@f1:	
  2255                           ; 4 bytes @ 0x46
  2256                           
  2257     0066                     ___flmul@b:	
  2258                           ; 4 bytes @ 0x46
  2259                           
  2260                           
  2261                           ; 4 bytes @ 0x46
  2262     0066                     	ds	4
  2263     006A                     ___flmul@a:
  2264     006A                     ??___fltol:	
  2265                           ; 4 bytes @ 0x4A
  2266                           
  2267                           
  2268                           ; 1 bytes @ 0x4A
  2269     006A                     	ds	4
  2270     006E                     ___fltol@sign1:
  2271                           
  2272                           ; 1 bytes @ 0x4E
  2273     006E                     	ds	1
  2274     006F                     ___fltol@exp1:
  2275                           
  2276                           ; 1 bytes @ 0x4F
  2277     006F                     	ds	1
  2278                           
  2279                           	psect	maintext
  2280     1E69                     __pmaintext:	
  2281 ;;
  2282 ;;Main: autosize = 0, tempsize = 2, incstack = 0, save=0
  2283 ;;
  2284 ;; *************** function _main *****************
  2285 ;; Defined at:
  2286 ;;		line 635 in file "Rover_Main_Ver01.c"
  2287 ;; Parameters:    Size  Location     Type
  2288 ;;		None
  2289 ;; Auto vars:     Size  Location     Type
  2290 ;;		None
  2291 ;; Return value:  Size  Location     Type
  2292 ;;                  1    wreg      void 
  2293 ;; Registers used:
  2294 ;;		wreg, fsr0l, fsr0h, fsr1l, fsr1h, status,2, status,0, pclath, cstack
  2295 ;; Tracked objects:
  2296 ;;		On entry : B1F/0
  2297 ;;		On exit  : 0/0
  2298 ;;		Unchanged: 0/0
  2299 ;; Data sizes:     COMMON   BANK0   BANK1   BANK2   BANK3   BANK4   BANK5   BANK6   BANK7   BANK8   BANK9  BANK10  BANK1
      +1  BANK12
  2300 ;;      Params:         0       0       0       0       0       0       0       0       0       0       0       0       
      +0       0
  2301 ;;      Locals:         0       0       0       0       0       0       0       0       0       0       0       0       
      +0       0
  2302 ;;      Temps:          0       0       0       2       0       0       0       0       0       0       0       0       
      +0       0
  2303 ;;      Totals:         0       0       0       2       0       0       0       0       0       0       0       0       
      +0       0
  2304 ;;Total ram usage:        2 bytes
  2305 ;; Hardware stack levels required when called: 10
  2306 ;; This function calls:
  2307 ;;		_Flysky
  2308 ;;		_initialize_all
  2309 ;;		_mergeVariables
  2310 ;;		_vectorCalculations
  2311 ;; This function is called by:
  2312 ;;		Startup code after reset
  2313 ;; This function uses a non-reentrant model
  2314 ;;
  2315                           
  2316     1E69                     _main:	
  2317                           ;psect for function _main
  2318                           
  2319     1E69                     l4614:	
  2320                           ;incstack = 0
  2321                           ; Regs used in _main: [wreg-fsr1h+status,2+status,0+pclath+cstack]
  2322                           
  2323                           
  2324                           ;Rover_Main_Ver01.c: 636:     initialize_all();
  2325     1E69  319E  2620  319E   	fcall	_initialize_all
  2326     1E6C                     l4616:
  2327                           
  2328                           ;Rover_Main_Ver01.c: 637:     LATBbits.LATB4 = 1;
  2329     1E6C  0020               	movlb	0	; select bank0
  2330     1E6D  1617               	bsf	23,4	;volatile
  2331     1E6E                     l4618:
  2332                           
  2333                           ;Rover_Main_Ver01.c: 638:     _delay((unsigned long)((1000)*(32000000/4000.0)));
  2334     1E6E  3029               	movlw	41
  2335     1E6F  0022               	movlb	2	; select bank2
  2336     1E70  00CB               	movwf	(??_main^(0+256)+1)
  2337     1E71  3096               	movlw	150
  2338     1E72  00CA               	movwf	??_main^(0+256)
  2339     1E73  307F               	movlw	127
  2340     1E74                     u5487:
  2341     1E74  0B89               	decfsz	9,f
  2342     1E75  2E74               	goto	u5487
  2343     1E76  0BCA               	decfsz	??_main^(0+256),f
  2344     1E77  2E74               	goto	u5487
  2345     1E78  0BCB               	decfsz	(??_main^(0+256)+1),f
  2346     1E79  2E74               	goto	u5487
  2347     1E7A                     l4620:
  2348                           
  2349                           ;Rover_Main_Ver01.c: 640:         counter = 0;
  2350     1E7A  0022               	movlb	2	; select bank2
  2351     1E7B  01DE               	clrf	_counter^(0+256)
  2352     1E7C  01DF               	clrf	(_counter+1)^(0+256)
  2353     1E7D                     l4622:
  2354                           
  2355                           ;Rover_Main_Ver01.c: 641:         Flysky();
  2356     1E7D  319B  23BF  319E   	fcall	_Flysky
  2357     1E80                     l4624:
  2358                           
  2359                           ;Rover_Main_Ver01.c: 642:         mergeVariables();
  2360     1E80  3191  2165  319E   	fcall	_mergeVariables
  2361     1E83                     l4626:
  2362                           
  2363                           ;Rover_Main_Ver01.c: 643:         vectorCalculations();
  2364     1E83  3180  2076  319E   	fcall	_vectorCalculations
  2365     1E86                     l4630:	
  2366                           ;Rover_Main_Ver01.c: 644:         switch(left_Pot)
  2367                           
  2368                           
  2369                           ; Switch on 2 bytes has been partitioned into a top level switch of size 1, and 1 sub-sw
      +                          itches
  2370                           ; Switch size 1, requested type "simple"
  2371                           ; Number of cases is 1, Range of values is 0 to 0
  2372                           ; switch strategies available:
  2373                           ; Name         Instructions Cycles
  2374                           ; simple_byte            4     3 (average)
  2375                           ; direct_byte            8     6 (fixed)
  2376                           ; jumptable            260     6 (fixed)
  2377                           ;	Chosen strategy is simple_byte
  2378     1E86  0022               	movlb	2	; select bank2
  2379     1E87  0861               	movf	(_left_Pot+1)^(0+256),w
  2380     1E88  3A00               	xorlw	0	; case 0
  2381     1E89  1903               	skipnz
  2382     1E8A  2E8C               	goto	l4702
  2383     1E8B  2E9D               	goto	l4632
  2384     1E8C                     l4702:
  2385                           
  2386                           ; Switch size 1, requested type "simple"
  2387                           ; Number of cases is 5, Range of values is 0 to 4
  2388                           ; switch strategies available:
  2389                           ; Name         Instructions Cycles
  2390                           ; direct_byte           16     6 (fixed)
  2391                           ; simple_byte           16     9 (average)
  2392                           ; jumptable            260     6 (fixed)
  2393                           ;	Chosen strategy is simple_byte
  2394     1E8C  0860               	movf	_left_Pot^(0+256),w
  2395     1E8D  3A00               	xorlw	0	; case 0
  2396     1E8E  1903               	skipnz
  2397     1E8F  2E9D               	goto	l4632
  2398     1E90  3A01               	xorlw	1	; case 1
  2399     1E91  1903               	skipnz
  2400     1E92  2E9D               	goto	l4632
  2401     1E93  3A03               	xorlw	3	; case 2
  2402     1E94  1903               	skipnz
  2403     1E95  2E9D               	goto	l4632
  2404     1E96  3A01               	xorlw	1	; case 3
  2405     1E97  1903               	skipnz
  2406     1E98  2E9D               	goto	l4632
  2407     1E99  3A07               	xorlw	7	; case 4
  2408     1E9A  1903               	skipnz
  2409     1E9B  2E9D               	goto	l4632
  2410     1E9C  2E9D               	goto	l4632
  2411     1E9D                     l4632:
  2412                           
  2413                           ;Rover_Main_Ver01.c: 658:         while(counter != 25){
  2414     1E9D  3019               	movlw	25
  2415     1E9E  065E               	xorwf	_counter^(0+256),w
  2416     1E9F  045F               	iorwf	(_counter+1)^(0+256),w
  2417     1EA0  1D03               	btfss	3,2
  2418     1EA1  2EA3               	goto	u5461
  2419     1EA2  2EA4               	goto	u5460
  2420     1EA3                     u5461:
  2421     1EA3  2E9D               	goto	l4632
  2422     1EA4                     u5460:
  2423     1EA4                     l4634:
  2424                           
  2425                           ;Rover_Main_Ver01.c: 660:         if(counter == 25){
  2426     1EA4  3019               	movlw	25
  2427     1EA5  065E               	xorwf	_counter^(0+256),w
  2428     1EA6  045F               	iorwf	(_counter+1)^(0+256),w
  2429     1EA7  1D03               	btfss	3,2
  2430     1EA8  2EAA               	goto	u5471
  2431     1EA9  2EAB               	goto	u5470
  2432     1EAA                     u5471:
  2433     1EAA  2E7A               	goto	l4620
  2434     1EAB                     u5470:
  2435     1EAB                     l4636:
  2436                           
  2437                           ;Rover_Main_Ver01.c: 663:             _delay((unsigned long)((5)*(32000000/4000.0)));
  2438     1EAB  3034               	movlw	52
  2439     1EAC  0022               	movlb	2	; select bank2
  2440     1EAD  00CA               	movwf	??_main^(0+256)
  2441     1EAE  30F1               	movlw	241
  2442     1EAF                     u5497:
  2443     1EAF  0B89               	decfsz	9,f
  2444     1EB0  2EAF               	goto	u5497
  2445     1EB1  0BCA               	decfsz	??_main^(0+256),f
  2446     1EB2  2EAF               	goto	u5497
  2447     1EB3  3200               	nop2
  2448     1EB4  2E7A               	goto	l4620
  2449     1EB5  3180  282A         	ljmp	start
  2450     1EB7                     __end_of_main:
  2451                           
  2452                           	psect	text1
  2453     0076                     __ptext1:	
  2454 ;; *************** function _vectorCalculations *****************
  2455 ;; Defined at:
  2456 ;;		line 337 in file "Rover_Main_Ver01.c"
  2457 ;; Parameters:    Size  Location     Type
  2458 ;;		None
  2459 ;; Auto vars:     Size  Location     Type
  2460 ;;  magnitude       2   70[BANK1 ] int 
  2461 ;;  direction       1    0        unsigned char 
  2462 ;; Return value:  Size  Location     Type
  2463 ;;                  1    wreg      void 
  2464 ;; Registers used:
  2465 ;;		wreg, fsr0l, fsr0h, fsr1l, fsr1h, status,2, status,0, pclath, cstack
  2466 ;; Tracked objects:
  2467 ;;		On entry : 0/0
  2468 ;;		On exit  : 0/0
  2469 ;;		Unchanged: 0/0
  2470 ;; Data sizes:     COMMON   BANK0   BANK1   BANK2   BANK3   BANK4   BANK5   BANK6   BANK7   BANK8   BANK9  BANK10  BANK1
      +1  BANK12
  2471 ;;      Params:         0       0       0       0       0       0       0       0       0       0       0       0       
      +0       0
  2472 ;;      Locals:         0       0      14       0       0       0       0       0       0       0       0       0       
      +0       0
  2473 ;;      Temps:          0       0       4       0       0       0       0       0       0       0       0       0       
      +0       0
  2474 ;;      Totals:         0       0      18       0       0       0       0       0       0       0       0       0       
      +0       0
  2475 ;;Total ram usage:       18 bytes
  2476 ;; Hardware stack levels used: 1
  2477 ;; Hardware stack levels required when called: 4
  2478 ;; This function calls:
  2479 ;;		_HAL_LED_OFF
  2480 ;;		_HAL_LED_ON
  2481 ;;		_MotorSettings
  2482 ;;		___fladd
  2483 ;;		___fldiv
  2484 ;;		___flge
  2485 ;;		___flmul
  2486 ;;		___fltol
  2487 ;;		___wmul
  2488 ;;		___xxtofl
  2489 ;;		_atanf
  2490 ;;		_sqrtf
  2491 ;; This function is called by:
  2492 ;;		_main
  2493 ;; This function uses a non-reentrant model
  2494 ;;
  2495                           
  2496     0076                     _vectorCalculations:	
  2497                           ;psect for function _vectorCalculations
  2498                           
  2499     0076                     l4380:	
  2500                           ;incstack = 0
  2501                           ; Regs used in _vectorCalculations: [wreg-fsr1h+status,2+status,0+pclath+cstack]
  2502                           
  2503                           
  2504                           ;Rover_Main_Ver01.c: 338:     int magnitude = sqrtf(right_Joystick_X * right_Joystick_X 
      +                          + right_Joystick_Y * right_Joystick_Y)+ 20;
  2505     0076  0021               	movlb	1	; select bank1
  2506     0077  086F               	movf	(_right_Joystick_X+1)^(0+128),w
  2507     0078  00F4               	movwf	___wmul@multiplicand+1
  2508     0079  086E               	movf	_right_Joystick_X^(0+128),w
  2509     007A  00F3               	movwf	___wmul@multiplicand
  2510     007B  086F               	movf	(_right_Joystick_X+1)^(0+128),w
  2511     007C  00F2               	movwf	___wmul@multiplier+1
  2512     007D  086E               	movf	_right_Joystick_X^(0+128),w
  2513     007E  00F1               	movwf	___wmul@multiplier
  2514     007F  319C  24A1  3180   	fcall	___wmul
  2515     0082  0871               	movf	?___wmul,w
  2516     0083  0021               	movlb	1	; select bank1
  2517     0084  00D6               	movwf	??_vectorCalculations^(0+128)
  2518     0085  0872               	movf	?___wmul+1,w
  2519     0086  00D7               	movwf	(??_vectorCalculations^(0+128)+1)
  2520     0087  086D               	movf	(_right_Joystick_Y+1)^(0+128),w
  2521     0088  00F4               	movwf	___wmul@multiplicand+1
  2522     0089  086C               	movf	_right_Joystick_Y^(0+128),w
  2523     008A  00F3               	movwf	___wmul@multiplicand
  2524     008B  086D               	movf	(_right_Joystick_Y+1)^(0+128),w
  2525     008C  00F2               	movwf	___wmul@multiplier+1
  2526     008D  086C               	movf	_right_Joystick_Y^(0+128),w
  2527     008E  00F1               	movwf	___wmul@multiplier
  2528     008F  319C  24A1  3180   	fcall	___wmul
  2529     0092  0871               	movf	?___wmul,w
  2530     0093  0021               	movlb	1	; select bank1
  2531     0094  0756               	addwf	??_vectorCalculations^(0+128),w
  2532     0095  00D8               	movwf	(??_vectorCalculations+2)^(0+128)
  2533     0096  0872               	movf	?___wmul+1,w
  2534     0097  3D57               	addwfc	(??_vectorCalculations+1)^(0+128),w
  2535     0098  00D9               	movwf	(??_vectorCalculations+3)^(0+128)
  2536     0099  0858               	movf	(??_vectorCalculations+2)^(0+128),w
  2537     009A  00F7               	movwf	___xxtofl@val
  2538     009B  0859               	movf	(??_vectorCalculations+3)^(0+128),w
  2539     009C  00F8               	movwf	___xxtofl@val+1
  2540     009D  0D89               	rlf	9,f
  2541     009E  3B89               	subwfb	9,f
  2542     009F  0989               	comf	9,f
  2543     00A0  00F9               	movwf	___xxtofl@val+2
  2544     00A1  00FA               	movwf	___xxtofl@val+3
  2545     00A2  3001               	movlw	1
  2546     00A3  3190  20C0  3180   	fcall	___xxtofl
  2547     00A6  087A               	movf	?___xxtofl+3,w
  2548     00A7  0020               	movlb	0	; select bank0
  2549     00A8  00AD               	movwf	sqrtf@x+3
  2550     00A9  0879               	movf	?___xxtofl+2,w
  2551     00AA  00AC               	movwf	sqrtf@x+2
  2552     00AB  0878               	movf	?___xxtofl+1,w
  2553     00AC  00AB               	movwf	sqrtf@x+1
  2554     00AD  0877               	movf	?___xxtofl,w
  2555     00AE  00AA               	movwf	sqrtf@x
  2556     00AF  3193  23EE  3180   	fcall	_sqrtf
  2557     00B2  0020               	movlb	0	; select bank0
  2558     00B3  082D               	movf	?_sqrtf+3,w
  2559     00B4  00D9               	movwf	___fladd@a+3
  2560     00B5  082C               	movf	?_sqrtf+2,w
  2561     00B6  00D8               	movwf	___fladd@a+2
  2562     00B7  082B               	movf	?_sqrtf+1,w
  2563     00B8  00D7               	movwf	___fladd@a+1
  2564     00B9  082A               	movf	?_sqrtf,w
  2565     00BA  00D6               	movwf	___fladd@a
  2566     00BB  3041               	movlw	65
  2567     00BC  00D5               	movwf	___fladd@b+3
  2568     00BD  30A0               	movlw	160
  2569     00BE  00D4               	movwf	___fladd@b+2
  2570     00BF  3000               	movlw	0
  2571     00C0  00D3               	movwf	___fladd@b+1
  2572     00C1  3000               	movlw	0
  2573     00C2  00D2               	movwf	___fladd@b
  2574     00C3  3195  25F4  3180   	fcall	___fladd
  2575     00C6  0020               	movlb	0	; select bank0
  2576     00C7  0855               	movf	?___fladd+3,w
  2577     00C8  00E9               	movwf	___fltol@f1+3
  2578     00C9  0854               	movf	?___fladd+2,w
  2579     00CA  00E8               	movwf	___fltol@f1+2
  2580     00CB  0853               	movf	?___fladd+1,w
  2581     00CC  00E7               	movwf	___fltol@f1+1
  2582     00CD  0852               	movf	?___fladd,w
  2583     00CE  00E6               	movwf	___fltol@f1
  2584     00CF  319F  2712  3180   	fcall	___fltol
  2585     00D2  0020               	movlb	0	; select bank0
  2586     00D3  0867               	movf	?___fltol+1,w
  2587     00D4  0021               	movlb	1	; select bank1
  2588     00D5  00E7               	movwf	(vectorCalculations@magnitude+1)^(0+128)
  2589     00D6  0020               	movlb	0	; select bank0
  2590     00D7  0866               	movf	?___fltol,w
  2591     00D8  0021               	movlb	1	; select bank1
  2592     00D9  00E6               	movwf	vectorCalculations@magnitude^(0+128)
  2593     00DA                     l4382:
  2594                           
  2595                           ;Rover_Main_Ver01.c: 339:     HAL_LED_OFF(1);
  2596     00DA  3001               	movlw	1
  2597     00DB  00F1               	movwf	HAL_LED_OFF@LED
  2598     00DC  3000               	movlw	0
  2599     00DD  00F2               	movwf	HAL_LED_OFF@LED+1
  2600     00DE  319C  24E0  3180   	fcall	_HAL_LED_OFF
  2601     00E1                     l4384:
  2602                           
  2603                           ;Rover_Main_Ver01.c: 340:     HAL_LED_OFF(2);
  2604     00E1  3002               	movlw	2
  2605     00E2  00F1               	movwf	HAL_LED_OFF@LED
  2606     00E3  3000               	movlw	0
  2607     00E4  00F2               	movwf	HAL_LED_OFF@LED+1
  2608     00E5  319C  24E0  3180   	fcall	_HAL_LED_OFF
  2609     00E8                     l4386:
  2610                           
  2611                           ;Rover_Main_Ver01.c: 341:     HAL_LED_OFF(3);
  2612     00E8  3003               	movlw	3
  2613     00E9  00F1               	movwf	HAL_LED_OFF@LED
  2614     00EA  3000               	movlw	0
  2615     00EB  00F2               	movwf	HAL_LED_OFF@LED+1
  2616     00EC  319C  24E0  3180   	fcall	_HAL_LED_OFF
  2617     00EF                     l4388:
  2618                           
  2619                           ;Rover_Main_Ver01.c: 342:     HAL_LED_OFF(4);
  2620     00EF  3004               	movlw	4
  2621     00F0  00F1               	movwf	HAL_LED_OFF@LED
  2622     00F1  3000               	movlw	0
  2623     00F2  00F2               	movwf	HAL_LED_OFF@LED+1
  2624     00F3  319C  24E0  3180   	fcall	_HAL_LED_OFF
  2625     00F6                     l4390:
  2626                           
  2627                           ;Rover_Main_Ver01.c: 344:     uint8_t direction;;Rover_Main_Ver01.c: 345:     if(magnitu
      +                          de < 50){
  2628     00F6  0021               	movlb	1	; select bank1
  2629     00F7  0867               	movf	(vectorCalculations@magnitude+1)^(0+128),w
  2630     00F8  3A80               	xorlw	128
  2631     00F9  00D6               	movwf	??_vectorCalculations^(0+128)
  2632     00FA  3080               	movlw	128
  2633     00FB  0256               	subwf	??_vectorCalculations^(0+128),w
  2634     00FC  1D03               	skipz
  2635     00FD  2900               	goto	u5305
  2636     00FE  3032               	movlw	50
  2637     00FF  0266               	subwf	vectorCalculations@magnitude^(0+128),w
  2638     0100                     u5305:
  2639     0100  1803               	skipnc
  2640     0101  2903               	goto	u5301
  2641     0102  2904               	goto	u5300
  2642     0103                     u5301:
  2643     0103  290E               	goto	l4394
  2644     0104                     u5300:
  2645     0104                     l4392:
  2646                           
  2647                           ;Rover_Main_Ver01.c: 346:          MotorSettings(1,0, 1,0);
  2648     0104  0021               	movlb	1	; select bank1
  2649     0105  01A0               	clrf	MotorSettings@motorA_pwm^(0+128)
  2650     0106  01A1               	clrf	MotorSettings@motorB^(0+128)
  2651     0107  0AA1               	incf	MotorSettings@motorB^(0+128),f
  2652     0108  01A2               	clrf	MotorSettings@motorB_pwm^(0+128)
  2653     0109  3001               	movlw	1
  2654     010A  319C  2465  3180   	fcall	_MotorSettings
  2655                           
  2656                           ;Rover_Main_Ver01.c: 347:     }
  2657     010D  2FCB               	goto	l387
  2658     010E                     l4394:
  2659     010E  0021               	movlb	1	; select bank1
  2660     010F  086E               	movf	_right_Joystick_X^(0+128),w
  2661     0110  046F               	iorwf	(_right_Joystick_X+1)^(0+128),w
  2662     0111  1903               	btfsc	3,2
  2663     0112  2914               	goto	u5311
  2664     0113  2915               	goto	u5310
  2665     0114                     u5311:
  2666     0114  291B               	goto	l4398
  2667     0115                     u5310:
  2668     0115                     l4396:
  2669     0115  086C               	movf	_right_Joystick_Y^(0+128),w
  2670     0116  046D               	iorwf	(_right_Joystick_Y+1)^(0+128),w
  2671     0117  1D03               	btfss	3,2
  2672     0118  291A               	goto	u5321
  2673     0119  291B               	goto	u5320
  2674     011A                     u5321:
  2675     011A  297E               	goto	l362
  2676     011B                     u5320:
  2677     011B                     l4398:
  2678                           
  2679                           ;Rover_Main_Ver01.c: 349:         if(right_Joystick_X == right_Joystick_Y){
  2680     011B  086D               	movf	(_right_Joystick_Y+1)^(0+128),w
  2681     011C  066F               	xorwf	(_right_Joystick_X+1)^(0+128),w
  2682     011D  1D03               	skipz
  2683     011E  2921               	goto	u5335
  2684     011F  086C               	movf	_right_Joystick_Y^(0+128),w
  2685     0120  066E               	xorwf	_right_Joystick_X^(0+128),w
  2686     0121                     u5335:
  2687     0121  1D03               	skipz
  2688     0122  2924               	goto	u5331
  2689     0123  2925               	goto	u5330
  2690     0124                     u5331:
  2691     0124  292D               	goto	l4402
  2692     0125                     u5330:
  2693     0125                     l4400:
  2694                           
  2695                           ;Rover_Main_Ver01.c: 350:             MotorSettings(1,0, 1,0);
  2696     0125  01A0               	clrf	MotorSettings@motorA_pwm^(0+128)
  2697     0126  01A1               	clrf	MotorSettings@motorB^(0+128)
  2698     0127  0AA1               	incf	MotorSettings@motorB^(0+128),f
  2699     0128  01A2               	clrf	MotorSettings@motorB_pwm^(0+128)
  2700     0129  3001               	movlw	1
  2701     012A  319C  2465  3180   	fcall	_MotorSettings
  2702     012D                     l4402:
  2703                           
  2704                           ;Rover_Main_Ver01.c: 352:         if(right_Joystick_X == 0){
  2705     012D  0021               	movlb	1	; select bank1
  2706     012E  086E               	movf	_right_Joystick_X^(0+128),w
  2707     012F  046F               	iorwf	(_right_Joystick_X+1)^(0+128),w
  2708     0130  1D03               	btfss	3,2
  2709     0131  2933               	goto	u5341
  2710     0132  2934               	goto	u5340
  2711     0133                     u5341:
  2712     0133  2959               	goto	l4410
  2713     0134                     u5340:
  2714     0134                     l4404:
  2715                           
  2716                           ;Rover_Main_Ver01.c: 353:             if(right_Joystick_Y > 0){
  2717     0134  086D               	movf	(_right_Joystick_Y+1)^(0+128),w
  2718     0135  3A80               	xorlw	128
  2719     0136  00D6               	movwf	??_vectorCalculations^(0+128)
  2720     0137  3080               	movlw	128
  2721     0138  0256               	subwf	??_vectorCalculations^(0+128),w
  2722     0139  1D03               	skipz
  2723     013A  293D               	goto	u5355
  2724     013B  3001               	movlw	1
  2725     013C  026C               	subwf	_right_Joystick_Y^(0+128),w
  2726     013D                     u5355:
  2727     013D  1C03               	skipc
  2728     013E  2940               	goto	u5351
  2729     013F  2941               	goto	u5350
  2730     0140                     u5351:
  2731     0140  294D               	goto	l4408
  2732     0141                     u5350:
  2733     0141                     l4406:
  2734                           
  2735                           ;Rover_Main_Ver01.c: 354:                 MotorSettings(1,magnitude, 1, magnitude);
  2736     0141  0021               	movlb	1	; select bank1
  2737     0142  0866               	movf	vectorCalculations@magnitude^(0+128),w
  2738     0143  00A0               	movwf	MotorSettings@motorA_pwm^(0+128)
  2739     0144  01A1               	clrf	MotorSettings@motorB^(0+128)
  2740     0145  0AA1               	incf	MotorSettings@motorB^(0+128),f
  2741     0146  0866               	movf	vectorCalculations@magnitude^(0+128),w
  2742     0147  00A2               	movwf	MotorSettings@motorB_pwm^(0+128)
  2743     0148  3001               	movlw	1
  2744     0149  319C  2465  3180   	fcall	_MotorSettings
  2745                           
  2746                           ;Rover_Main_Ver01.c: 355:             }
  2747     014C  2FCB               	goto	l387
  2748     014D                     l4408:
  2749                           
  2750                           ;Rover_Main_Ver01.c: 357:                 MotorSettings(2,magnitude, 2, magnitude);
  2751     014D  0021               	movlb	1	; select bank1
  2752     014E  0866               	movf	vectorCalculations@magnitude^(0+128),w
  2753     014F  00A0               	movwf	MotorSettings@motorA_pwm^(0+128)
  2754     0150  3002               	movlw	2
  2755     0151  00A1               	movwf	MotorSettings@motorB^(0+128)
  2756     0152  0866               	movf	vectorCalculations@magnitude^(0+128),w
  2757     0153  00A2               	movwf	MotorSettings@motorB_pwm^(0+128)
  2758     0154  3002               	movlw	2
  2759     0155  319C  2465  3180   	fcall	_MotorSettings
  2760     0158  2FCB               	goto	l387
  2761     0159                     l4410:
  2762                           
  2763                           ;Rover_Main_Ver01.c: 361:             if(right_Joystick_X > 0){
  2764     0159  086F               	movf	(_right_Joystick_X+1)^(0+128),w
  2765     015A  3A80               	xorlw	128
  2766     015B  00D6               	movwf	??_vectorCalculations^(0+128)
  2767     015C  3080               	movlw	128
  2768     015D  0256               	subwf	??_vectorCalculations^(0+128),w
  2769     015E  1D03               	skipz
  2770     015F  2962               	goto	u5365
  2771     0160  3001               	movlw	1
  2772     0161  026E               	subwf	_right_Joystick_X^(0+128),w
  2773     0162                     u5365:
  2774     0162  1C03               	skipc
  2775     0163  2965               	goto	u5361
  2776     0164  2966               	goto	u5360
  2777     0165                     u5361:
  2778     0165  2972               	goto	l4414
  2779     0166                     u5360:
  2780     0166                     l4412:
  2781                           
  2782                           ;Rover_Main_Ver01.c: 362:                 MotorSettings(2,magnitude, 1, magnitude);
  2783     0166  0021               	movlb	1	; select bank1
  2784     0167  0866               	movf	vectorCalculations@magnitude^(0+128),w
  2785     0168  00A0               	movwf	MotorSettings@motorA_pwm^(0+128)
  2786     0169  01A1               	clrf	MotorSettings@motorB^(0+128)
  2787     016A  0AA1               	incf	MotorSettings@motorB^(0+128),f
  2788     016B  0866               	movf	vectorCalculations@magnitude^(0+128),w
  2789     016C  00A2               	movwf	MotorSettings@motorB_pwm^(0+128)
  2790     016D  3002               	movlw	2
  2791     016E  319C  2465  3180   	fcall	_MotorSettings
  2792                           
  2793                           ;Rover_Main_Ver01.c: 363:             }
  2794     0171  2FCB               	goto	l387
  2795     0172                     l4414:
  2796                           
  2797                           ;Rover_Main_Ver01.c: 365:                 MotorSettings(1,magnitude, 2, magnitude);
  2798     0172  0021               	movlb	1	; select bank1
  2799     0173  0866               	movf	vectorCalculations@magnitude^(0+128),w
  2800     0174  00A0               	movwf	MotorSettings@motorA_pwm^(0+128)
  2801     0175  3002               	movlw	2
  2802     0176  00A1               	movwf	MotorSettings@motorB^(0+128)
  2803     0177  0866               	movf	vectorCalculations@magnitude^(0+128),w
  2804     0178  00A2               	movwf	MotorSettings@motorB_pwm^(0+128)
  2805     0179  3001               	movlw	1
  2806     017A  319C  2465  3180   	fcall	_MotorSettings
  2807     017D  2FCB               	goto	l387
  2808     017E                     l362:	
  2809                           ;Rover_Main_Ver01.c: 369:     else if(right_Joystick_X < 0){
  2810                           
  2811     017E  1FEF               	btfss	(_right_Joystick_X+1)^(0+128),7
  2812     017F  2981               	goto	u5371
  2813     0180  2982               	goto	u5370
  2814     0181                     u5371:
  2815     0181  2CA7               	goto	l4448
  2816     0182                     u5370:
  2817     0182                     l4416:
  2818                           
  2819                           ;Rover_Main_Ver01.c: 370:         angle = atanf(((float)right_Joystick_Y / (float)right_
      +                          Joystick_X));
  2820     0182  086E               	movf	_right_Joystick_X^(0+128),w
  2821     0183  00F7               	movwf	___xxtofl@val
  2822     0184  086F               	movf	(_right_Joystick_X+1)^(0+128),w
  2823     0185  00F8               	movwf	___xxtofl@val+1
  2824     0186  0D89               	rlf	9,f
  2825     0187  3B89               	subwfb	9,f
  2826     0188  0989               	comf	9,f
  2827     0189  00F9               	movwf	___xxtofl@val+2
  2828     018A  00FA               	movwf	___xxtofl@val+3
  2829     018B  3001               	movlw	1
  2830     018C  3190  20C0  3180   	fcall	___xxtofl
  2831     018F  087A               	movf	?___xxtofl+3,w
  2832     0190  0021               	movlb	1	; select bank1
  2833     0191  00B5               	movwf	(___fldiv@a+3)^(0+128)
  2834     0192  0879               	movf	?___xxtofl+2,w
  2835     0193  00B4               	movwf	(___fldiv@a+2)^(0+128)
  2836     0194  0878               	movf	?___xxtofl+1,w
  2837     0195  00B3               	movwf	(___fldiv@a+1)^(0+128)
  2838     0196  0877               	movf	?___xxtofl,w
  2839     0197  00B2               	movwf	___fldiv@a^(0+128)
  2840     0198  086C               	movf	_right_Joystick_Y^(0+128),w
  2841     0199  00F7               	movwf	___xxtofl@val
  2842     019A  086D               	movf	(_right_Joystick_Y+1)^(0+128),w
  2843     019B  00F8               	movwf	___xxtofl@val+1
  2844     019C  0D89               	rlf	9,f
  2845     019D  3B89               	subwfb	9,f
  2846     019E  0989               	comf	9,f
  2847     019F  00F9               	movwf	___xxtofl@val+2
  2848     01A0  00FA               	movwf	___xxtofl@val+3
  2849     01A1  3001               	movlw	1
  2850     01A2  3190  20C0  3180   	fcall	___xxtofl
  2851     01A5  087A               	movf	?___xxtofl+3,w
  2852     01A6  0021               	movlb	1	; select bank1
  2853     01A7  00B9               	movwf	(___fldiv@b+3)^(0+128)
  2854     01A8  0879               	movf	?___xxtofl+2,w
  2855     01A9  00B8               	movwf	(___fldiv@b+2)^(0+128)
  2856     01AA  0878               	movf	?___xxtofl+1,w
  2857     01AB  00B7               	movwf	(___fldiv@b+1)^(0+128)
  2858     01AC  0877               	movf	?___xxtofl,w
  2859     01AD  00B6               	movwf	___fldiv@b^(0+128)
  2860     01AE  3192  224A  3180   	fcall	___fldiv
  2861     01B1  0021               	movlb	1	; select bank1
  2862     01B2  0835               	movf	(?___fldiv+3)^(0+128),w
  2863     01B3  00DD               	movwf	(_vectorCalculations$1911+3)^(0+128)
  2864     01B4  0834               	movf	(?___fldiv+2)^(0+128),w
  2865     01B5  00DC               	movwf	(_vectorCalculations$1911+2)^(0+128)
  2866     01B6  0833               	movf	(?___fldiv+1)^(0+128),w
  2867     01B7  00DB               	movwf	(_vectorCalculations$1911+1)^(0+128)
  2868     01B8  0832               	movf	?___fldiv^(0+128),w
  2869     01B9  00DA               	movwf	_vectorCalculations$1911^(0+128)
  2870     01BA                     l4418:
  2871                           
  2872                           ;Rover_Main_Ver01.c: 370:         angle = atanf(((float)right_Joystick_Y / (float)right_
      +                          Joystick_X));
  2873     01BA  085D               	movf	(_vectorCalculations$1911+3)^(0+128),w
  2874     01BB  00CF               	movwf	(atanf@x+3)^(0+128)
  2875     01BC  085C               	movf	(_vectorCalculations$1911+2)^(0+128),w
  2876     01BD  00CE               	movwf	(atanf@x+2)^(0+128)
  2877     01BE  085B               	movf	(_vectorCalculations$1911+1)^(0+128),w
  2878     01BF  00CD               	movwf	(atanf@x+1)^(0+128)
  2879     01C0  085A               	movf	_vectorCalculations$1911^(0+128),w
  2880     01C1  00CC               	movwf	atanf@x^(0+128)
  2881     01C2  318A  2290  3180   	fcall	_atanf
  2882     01C5  0021               	movlb	1	; select bank1
  2883     01C6  084F               	movf	(?_atanf+3)^(0+128),w
  2884     01C7  00EB               	movwf	(_angle+3)^(0+128)
  2885     01C8  084E               	movf	(?_atanf+2)^(0+128),w
  2886     01C9  00EA               	movwf	(_angle+2)^(0+128)
  2887     01CA  084D               	movf	(?_atanf+1)^(0+128),w
  2888     01CB  00E9               	movwf	(_angle+1)^(0+128)
  2889     01CC  084C               	movf	?_atanf^(0+128),w
  2890     01CD  00E8               	movwf	_angle^(0+128)
  2891     01CE                     l4420:
  2892                           
  2893                           ;Rover_Main_Ver01.c: 371:         if(angle > 0){
  2894     01CE  3000               	movlw	0
  2895     01CF  00F4               	movwf	___flge@ff1+3
  2896     01D0  3000               	movlw	0
  2897     01D1  00F3               	movwf	___flge@ff1+2
  2898     01D2  3000               	movlw	0
  2899     01D3  00F2               	movwf	___flge@ff1+1
  2900     01D4  3000               	movlw	0
  2901     01D5  00F1               	movwf	___flge@ff1
  2902     01D6  086B               	movf	(_angle+3)^(0+128),w
  2903     01D7  00F8               	movwf	___flge@ff2+3
  2904     01D8  086A               	movf	(_angle+2)^(0+128),w
  2905     01D9  00F7               	movwf	___flge@ff2+2
  2906     01DA  0869               	movf	(_angle+1)^(0+128),w
  2907     01DB  00F6               	movwf	___flge@ff2+1
  2908     01DC  0868               	movf	_angle^(0+128),w
  2909     01DD  00F5               	movwf	___flge@ff2
  2910     01DE  3190  2035  3180   	fcall	___flge
  2911     01E1  1803               	btfsc	3,0
  2912     01E2  29E4               	goto	u5381
  2913     01E3  29E5               	goto	u5380
  2914     01E4                     u5381:
  2915     01E4  2B2E               	goto	l4434
  2916     01E5                     u5380:
  2917     01E5                     l4422:
  2918                           
  2919                           ;Rover_Main_Ver01.c: 372:            HAL_LED_ON(3);
  2920     01E5  3003               	movlw	3
  2921     01E6  00F1               	movwf	HAL_LED_ON@LED
  2922     01E7  3000               	movlw	0
  2923     01E8  00F2               	movwf	HAL_LED_ON@LED+1
  2924     01E9  3190  2014  3180   	fcall	_HAL_LED_ON
  2925     01EC                     l4424:
  2926                           
  2927                           ;Rover_Main_Ver01.c: 373:            if(angle < 3.14159265358979323846/4){
  2928     01EC  0021               	movlb	1	; select bank1
  2929     01ED  086B               	movf	(_angle+3)^(0+128),w
  2930     01EE  00F4               	movwf	___flge@ff1+3
  2931     01EF  086A               	movf	(_angle+2)^(0+128),w
  2932     01F0  00F3               	movwf	___flge@ff1+2
  2933     01F1  0869               	movf	(_angle+1)^(0+128),w
  2934     01F2  00F2               	movwf	___flge@ff1+1
  2935     01F3  0868               	movf	_angle^(0+128),w
  2936     01F4  00F1               	movwf	___flge@ff1
  2937     01F5  303F               	movlw	63
  2938     01F6  00F8               	movwf	___flge@ff2+3
  2939     01F7  3049               	movlw	73
  2940     01F8  00F7               	movwf	___flge@ff2+2
  2941     01F9  300F               	movlw	15
  2942     01FA  00F6               	movwf	___flge@ff2+1
  2943     01FB  30DB               	movlw	219
  2944     01FC  00F5               	movwf	___flge@ff2
  2945     01FD  3190  2035  3180   	fcall	___flge
  2946     0200  1803               	btfsc	3,0
  2947     0201  2A03               	goto	u5391
  2948     0202  2A04               	goto	u5390
  2949     0203                     u5391:
  2950     0203  2AA3               	goto	l4430
  2951     0204                     u5390:
  2952     0204                     l4426:
  2953                           
  2954                           ;Rover_Main_Ver01.c: 376:                 speed = ((angle - 3.14159265358979323846/4)*-1
      +                          )*127 + 20;
  2955     0204  30BF               	movlw	191
  2956     0205  0020               	movlb	0	; select bank0
  2957     0206  00E9               	movwf	___flmul@b+3
  2958     0207  3080               	movlw	128
  2959     0208  00E8               	movwf	___flmul@b+2
  2960     0209  3000               	movlw	0
  2961     020A  00E7               	movwf	___flmul@b+1
  2962     020B  3000               	movlw	0
  2963     020C  00E6               	movwf	___flmul@b
  2964     020D  30BF               	movlw	191
  2965     020E  00D5               	movwf	___fladd@b+3
  2966     020F  3049               	movlw	73
  2967     0210  00D4               	movwf	___fladd@b+2
  2968     0211  300F               	movlw	15
  2969     0212  00D3               	movwf	___fladd@b+1
  2970     0213  30DB               	movlw	219
  2971     0214  00D2               	movwf	___fladd@b
  2972     0215  0021               	movlb	1	; select bank1
  2973     0216  086B               	movf	(_angle+3)^(0+128),w
  2974     0217  0020               	movlb	0	; select bank0
  2975     0218  00D9               	movwf	___fladd@a+3
  2976     0219  0021               	movlb	1	; select bank1
  2977     021A  086A               	movf	(_angle+2)^(0+128),w
  2978     021B  0020               	movlb	0	; select bank0
  2979     021C  00D8               	movwf	___fladd@a+2
  2980     021D  0021               	movlb	1	; select bank1
  2981     021E  0869               	movf	(_angle+1)^(0+128),w
  2982     021F  0020               	movlb	0	; select bank0
  2983     0220  00D7               	movwf	___fladd@a+1
  2984     0221  0021               	movlb	1	; select bank1
  2985     0222  0868               	movf	_angle^(0+128),w
  2986     0223  0020               	movlb	0	; select bank0
  2987     0224  00D6               	movwf	___fladd@a
  2988     0225  3195  25F4  3180   	fcall	___fladd
  2989     0228  0020               	movlb	0	; select bank0
  2990     0229  0855               	movf	?___fladd+3,w
  2991     022A  00ED               	movwf	___flmul@a+3
  2992     022B  0854               	movf	?___fladd+2,w
  2993     022C  00EC               	movwf	___flmul@a+2
  2994     022D  0853               	movf	?___fladd+1,w
  2995     022E  00EB               	movwf	___flmul@a+1
  2996     022F  0852               	movf	?___fladd,w
  2997     0230  00EA               	movwf	___flmul@a
  2998     0231  3188  2031  3180   	fcall	___flmul
  2999     0234  0020               	movlb	0	; select bank0
  3000     0235  0869               	movf	?___flmul+3,w
  3001     0236  0021               	movlb	1	; select bank1
  3002     0237  00E1               	movwf	(_vectorCalculations$1912+3)^(0+128)
  3003     0238  0020               	movlb	0	; select bank0
  3004     0239  0868               	movf	?___flmul+2,w
  3005     023A  0021               	movlb	1	; select bank1
  3006     023B  00E0               	movwf	(_vectorCalculations$1912+2)^(0+128)
  3007     023C  0020               	movlb	0	; select bank0
  3008     023D  0867               	movf	?___flmul+1,w
  3009     023E  0021               	movlb	1	; select bank1
  3010     023F  00DF               	movwf	(_vectorCalculations$1912+1)^(0+128)
  3011     0240  0020               	movlb	0	; select bank0
  3012     0241  0866               	movf	?___flmul,w
  3013     0242  0021               	movlb	1	; select bank1
  3014     0243  00DE               	movwf	_vectorCalculations$1912^(0+128)
  3015                           
  3016                           ;Rover_Main_Ver01.c: 376:                 speed = ((angle - 3.14159265358979323846/4)*-1
      +                          )*127 + 20;
  3017     0244  3041               	movlw	65
  3018     0245  0020               	movlb	0	; select bank0
  3019     0246  00D5               	movwf	___fladd@b+3
  3020     0247  30A0               	movlw	160
  3021     0248  00D4               	movwf	___fladd@b+2
  3022     0249  3000               	movlw	0
  3023     024A  00D3               	movwf	___fladd@b+1
  3024     024B  3000               	movlw	0
  3025     024C  00D2               	movwf	___fladd@b
  3026     024D  3042               	movlw	66
  3027     024E  00E9               	movwf	___flmul@b+3
  3028     024F  30FE               	movlw	254
  3029     0250  00E8               	movwf	___flmul@b+2
  3030     0251  3000               	movlw	0
  3031     0252  00E7               	movwf	___flmul@b+1
  3032     0253  3000               	movlw	0
  3033     0254  00E6               	movwf	___flmul@b
  3034     0255  0021               	movlb	1	; select bank1
  3035     0256  0861               	movf	(_vectorCalculations$1912+3)^(0+128),w
  3036     0257  0020               	movlb	0	; select bank0
  3037     0258  00ED               	movwf	___flmul@a+3
  3038     0259  0021               	movlb	1	; select bank1
  3039     025A  0860               	movf	(_vectorCalculations$1912+2)^(0+128),w
  3040     025B  0020               	movlb	0	; select bank0
  3041     025C  00EC               	movwf	___flmul@a+2
  3042     025D  0021               	movlb	1	; select bank1
  3043     025E  085F               	movf	(_vectorCalculations$1912+1)^(0+128),w
  3044     025F  0020               	movlb	0	; select bank0
  3045     0260  00EB               	movwf	___flmul@a+1
  3046     0261  0021               	movlb	1	; select bank1
  3047     0262  085E               	movf	_vectorCalculations$1912^(0+128),w
  3048     0263  0020               	movlb	0	; select bank0
  3049     0264  00EA               	movwf	___flmul@a
  3050     0265  3188  2031  3180   	fcall	___flmul
  3051     0268  0020               	movlb	0	; select bank0
  3052     0269  0869               	movf	?___flmul+3,w
  3053     026A  00D9               	movwf	___fladd@a+3
  3054     026B  0868               	movf	?___flmul+2,w
  3055     026C  00D8               	movwf	___fladd@a+2
  3056     026D  0867               	movf	?___flmul+1,w
  3057     026E  00D7               	movwf	___fladd@a+1
  3058     026F  0866               	movf	?___flmul,w
  3059     0270  00D6               	movwf	___fladd@a
  3060     0271  3195  25F4  3180   	fcall	___fladd
  3061     0274  0020               	movlb	0	; select bank0
  3062     0275  0855               	movf	?___fladd+3,w
  3063     0276  0022               	movlb	2	; select bank2
  3064     0277  00DB               	movwf	(_speed+3)^(0+256)
  3065     0278  0020               	movlb	0	; select bank0
  3066     0279  0854               	movf	?___fladd+2,w
  3067     027A  0022               	movlb	2	; select bank2
  3068     027B  00DA               	movwf	(_speed+2)^(0+256)
  3069     027C  0020               	movlb	0	; select bank0
  3070     027D  0853               	movf	?___fladd+1,w
  3071     027E  0022               	movlb	2	; select bank2
  3072     027F  00D9               	movwf	(_speed+1)^(0+256)
  3073     0280  0020               	movlb	0	; select bank0
  3074     0281  0852               	movf	?___fladd,w
  3075     0282  0022               	movlb	2	; select bank2
  3076     0283  00D8               	movwf	_speed^(0+256)
  3077     0284                     l4428:
  3078                           
  3079                           ;Rover_Main_Ver01.c: 377:                 MotorSettings(1,speed, 2, magnitude);
  3080     0284  085B               	movf	(_speed+3)^(0+256),w
  3081     0285  0020               	movlb	0	; select bank0
  3082     0286  00E9               	movwf	___fltol@f1+3
  3083     0287  0022               	movlb	2	; select bank2
  3084     0288  085A               	movf	(_speed+2)^(0+256),w
  3085     0289  0020               	movlb	0	; select bank0
  3086     028A  00E8               	movwf	___fltol@f1+2
  3087     028B  0022               	movlb	2	; select bank2
  3088     028C  0859               	movf	(_speed+1)^(0+256),w
  3089     028D  0020               	movlb	0	; select bank0
  3090     028E  00E7               	movwf	___fltol@f1+1
  3091     028F  0022               	movlb	2	; select bank2
  3092     0290  0858               	movf	_speed^(0+256),w
  3093     0291  0020               	movlb	0	; select bank0
  3094     0292  00E6               	movwf	___fltol@f1
  3095     0293  319F  2712  3180   	fcall	___fltol
  3096     0296  0020               	movlb	0	; select bank0
  3097     0297  0866               	movf	?___fltol,w
  3098     0298  0021               	movlb	1	; select bank1
  3099     0299  00A0               	movwf	MotorSettings@motorA_pwm^(0+128)
  3100     029A  3002               	movlw	2
  3101     029B  00A1               	movwf	MotorSettings@motorB^(0+128)
  3102     029C  0866               	movf	vectorCalculations@magnitude^(0+128),w
  3103     029D  00A2               	movwf	MotorSettings@motorB_pwm^(0+128)
  3104     029E  3001               	movlw	1
  3105     029F  319C  2465  3180   	fcall	_MotorSettings
  3106                           
  3107                           ;Rover_Main_Ver01.c: 378:             }
  3108     02A2  2FCB               	goto	l387
  3109     02A3                     l4430:
  3110                           
  3111                           ;Rover_Main_Ver01.c: 380:                 speed = (angle - 3.14159265358979323846/4)*127
      +                          + 20;
  3112     02A3  3042               	movlw	66
  3113     02A4  0020               	movlb	0	; select bank0
  3114     02A5  00E9               	movwf	___flmul@b+3
  3115     02A6  30FE               	movlw	254
  3116     02A7  00E8               	movwf	___flmul@b+2
  3117     02A8  3000               	movlw	0
  3118     02A9  00E7               	movwf	___flmul@b+1
  3119     02AA  3000               	movlw	0
  3120     02AB  00E6               	movwf	___flmul@b
  3121     02AC  30BF               	movlw	191
  3122     02AD  00D5               	movwf	___fladd@b+3
  3123     02AE  3049               	movlw	73
  3124     02AF  00D4               	movwf	___fladd@b+2
  3125     02B0  300F               	movlw	15
  3126     02B1  00D3               	movwf	___fladd@b+1
  3127     02B2  30DB               	movlw	219
  3128     02B3  00D2               	movwf	___fladd@b
  3129     02B4  0021               	movlb	1	; select bank1
  3130     02B5  086B               	movf	(_angle+3)^(0+128),w
  3131     02B6  0020               	movlb	0	; select bank0
  3132     02B7  00D9               	movwf	___fladd@a+3
  3133     02B8  0021               	movlb	1	; select bank1
  3134     02B9  086A               	movf	(_angle+2)^(0+128),w
  3135     02BA  0020               	movlb	0	; select bank0
  3136     02BB  00D8               	movwf	___fladd@a+2
  3137     02BC  0021               	movlb	1	; select bank1
  3138     02BD  0869               	movf	(_angle+1)^(0+128),w
  3139     02BE  0020               	movlb	0	; select bank0
  3140     02BF  00D7               	movwf	___fladd@a+1
  3141     02C0  0021               	movlb	1	; select bank1
  3142     02C1  0868               	movf	_angle^(0+128),w
  3143     02C2  0020               	movlb	0	; select bank0
  3144     02C3  00D6               	movwf	___fladd@a
  3145     02C4  3195  25F4  3180   	fcall	___fladd
  3146     02C7  0020               	movlb	0	; select bank0
  3147     02C8  0855               	movf	?___fladd+3,w
  3148     02C9  00ED               	movwf	___flmul@a+3
  3149     02CA  0854               	movf	?___fladd+2,w
  3150     02CB  00EC               	movwf	___flmul@a+2
  3151     02CC  0853               	movf	?___fladd+1,w
  3152     02CD  00EB               	movwf	___flmul@a+1
  3153     02CE  0852               	movf	?___fladd,w
  3154     02CF  00EA               	movwf	___flmul@a
  3155     02D0  3188  2031  3180   	fcall	___flmul
  3156     02D3  0020               	movlb	0	; select bank0
  3157     02D4  0869               	movf	?___flmul+3,w
  3158     02D5  0021               	movlb	1	; select bank1
  3159     02D6  00E5               	movwf	(_vectorCalculations$1913+3)^(0+128)
  3160     02D7  0020               	movlb	0	; select bank0
  3161     02D8  0868               	movf	?___flmul+2,w
  3162     02D9  0021               	movlb	1	; select bank1
  3163     02DA  00E4               	movwf	(_vectorCalculations$1913+2)^(0+128)
  3164     02DB  0020               	movlb	0	; select bank0
  3165     02DC  0867               	movf	?___flmul+1,w
  3166     02DD  0021               	movlb	1	; select bank1
  3167     02DE  00E3               	movwf	(_vectorCalculations$1913+1)^(0+128)
  3168     02DF  0020               	movlb	0	; select bank0
  3169     02E0  0866               	movf	?___flmul,w
  3170     02E1  0021               	movlb	1	; select bank1
  3171     02E2  00E2               	movwf	_vectorCalculations$1913^(0+128)
  3172                           
  3173                           ;Rover_Main_Ver01.c: 380:                 speed = (angle - 3.14159265358979323846/4)*127
      +                          + 20;
  3174     02E3  3041               	movlw	65
  3175     02E4  0020               	movlb	0	; select bank0
  3176     02E5  00D5               	movwf	___fladd@b+3
  3177     02E6  30A0               	movlw	160
  3178     02E7  00D4               	movwf	___fladd@b+2
  3179     02E8  3000               	movlw	0
  3180     02E9  00D3               	movwf	___fladd@b+1
  3181     02EA  3000               	movlw	0
  3182     02EB  00D2               	movwf	___fladd@b
  3183     02EC  0021               	movlb	1	; select bank1
  3184     02ED  0865               	movf	(_vectorCalculations$1913+3)^(0+128),w
  3185     02EE  0020               	movlb	0	; select bank0
  3186     02EF  00D9               	movwf	___fladd@a+3
  3187     02F0  0021               	movlb	1	; select bank1
  3188     02F1  0864               	movf	(_vectorCalculations$1913+2)^(0+128),w
  3189     02F2  0020               	movlb	0	; select bank0
  3190     02F3  00D8               	movwf	___fladd@a+2
  3191     02F4  0021               	movlb	1	; select bank1
  3192     02F5  0863               	movf	(_vectorCalculations$1913+1)^(0+128),w
  3193     02F6  0020               	movlb	0	; select bank0
  3194     02F7  00D7               	movwf	___fladd@a+1
  3195     02F8  0021               	movlb	1	; select bank1
  3196     02F9  0862               	movf	_vectorCalculations$1913^(0+128),w
  3197     02FA  0020               	movlb	0	; select bank0
  3198     02FB  00D6               	movwf	___fladd@a
  3199     02FC  3195  25F4  3180   	fcall	___fladd
  3200     02FF  0020               	movlb	0	; select bank0
  3201     0300  0855               	movf	?___fladd+3,w
  3202     0301  0022               	movlb	2	; select bank2
  3203     0302  00DB               	movwf	(_speed+3)^(0+256)
  3204     0303  0020               	movlb	0	; select bank0
  3205     0304  0854               	movf	?___fladd+2,w
  3206     0305  0022               	movlb	2	; select bank2
  3207     0306  00DA               	movwf	(_speed+2)^(0+256)
  3208     0307  0020               	movlb	0	; select bank0
  3209     0308  0853               	movf	?___fladd+1,w
  3210     0309  0022               	movlb	2	; select bank2
  3211     030A  00D9               	movwf	(_speed+1)^(0+256)
  3212     030B  0020               	movlb	0	; select bank0
  3213     030C  0852               	movf	?___fladd,w
  3214     030D  0022               	movlb	2	; select bank2
  3215     030E  00D8               	movwf	_speed^(0+256)
  3216     030F                     l4432:
  3217                           
  3218                           ;Rover_Main_Ver01.c: 381:                 MotorSettings(2,speed, 2,magnitude);
  3219     030F  085B               	movf	(_speed+3)^(0+256),w
  3220     0310  0020               	movlb	0	; select bank0
  3221     0311  00E9               	movwf	___fltol@f1+3
  3222     0312  0022               	movlb	2	; select bank2
  3223     0313  085A               	movf	(_speed+2)^(0+256),w
  3224     0314  0020               	movlb	0	; select bank0
  3225     0315  00E8               	movwf	___fltol@f1+2
  3226     0316  0022               	movlb	2	; select bank2
  3227     0317  0859               	movf	(_speed+1)^(0+256),w
  3228     0318  0020               	movlb	0	; select bank0
  3229     0319  00E7               	movwf	___fltol@f1+1
  3230     031A  0022               	movlb	2	; select bank2
  3231     031B  0858               	movf	_speed^(0+256),w
  3232     031C  0020               	movlb	0	; select bank0
  3233     031D  00E6               	movwf	___fltol@f1
  3234     031E  319F  2712  3180   	fcall	___fltol
  3235     0321  0020               	movlb	0	; select bank0
  3236     0322  0866               	movf	?___fltol,w
  3237     0323  0021               	movlb	1	; select bank1
  3238     0324  00A0               	movwf	MotorSettings@motorA_pwm^(0+128)
  3239     0325  3002               	movlw	2
  3240     0326  00A1               	movwf	MotorSettings@motorB^(0+128)
  3241     0327  0866               	movf	vectorCalculations@magnitude^(0+128),w
  3242     0328  00A2               	movwf	MotorSettings@motorB_pwm^(0+128)
  3243     0329  3002               	movlw	2
  3244     032A  319C  2465  3180   	fcall	_MotorSettings
  3245     032D  2FCB               	goto	l387
  3246     032E                     l4434:
  3247                           
  3248                           ;Rover_Main_Ver01.c: 385:            angle *= -1;
  3249     032E  30BF               	movlw	191
  3250     032F  0020               	movlb	0	; select bank0
  3251     0330  00E9               	movwf	___flmul@b+3
  3252     0331  3080               	movlw	128
  3253     0332  00E8               	movwf	___flmul@b+2
  3254     0333  3000               	movlw	0
  3255     0334  00E7               	movwf	___flmul@b+1
  3256     0335  3000               	movlw	0
  3257     0336  00E6               	movwf	___flmul@b
  3258     0337  0021               	movlb	1	; select bank1
  3259     0338  086B               	movf	(_angle+3)^(0+128),w
  3260     0339  0020               	movlb	0	; select bank0
  3261     033A  00ED               	movwf	___flmul@a+3
  3262     033B  0021               	movlb	1	; select bank1
  3263     033C  086A               	movf	(_angle+2)^(0+128),w
  3264     033D  0020               	movlb	0	; select bank0
  3265     033E  00EC               	movwf	___flmul@a+2
  3266     033F  0021               	movlb	1	; select bank1
  3267     0340  0869               	movf	(_angle+1)^(0+128),w
  3268     0341  0020               	movlb	0	; select bank0
  3269     0342  00EB               	movwf	___flmul@a+1
  3270     0343  0021               	movlb	1	; select bank1
  3271     0344  0868               	movf	_angle^(0+128),w
  3272     0345  0020               	movlb	0	; select bank0
  3273     0346  00EA               	movwf	___flmul@a
  3274     0347  3188  2031  3180   	fcall	___flmul
  3275     034A  0020               	movlb	0	; select bank0
  3276     034B  0869               	movf	?___flmul+3,w
  3277     034C  0021               	movlb	1	; select bank1
  3278     034D  00EB               	movwf	(_angle+3)^(0+128)
  3279     034E  0020               	movlb	0	; select bank0
  3280     034F  0868               	movf	?___flmul+2,w
  3281     0350  0021               	movlb	1	; select bank1
  3282     0351  00EA               	movwf	(_angle+2)^(0+128)
  3283     0352  0020               	movlb	0	; select bank0
  3284     0353  0867               	movf	?___flmul+1,w
  3285     0354  0021               	movlb	1	; select bank1
  3286     0355  00E9               	movwf	(_angle+1)^(0+128)
  3287     0356  0020               	movlb	0	; select bank0
  3288     0357  0866               	movf	?___flmul,w
  3289     0358  0021               	movlb	1	; select bank1
  3290     0359  00E8               	movwf	_angle^(0+128)
  3291     035A                     l4436:
  3292                           
  3293                           ;Rover_Main_Ver01.c: 386:            HAL_LED_ON(2);
  3294     035A  3002               	movlw	2
  3295     035B  00F1               	movwf	HAL_LED_ON@LED
  3296     035C  3000               	movlw	0
  3297     035D  00F2               	movwf	HAL_LED_ON@LED+1
  3298     035E  3190  2014  3180   	fcall	_HAL_LED_ON
  3299     0361                     l4438:
  3300                           
  3301                           ;Rover_Main_Ver01.c: 387:            if(angle < 3.14159265358979323846/4){
  3302     0361  0021               	movlb	1	; select bank1
  3303     0362  086B               	movf	(_angle+3)^(0+128),w
  3304     0363  00F4               	movwf	___flge@ff1+3
  3305     0364  086A               	movf	(_angle+2)^(0+128),w
  3306     0365  00F3               	movwf	___flge@ff1+2
  3307     0366  0869               	movf	(_angle+1)^(0+128),w
  3308     0367  00F2               	movwf	___flge@ff1+1
  3309     0368  0868               	movf	_angle^(0+128),w
  3310     0369  00F1               	movwf	___flge@ff1
  3311     036A  303F               	movlw	63
  3312     036B  00F8               	movwf	___flge@ff2+3
  3313     036C  3049               	movlw	73
  3314     036D  00F7               	movwf	___flge@ff2+2
  3315     036E  300F               	movlw	15
  3316     036F  00F6               	movwf	___flge@ff2+1
  3317     0370  30DB               	movlw	219
  3318     0371  00F5               	movwf	___flge@ff2
  3319     0372  3190  2035  3180   	fcall	___flge
  3320     0375  1803               	btfsc	3,0
  3321     0376  2B78               	goto	u5401
  3322     0377  2B79               	goto	u5400
  3323     0378                     u5401:
  3324     0378  2C1A               	goto	l4444
  3325     0379                     u5400:
  3326     0379                     l4440:
  3327                           
  3328                           ;Rover_Main_Ver01.c: 390:                 speed = ((angle - 3.14159265358979323846/4)*-1
      +                          )*127+ 20;
  3329     0379  30BF               	movlw	191
  3330     037A  0020               	movlb	0	; select bank0
  3331     037B  00E9               	movwf	___flmul@b+3
  3332     037C  3080               	movlw	128
  3333     037D  00E8               	movwf	___flmul@b+2
  3334     037E  3000               	movlw	0
  3335     037F  00E7               	movwf	___flmul@b+1
  3336     0380  3000               	movlw	0
  3337     0381  00E6               	movwf	___flmul@b
  3338     0382  30BF               	movlw	191
  3339     0383  00D5               	movwf	___fladd@b+3
  3340     0384  3049               	movlw	73
  3341     0385  00D4               	movwf	___fladd@b+2
  3342     0386  300F               	movlw	15
  3343     0387  00D3               	movwf	___fladd@b+1
  3344     0388  30DB               	movlw	219
  3345     0389  00D2               	movwf	___fladd@b
  3346     038A  0021               	movlb	1	; select bank1
  3347     038B  086B               	movf	(_angle+3)^(0+128),w
  3348     038C  0020               	movlb	0	; select bank0
  3349     038D  00D9               	movwf	___fladd@a+3
  3350     038E  0021               	movlb	1	; select bank1
  3351     038F  086A               	movf	(_angle+2)^(0+128),w
  3352     0390  0020               	movlb	0	; select bank0
  3353     0391  00D8               	movwf	___fladd@a+2
  3354     0392  0021               	movlb	1	; select bank1
  3355     0393  0869               	movf	(_angle+1)^(0+128),w
  3356     0394  0020               	movlb	0	; select bank0
  3357     0395  00D7               	movwf	___fladd@a+1
  3358     0396  0021               	movlb	1	; select bank1
  3359     0397  0868               	movf	_angle^(0+128),w
  3360     0398  0020               	movlb	0	; select bank0
  3361     0399  00D6               	movwf	___fladd@a
  3362     039A  3195  25F4  3180   	fcall	___fladd
  3363     039D  0020               	movlb	0	; select bank0
  3364     039E  0855               	movf	?___fladd+3,w
  3365     039F  00ED               	movwf	___flmul@a+3
  3366     03A0  0854               	movf	?___fladd+2,w
  3367     03A1  00EC               	movwf	___flmul@a+2
  3368     03A2  0853               	movf	?___fladd+1,w
  3369     03A3  00EB               	movwf	___flmul@a+1
  3370     03A4  0852               	movf	?___fladd,w
  3371     03A5  00EA               	movwf	___flmul@a
  3372     03A6  3188  2031  3180   	fcall	___flmul
  3373     03A9  0020               	movlb	0	; select bank0
  3374     03AA  0869               	movf	?___flmul+3,w
  3375     03AB  0021               	movlb	1	; select bank1
  3376     03AC  00E1               	movwf	(_vectorCalculations$1912+3)^(0+128)
  3377     03AD  0020               	movlb	0	; select bank0
  3378     03AE  0868               	movf	?___flmul+2,w
  3379     03AF  0021               	movlb	1	; select bank1
  3380     03B0  00E0               	movwf	(_vectorCalculations$1912+2)^(0+128)
  3381     03B1  0020               	movlb	0	; select bank0
  3382     03B2  0867               	movf	?___flmul+1,w
  3383     03B3  0021               	movlb	1	; select bank1
  3384     03B4  00DF               	movwf	(_vectorCalculations$1912+1)^(0+128)
  3385     03B5  0020               	movlb	0	; select bank0
  3386     03B6  0866               	movf	?___flmul,w
  3387     03B7  0021               	movlb	1	; select bank1
  3388     03B8  00DE               	movwf	_vectorCalculations$1912^(0+128)
  3389                           
  3390                           ;Rover_Main_Ver01.c: 390:                 speed = ((angle - 3.14159265358979323846/4)*-1
      +                          )*127+ 20;
  3391     03B9  3041               	movlw	65
  3392     03BA  0020               	movlb	0	; select bank0
  3393     03BB  00D5               	movwf	___fladd@b+3
  3394     03BC  30A0               	movlw	160
  3395     03BD  00D4               	movwf	___fladd@b+2
  3396     03BE  3000               	movlw	0
  3397     03BF  00D3               	movwf	___fladd@b+1
  3398     03C0  3000               	movlw	0
  3399     03C1  00D2               	movwf	___fladd@b
  3400     03C2  3042               	movlw	66
  3401     03C3  00E9               	movwf	___flmul@b+3
  3402     03C4  30FE               	movlw	254
  3403     03C5  00E8               	movwf	___flmul@b+2
  3404     03C6  3000               	movlw	0
  3405     03C7  00E7               	movwf	___flmul@b+1
  3406     03C8  3000               	movlw	0
  3407     03C9  00E6               	movwf	___flmul@b
  3408     03CA  0021               	movlb	1	; select bank1
  3409     03CB  0861               	movf	(_vectorCalculations$1912+3)^(0+128),w
  3410     03CC  0020               	movlb	0	; select bank0
  3411     03CD  00ED               	movwf	___flmul@a+3
  3412     03CE  0021               	movlb	1	; select bank1
  3413     03CF  0860               	movf	(_vectorCalculations$1912+2)^(0+128),w
  3414     03D0  0020               	movlb	0	; select bank0
  3415     03D1  00EC               	movwf	___flmul@a+2
  3416     03D2  0021               	movlb	1	; select bank1
  3417     03D3  085F               	movf	(_vectorCalculations$1912+1)^(0+128),w
  3418     03D4  0020               	movlb	0	; select bank0
  3419     03D5  00EB               	movwf	___flmul@a+1
  3420     03D6  0021               	movlb	1	; select bank1
  3421     03D7  085E               	movf	_vectorCalculations$1912^(0+128),w
  3422     03D8  0020               	movlb	0	; select bank0
  3423     03D9  00EA               	movwf	___flmul@a
  3424     03DA  3188  2031  3180   	fcall	___flmul
  3425     03DD  0020               	movlb	0	; select bank0
  3426     03DE  0869               	movf	?___flmul+3,w
  3427     03DF  00D9               	movwf	___fladd@a+3
  3428     03E0  0868               	movf	?___flmul+2,w
  3429     03E1  00D8               	movwf	___fladd@a+2
  3430     03E2  0867               	movf	?___flmul+1,w
  3431     03E3  00D7               	movwf	___fladd@a+1
  3432     03E4  0866               	movf	?___flmul,w
  3433     03E5  00D6               	movwf	___fladd@a
  3434     03E6  3195  25F4  3180   	fcall	___fladd
  3435     03E9  0020               	movlb	0	; select bank0
  3436     03EA  0855               	movf	?___fladd+3,w
  3437     03EB  0022               	movlb	2	; select bank2
  3438     03EC  00DB               	movwf	(_speed+3)^(0+256)
  3439     03ED  0020               	movlb	0	; select bank0
  3440     03EE  0854               	movf	?___fladd+2,w
  3441     03EF  0022               	movlb	2	; select bank2
  3442     03F0  00DA               	movwf	(_speed+2)^(0+256)
  3443     03F1  0020               	movlb	0	; select bank0
  3444     03F2  0853               	movf	?___fladd+1,w
  3445     03F3  0022               	movlb	2	; select bank2
  3446     03F4  00D9               	movwf	(_speed+1)^(0+256)
  3447     03F5  0020               	movlb	0	; select bank0
  3448     03F6  0852               	movf	?___fladd,w
  3449     03F7  0022               	movlb	2	; select bank2
  3450     03F8  00D8               	movwf	_speed^(0+256)
  3451     03F9                     l4442:
  3452                           
  3453                           ;Rover_Main_Ver01.c: 391:                 MotorSettings(1,magnitude, 2, speed);
  3454     03F9  0021               	movlb	1	; select bank1
  3455     03FA  0866               	movf	vectorCalculations@magnitude^(0+128),w
  3456     03FB  00A0               	movwf	MotorSettings@motorA_pwm^(0+128)
  3457     03FC  3002               	movlw	2
  3458     03FD  00A1               	movwf	MotorSettings@motorB^(0+128)
  3459     03FE  0022               	movlb	2	; select bank2
  3460     03FF  085B               	movf	(_speed+3)^(0+256),w
  3461     0400  0020               	movlb	0	; select bank0
  3462     0401  00E9               	movwf	___fltol@f1+3
  3463     0402  0022               	movlb	2	; select bank2
  3464     0403  085A               	movf	(_speed+2)^(0+256),w
  3465     0404  0020               	movlb	0	; select bank0
  3466     0405  00E8               	movwf	___fltol@f1+2
  3467     0406  0022               	movlb	2	; select bank2
  3468     0407  0859               	movf	(_speed+1)^(0+256),w
  3469     0408  0020               	movlb	0	; select bank0
  3470     0409  00E7               	movwf	___fltol@f1+1
  3471     040A  0022               	movlb	2	; select bank2
  3472     040B  0858               	movf	_speed^(0+256),w
  3473     040C  0020               	movlb	0	; select bank0
  3474     040D  00E6               	movwf	___fltol@f1
  3475     040E  319F  2712  3180   	fcall	___fltol
  3476     0411  0020               	movlb	0	; select bank0
  3477     0412  0866               	movf	?___fltol,w
  3478     0413  0021               	movlb	1	; select bank1
  3479     0414  00A2               	movwf	MotorSettings@motorB_pwm^(0+128)
  3480     0415  3001               	movlw	1
  3481     0416  319C  2465  3180   	fcall	_MotorSettings
  3482                           
  3483                           ;Rover_Main_Ver01.c: 392:             }
  3484     0419  2FCB               	goto	l387
  3485     041A                     l4444:
  3486                           
  3487                           ;Rover_Main_Ver01.c: 394:                 speed = (angle - 3.14159265358979323846/4)*127
      +                          + 20;
  3488     041A  3042               	movlw	66
  3489     041B  0020               	movlb	0	; select bank0
  3490     041C  00E9               	movwf	___flmul@b+3
  3491     041D  30FE               	movlw	254
  3492     041E  00E8               	movwf	___flmul@b+2
  3493     041F  3000               	movlw	0
  3494     0420  00E7               	movwf	___flmul@b+1
  3495     0421  3000               	movlw	0
  3496     0422  00E6               	movwf	___flmul@b
  3497     0423  30BF               	movlw	191
  3498     0424  00D5               	movwf	___fladd@b+3
  3499     0425  3049               	movlw	73
  3500     0426  00D4               	movwf	___fladd@b+2
  3501     0427  300F               	movlw	15
  3502     0428  00D3               	movwf	___fladd@b+1
  3503     0429  30DB               	movlw	219
  3504     042A  00D2               	movwf	___fladd@b
  3505     042B  0021               	movlb	1	; select bank1
  3506     042C  086B               	movf	(_angle+3)^(0+128),w
  3507     042D  0020               	movlb	0	; select bank0
  3508     042E  00D9               	movwf	___fladd@a+3
  3509     042F  0021               	movlb	1	; select bank1
  3510     0430  086A               	movf	(_angle+2)^(0+128),w
  3511     0431  0020               	movlb	0	; select bank0
  3512     0432  00D8               	movwf	___fladd@a+2
  3513     0433  0021               	movlb	1	; select bank1
  3514     0434  0869               	movf	(_angle+1)^(0+128),w
  3515     0435  0020               	movlb	0	; select bank0
  3516     0436  00D7               	movwf	___fladd@a+1
  3517     0437  0021               	movlb	1	; select bank1
  3518     0438  0868               	movf	_angle^(0+128),w
  3519     0439  0020               	movlb	0	; select bank0
  3520     043A  00D6               	movwf	___fladd@a
  3521     043B  3195  25F4  3180   	fcall	___fladd
  3522     043E  0020               	movlb	0	; select bank0
  3523     043F  0855               	movf	?___fladd+3,w
  3524     0440  00ED               	movwf	___flmul@a+3
  3525     0441  0854               	movf	?___fladd+2,w
  3526     0442  00EC               	movwf	___flmul@a+2
  3527     0443  0853               	movf	?___fladd+1,w
  3528     0444  00EB               	movwf	___flmul@a+1
  3529     0445  0852               	movf	?___fladd,w
  3530     0446  00EA               	movwf	___flmul@a
  3531     0447  3188  2031  3180   	fcall	___flmul
  3532     044A  0020               	movlb	0	; select bank0
  3533     044B  0869               	movf	?___flmul+3,w
  3534     044C  0021               	movlb	1	; select bank1
  3535     044D  00E5               	movwf	(_vectorCalculations$1913+3)^(0+128)
  3536     044E  0020               	movlb	0	; select bank0
  3537     044F  0868               	movf	?___flmul+2,w
  3538     0450  0021               	movlb	1	; select bank1
  3539     0451  00E4               	movwf	(_vectorCalculations$1913+2)^(0+128)
  3540     0452  0020               	movlb	0	; select bank0
  3541     0453  0867               	movf	?___flmul+1,w
  3542     0454  0021               	movlb	1	; select bank1
  3543     0455  00E3               	movwf	(_vectorCalculations$1913+1)^(0+128)
  3544     0456  0020               	movlb	0	; select bank0
  3545     0457  0866               	movf	?___flmul,w
  3546     0458  0021               	movlb	1	; select bank1
  3547     0459  00E2               	movwf	_vectorCalculations$1913^(0+128)
  3548                           
  3549                           ;Rover_Main_Ver01.c: 394:                 speed = (angle - 3.14159265358979323846/4)*127
      +                          + 20;
  3550     045A  3041               	movlw	65
  3551     045B  0020               	movlb	0	; select bank0
  3552     045C  00D5               	movwf	___fladd@b+3
  3553     045D  30A0               	movlw	160
  3554     045E  00D4               	movwf	___fladd@b+2
  3555     045F  3000               	movlw	0
  3556     0460  00D3               	movwf	___fladd@b+1
  3557     0461  3000               	movlw	0
  3558     0462  00D2               	movwf	___fladd@b
  3559     0463  0021               	movlb	1	; select bank1
  3560     0464  0865               	movf	(_vectorCalculations$1913+3)^(0+128),w
  3561     0465  0020               	movlb	0	; select bank0
  3562     0466  00D9               	movwf	___fladd@a+3
  3563     0467  0021               	movlb	1	; select bank1
  3564     0468  0864               	movf	(_vectorCalculations$1913+2)^(0+128),w
  3565     0469  0020               	movlb	0	; select bank0
  3566     046A  00D8               	movwf	___fladd@a+2
  3567     046B  0021               	movlb	1	; select bank1
  3568     046C  0863               	movf	(_vectorCalculations$1913+1)^(0+128),w
  3569     046D  0020               	movlb	0	; select bank0
  3570     046E  00D7               	movwf	___fladd@a+1
  3571     046F  0021               	movlb	1	; select bank1
  3572     0470  0862               	movf	_vectorCalculations$1913^(0+128),w
  3573     0471  0020               	movlb	0	; select bank0
  3574     0472  00D6               	movwf	___fladd@a
  3575     0473  3195  25F4  3180   	fcall	___fladd
  3576     0476  0020               	movlb	0	; select bank0
  3577     0477  0855               	movf	?___fladd+3,w
  3578     0478  0022               	movlb	2	; select bank2
  3579     0479  00DB               	movwf	(_speed+3)^(0+256)
  3580     047A  0020               	movlb	0	; select bank0
  3581     047B  0854               	movf	?___fladd+2,w
  3582     047C  0022               	movlb	2	; select bank2
  3583     047D  00DA               	movwf	(_speed+2)^(0+256)
  3584     047E  0020               	movlb	0	; select bank0
  3585     047F  0853               	movf	?___fladd+1,w
  3586     0480  0022               	movlb	2	; select bank2
  3587     0481  00D9               	movwf	(_speed+1)^(0+256)
  3588     0482  0020               	movlb	0	; select bank0
  3589     0483  0852               	movf	?___fladd,w
  3590     0484  0022               	movlb	2	; select bank2
  3591     0485  00D8               	movwf	_speed^(0+256)
  3592     0486                     l4446:
  3593                           
  3594                           ;Rover_Main_Ver01.c: 395:                 MotorSettings(1,magnitude, 1, speed);
  3595     0486  0021               	movlb	1	; select bank1
  3596     0487  0866               	movf	vectorCalculations@magnitude^(0+128),w
  3597     0488  00A0               	movwf	MotorSettings@motorA_pwm^(0+128)
  3598     0489  01A1               	clrf	MotorSettings@motorB^(0+128)
  3599     048A  0AA1               	incf	MotorSettings@motorB^(0+128),f
  3600     048B  0022               	movlb	2	; select bank2
  3601     048C  085B               	movf	(_speed+3)^(0+256),w
  3602     048D  0020               	movlb	0	; select bank0
  3603     048E  00E9               	movwf	___fltol@f1+3
  3604     048F  0022               	movlb	2	; select bank2
  3605     0490  085A               	movf	(_speed+2)^(0+256),w
  3606     0491  0020               	movlb	0	; select bank0
  3607     0492  00E8               	movwf	___fltol@f1+2
  3608     0493  0022               	movlb	2	; select bank2
  3609     0494  0859               	movf	(_speed+1)^(0+256),w
  3610     0495  0020               	movlb	0	; select bank0
  3611     0496  00E7               	movwf	___fltol@f1+1
  3612     0497  0022               	movlb	2	; select bank2
  3613     0498  0858               	movf	_speed^(0+256),w
  3614     0499  0020               	movlb	0	; select bank0
  3615     049A  00E6               	movwf	___fltol@f1
  3616     049B  319F  2712  3180   	fcall	___fltol
  3617     049E  0020               	movlb	0	; select bank0
  3618     049F  0866               	movf	?___fltol,w
  3619     04A0  0021               	movlb	1	; select bank1
  3620     04A1  00A2               	movwf	MotorSettings@motorB_pwm^(0+128)
  3621     04A2  3001               	movlw	1
  3622     04A3  319C  2465  3180   	fcall	_MotorSettings
  3623     04A6  2FCB               	goto	l387
  3624     04A7                     l4448:
  3625                           
  3626                           ;Rover_Main_Ver01.c: 400:         angle = atanf(((float)right_Joystick_Y / (float)right_
      +                          Joystick_X));
  3627     04A7  086E               	movf	_right_Joystick_X^(0+128),w
  3628     04A8  00F7               	movwf	___xxtofl@val
  3629     04A9  086F               	movf	(_right_Joystick_X+1)^(0+128),w
  3630     04AA  00F8               	movwf	___xxtofl@val+1
  3631     04AB  0D89               	rlf	9,f
  3632     04AC  3B89               	subwfb	9,f
  3633     04AD  0989               	comf	9,f
  3634     04AE  00F9               	movwf	___xxtofl@val+2
  3635     04AF  00FA               	movwf	___xxtofl@val+3
  3636     04B0  3001               	movlw	1
  3637     04B1  3190  20C0  3180   	fcall	___xxtofl
  3638     04B4  087A               	movf	?___xxtofl+3,w
  3639     04B5  0021               	movlb	1	; select bank1
  3640     04B6  00B5               	movwf	(___fldiv@a+3)^(0+128)
  3641     04B7  0879               	movf	?___xxtofl+2,w
  3642     04B8  00B4               	movwf	(___fldiv@a+2)^(0+128)
  3643     04B9  0878               	movf	?___xxtofl+1,w
  3644     04BA  00B3               	movwf	(___fldiv@a+1)^(0+128)
  3645     04BB  0877               	movf	?___xxtofl,w
  3646     04BC  00B2               	movwf	___fldiv@a^(0+128)
  3647     04BD  086C               	movf	_right_Joystick_Y^(0+128),w
  3648     04BE  00F7               	movwf	___xxtofl@val
  3649     04BF  086D               	movf	(_right_Joystick_Y+1)^(0+128),w
  3650     04C0  00F8               	movwf	___xxtofl@val+1
  3651     04C1  0D89               	rlf	9,f
  3652     04C2  3B89               	subwfb	9,f
  3653     04C3  0989               	comf	9,f
  3654     04C4  00F9               	movwf	___xxtofl@val+2
  3655     04C5  00FA               	movwf	___xxtofl@val+3
  3656     04C6  3001               	movlw	1
  3657     04C7  3190  20C0  3180   	fcall	___xxtofl
  3658     04CA  087A               	movf	?___xxtofl+3,w
  3659     04CB  0021               	movlb	1	; select bank1
  3660     04CC  00B9               	movwf	(___fldiv@b+3)^(0+128)
  3661     04CD  0879               	movf	?___xxtofl+2,w
  3662     04CE  00B8               	movwf	(___fldiv@b+2)^(0+128)
  3663     04CF  0878               	movf	?___xxtofl+1,w
  3664     04D0  00B7               	movwf	(___fldiv@b+1)^(0+128)
  3665     04D1  0877               	movf	?___xxtofl,w
  3666     04D2  00B6               	movwf	___fldiv@b^(0+128)
  3667     04D3  3192  224A  3180   	fcall	___fldiv
  3668     04D6  0021               	movlb	1	; select bank1
  3669     04D7  0835               	movf	(?___fldiv+3)^(0+128),w
  3670     04D8  00DD               	movwf	(_vectorCalculations$1911+3)^(0+128)
  3671     04D9  0834               	movf	(?___fldiv+2)^(0+128),w
  3672     04DA  00DC               	movwf	(_vectorCalculations$1911+2)^(0+128)
  3673     04DB  0833               	movf	(?___fldiv+1)^(0+128),w
  3674     04DC  00DB               	movwf	(_vectorCalculations$1911+1)^(0+128)
  3675     04DD  0832               	movf	?___fldiv^(0+128),w
  3676     04DE  00DA               	movwf	_vectorCalculations$1911^(0+128)
  3677     04DF                     l4450:
  3678                           
  3679                           ;Rover_Main_Ver01.c: 400:         angle = atanf(((float)right_Joystick_Y / (float)right_
      +                          Joystick_X));
  3680     04DF  085D               	movf	(_vectorCalculations$1911+3)^(0+128),w
  3681     04E0  00CF               	movwf	(atanf@x+3)^(0+128)
  3682     04E1  085C               	movf	(_vectorCalculations$1911+2)^(0+128),w
  3683     04E2  00CE               	movwf	(atanf@x+2)^(0+128)
  3684     04E3  085B               	movf	(_vectorCalculations$1911+1)^(0+128),w
  3685     04E4  00CD               	movwf	(atanf@x+1)^(0+128)
  3686     04E5  085A               	movf	_vectorCalculations$1911^(0+128),w
  3687     04E6  00CC               	movwf	atanf@x^(0+128)
  3688     04E7  318A  2290  3180   	fcall	_atanf
  3689     04EA  0021               	movlb	1	; select bank1
  3690     04EB  084F               	movf	(?_atanf+3)^(0+128),w
  3691     04EC  00EB               	movwf	(_angle+3)^(0+128)
  3692     04ED  084E               	movf	(?_atanf+2)^(0+128),w
  3693     04EE  00EA               	movwf	(_angle+2)^(0+128)
  3694     04EF  084D               	movf	(?_atanf+1)^(0+128),w
  3695     04F0  00E9               	movwf	(_angle+1)^(0+128)
  3696     04F1  084C               	movf	?_atanf^(0+128),w
  3697     04F2  00E8               	movwf	_angle^(0+128)
  3698     04F3                     l4452:
  3699                           
  3700                           ;Rover_Main_Ver01.c: 401:         if(angle > 0){
  3701     04F3  3000               	movlw	0
  3702     04F4  00F4               	movwf	___flge@ff1+3
  3703     04F5  3000               	movlw	0
  3704     04F6  00F3               	movwf	___flge@ff1+2
  3705     04F7  3000               	movlw	0
  3706     04F8  00F2               	movwf	___flge@ff1+1
  3707     04F9  3000               	movlw	0
  3708     04FA  00F1               	movwf	___flge@ff1
  3709     04FB  086B               	movf	(_angle+3)^(0+128),w
  3710     04FC  00F8               	movwf	___flge@ff2+3
  3711     04FD  086A               	movf	(_angle+2)^(0+128),w
  3712     04FE  00F7               	movwf	___flge@ff2+2
  3713     04FF  0869               	movf	(_angle+1)^(0+128),w
  3714     0500  00F6               	movwf	___flge@ff2+1
  3715     0501  0868               	movf	_angle^(0+128),w
  3716     0502  00F5               	movwf	___flge@ff2
  3717     0503  3190  2035  3180   	fcall	___flge
  3718     0506  1803               	btfsc	3,0
  3719     0507  2D09               	goto	u5411
  3720     0508  2D0A               	goto	u5410
  3721     0509                     u5411:
  3722     0509  2E53               	goto	l4466
  3723     050A                     u5410:
  3724     050A                     l4454:
  3725                           
  3726                           ;Rover_Main_Ver01.c: 402:             HAL_LED_ON(1);
  3727     050A  3001               	movlw	1
  3728     050B  00F1               	movwf	HAL_LED_ON@LED
  3729     050C  3000               	movlw	0
  3730     050D  00F2               	movwf	HAL_LED_ON@LED+1
  3731     050E  3190  2014  3180   	fcall	_HAL_LED_ON
  3732     0511                     l4456:
  3733                           
  3734                           ;Rover_Main_Ver01.c: 405:             if(angle < 3.14159265358979323846/4){
  3735     0511  0021               	movlb	1	; select bank1
  3736     0512  086B               	movf	(_angle+3)^(0+128),w
  3737     0513  00F4               	movwf	___flge@ff1+3
  3738     0514  086A               	movf	(_angle+2)^(0+128),w
  3739     0515  00F3               	movwf	___flge@ff1+2
  3740     0516  0869               	movf	(_angle+1)^(0+128),w
  3741     0517  00F2               	movwf	___flge@ff1+1
  3742     0518  0868               	movf	_angle^(0+128),w
  3743     0519  00F1               	movwf	___flge@ff1
  3744     051A  303F               	movlw	63
  3745     051B  00F8               	movwf	___flge@ff2+3
  3746     051C  3049               	movlw	73
  3747     051D  00F7               	movwf	___flge@ff2+2
  3748     051E  300F               	movlw	15
  3749     051F  00F6               	movwf	___flge@ff2+1
  3750     0520  30DB               	movlw	219
  3751     0521  00F5               	movwf	___flge@ff2
  3752     0522  3190  2035  3180   	fcall	___flge
  3753     0525  1803               	btfsc	3,0
  3754     0526  2D28               	goto	u5421
  3755     0527  2D29               	goto	u5420
  3756     0528                     u5421:
  3757     0528  2DC8               	goto	l4462
  3758     0529                     u5420:
  3759     0529                     l4458:
  3760                           
  3761                           ;Rover_Main_Ver01.c: 408:                 speed = ((angle - 3.14159265358979323846/4)*-1
      +                          )*127+ 20;
  3762     0529  30BF               	movlw	191
  3763     052A  0020               	movlb	0	; select bank0
  3764     052B  00E9               	movwf	___flmul@b+3
  3765     052C  3080               	movlw	128
  3766     052D  00E8               	movwf	___flmul@b+2
  3767     052E  3000               	movlw	0
  3768     052F  00E7               	movwf	___flmul@b+1
  3769     0530  3000               	movlw	0
  3770     0531  00E6               	movwf	___flmul@b
  3771     0532  30BF               	movlw	191
  3772     0533  00D5               	movwf	___fladd@b+3
  3773     0534  3049               	movlw	73
  3774     0535  00D4               	movwf	___fladd@b+2
  3775     0536  300F               	movlw	15
  3776     0537  00D3               	movwf	___fladd@b+1
  3777     0538  30DB               	movlw	219
  3778     0539  00D2               	movwf	___fladd@b
  3779     053A  0021               	movlb	1	; select bank1
  3780     053B  086B               	movf	(_angle+3)^(0+128),w
  3781     053C  0020               	movlb	0	; select bank0
  3782     053D  00D9               	movwf	___fladd@a+3
  3783     053E  0021               	movlb	1	; select bank1
  3784     053F  086A               	movf	(_angle+2)^(0+128),w
  3785     0540  0020               	movlb	0	; select bank0
  3786     0541  00D8               	movwf	___fladd@a+2
  3787     0542  0021               	movlb	1	; select bank1
  3788     0543  0869               	movf	(_angle+1)^(0+128),w
  3789     0544  0020               	movlb	0	; select bank0
  3790     0545  00D7               	movwf	___fladd@a+1
  3791     0546  0021               	movlb	1	; select bank1
  3792     0547  0868               	movf	_angle^(0+128),w
  3793     0548  0020               	movlb	0	; select bank0
  3794     0549  00D6               	movwf	___fladd@a
  3795     054A  3195  25F4  3180   	fcall	___fladd
  3796     054D  0020               	movlb	0	; select bank0
  3797     054E  0855               	movf	?___fladd+3,w
  3798     054F  00ED               	movwf	___flmul@a+3
  3799     0550  0854               	movf	?___fladd+2,w
  3800     0551  00EC               	movwf	___flmul@a+2
  3801     0552  0853               	movf	?___fladd+1,w
  3802     0553  00EB               	movwf	___flmul@a+1
  3803     0554  0852               	movf	?___fladd,w
  3804     0555  00EA               	movwf	___flmul@a
  3805     0556  3188  2031  3180   	fcall	___flmul
  3806     0559  0020               	movlb	0	; select bank0
  3807     055A  0869               	movf	?___flmul+3,w
  3808     055B  0021               	movlb	1	; select bank1
  3809     055C  00E1               	movwf	(_vectorCalculations$1912+3)^(0+128)
  3810     055D  0020               	movlb	0	; select bank0
  3811     055E  0868               	movf	?___flmul+2,w
  3812     055F  0021               	movlb	1	; select bank1
  3813     0560  00E0               	movwf	(_vectorCalculations$1912+2)^(0+128)
  3814     0561  0020               	movlb	0	; select bank0
  3815     0562  0867               	movf	?___flmul+1,w
  3816     0563  0021               	movlb	1	; select bank1
  3817     0564  00DF               	movwf	(_vectorCalculations$1912+1)^(0+128)
  3818     0565  0020               	movlb	0	; select bank0
  3819     0566  0866               	movf	?___flmul,w
  3820     0567  0021               	movlb	1	; select bank1
  3821     0568  00DE               	movwf	_vectorCalculations$1912^(0+128)
  3822                           
  3823                           ;Rover_Main_Ver01.c: 408:                 speed = ((angle - 3.14159265358979323846/4)*-1
      +                          )*127+ 20;
  3824     0569  3041               	movlw	65
  3825     056A  0020               	movlb	0	; select bank0
  3826     056B  00D5               	movwf	___fladd@b+3
  3827     056C  30A0               	movlw	160
  3828     056D  00D4               	movwf	___fladd@b+2
  3829     056E  3000               	movlw	0
  3830     056F  00D3               	movwf	___fladd@b+1
  3831     0570  3000               	movlw	0
  3832     0571  00D2               	movwf	___fladd@b
  3833     0572  3042               	movlw	66
  3834     0573  00E9               	movwf	___flmul@b+3
  3835     0574  30FE               	movlw	254
  3836     0575  00E8               	movwf	___flmul@b+2
  3837     0576  3000               	movlw	0
  3838     0577  00E7               	movwf	___flmul@b+1
  3839     0578  3000               	movlw	0
  3840     0579  00E6               	movwf	___flmul@b
  3841     057A  0021               	movlb	1	; select bank1
  3842     057B  0861               	movf	(_vectorCalculations$1912+3)^(0+128),w
  3843     057C  0020               	movlb	0	; select bank0
  3844     057D  00ED               	movwf	___flmul@a+3
  3845     057E  0021               	movlb	1	; select bank1
  3846     057F  0860               	movf	(_vectorCalculations$1912+2)^(0+128),w
  3847     0580  0020               	movlb	0	; select bank0
  3848     0581  00EC               	movwf	___flmul@a+2
  3849     0582  0021               	movlb	1	; select bank1
  3850     0583  085F               	movf	(_vectorCalculations$1912+1)^(0+128),w
  3851     0584  0020               	movlb	0	; select bank0
  3852     0585  00EB               	movwf	___flmul@a+1
  3853     0586  0021               	movlb	1	; select bank1
  3854     0587  085E               	movf	_vectorCalculations$1912^(0+128),w
  3855     0588  0020               	movlb	0	; select bank0
  3856     0589  00EA               	movwf	___flmul@a
  3857     058A  3188  2031  3180   	fcall	___flmul
  3858     058D  0020               	movlb	0	; select bank0
  3859     058E  0869               	movf	?___flmul+3,w
  3860     058F  00D9               	movwf	___fladd@a+3
  3861     0590  0868               	movf	?___flmul+2,w
  3862     0591  00D8               	movwf	___fladd@a+2
  3863     0592  0867               	movf	?___flmul+1,w
  3864     0593  00D7               	movwf	___fladd@a+1
  3865     0594  0866               	movf	?___flmul,w
  3866     0595  00D6               	movwf	___fladd@a
  3867     0596  3195  25F4  3180   	fcall	___fladd
  3868     0599  0020               	movlb	0	; select bank0
  3869     059A  0855               	movf	?___fladd+3,w
  3870     059B  0022               	movlb	2	; select bank2
  3871     059C  00DB               	movwf	(_speed+3)^(0+256)
  3872     059D  0020               	movlb	0	; select bank0
  3873     059E  0854               	movf	?___fladd+2,w
  3874     059F  0022               	movlb	2	; select bank2
  3875     05A0  00DA               	movwf	(_speed+2)^(0+256)
  3876     05A1  0020               	movlb	0	; select bank0
  3877     05A2  0853               	movf	?___fladd+1,w
  3878     05A3  0022               	movlb	2	; select bank2
  3879     05A4  00D9               	movwf	(_speed+1)^(0+256)
  3880     05A5  0020               	movlb	0	; select bank0
  3881     05A6  0852               	movf	?___fladd,w
  3882     05A7  0022               	movlb	2	; select bank2
  3883     05A8  00D8               	movwf	_speed^(0+256)
  3884     05A9                     l4460:
  3885                           
  3886                           ;Rover_Main_Ver01.c: 409:                 MotorSettings(2,speed, 1, magnitude);
  3887     05A9  085B               	movf	(_speed+3)^(0+256),w
  3888     05AA  0020               	movlb	0	; select bank0
  3889     05AB  00E9               	movwf	___fltol@f1+3
  3890     05AC  0022               	movlb	2	; select bank2
  3891     05AD  085A               	movf	(_speed+2)^(0+256),w
  3892     05AE  0020               	movlb	0	; select bank0
  3893     05AF  00E8               	movwf	___fltol@f1+2
  3894     05B0  0022               	movlb	2	; select bank2
  3895     05B1  0859               	movf	(_speed+1)^(0+256),w
  3896     05B2  0020               	movlb	0	; select bank0
  3897     05B3  00E7               	movwf	___fltol@f1+1
  3898     05B4  0022               	movlb	2	; select bank2
  3899     05B5  0858               	movf	_speed^(0+256),w
  3900     05B6  0020               	movlb	0	; select bank0
  3901     05B7  00E6               	movwf	___fltol@f1
  3902     05B8  319F  2712  3180   	fcall	___fltol
  3903     05BB  0020               	movlb	0	; select bank0
  3904     05BC  0866               	movf	?___fltol,w
  3905     05BD  0021               	movlb	1	; select bank1
  3906     05BE  00A0               	movwf	MotorSettings@motorA_pwm^(0+128)
  3907     05BF  01A1               	clrf	MotorSettings@motorB^(0+128)
  3908     05C0  0AA1               	incf	MotorSettings@motorB^(0+128),f
  3909     05C1  0866               	movf	vectorCalculations@magnitude^(0+128),w
  3910     05C2  00A2               	movwf	MotorSettings@motorB_pwm^(0+128)
  3911     05C3  3002               	movlw	2
  3912     05C4  319C  2465  3180   	fcall	_MotorSettings
  3913                           
  3914                           ;Rover_Main_Ver01.c: 410:             }
  3915     05C7  2FCB               	goto	l387
  3916     05C8                     l4462:
  3917                           
  3918                           ;Rover_Main_Ver01.c: 412:                 speed = (angle - 3.14159265358979323846/4)*127
      +                          +20;
  3919     05C8  3042               	movlw	66
  3920     05C9  0020               	movlb	0	; select bank0
  3921     05CA  00E9               	movwf	___flmul@b+3
  3922     05CB  30FE               	movlw	254
  3923     05CC  00E8               	movwf	___flmul@b+2
  3924     05CD  3000               	movlw	0
  3925     05CE  00E7               	movwf	___flmul@b+1
  3926     05CF  3000               	movlw	0
  3927     05D0  00E6               	movwf	___flmul@b
  3928     05D1  30BF               	movlw	191
  3929     05D2  00D5               	movwf	___fladd@b+3
  3930     05D3  3049               	movlw	73
  3931     05D4  00D4               	movwf	___fladd@b+2
  3932     05D5  300F               	movlw	15
  3933     05D6  00D3               	movwf	___fladd@b+1
  3934     05D7  30DB               	movlw	219
  3935     05D8  00D2               	movwf	___fladd@b
  3936     05D9  0021               	movlb	1	; select bank1
  3937     05DA  086B               	movf	(_angle+3)^(0+128),w
  3938     05DB  0020               	movlb	0	; select bank0
  3939     05DC  00D9               	movwf	___fladd@a+3
  3940     05DD  0021               	movlb	1	; select bank1
  3941     05DE  086A               	movf	(_angle+2)^(0+128),w
  3942     05DF  0020               	movlb	0	; select bank0
  3943     05E0  00D8               	movwf	___fladd@a+2
  3944     05E1  0021               	movlb	1	; select bank1
  3945     05E2  0869               	movf	(_angle+1)^(0+128),w
  3946     05E3  0020               	movlb	0	; select bank0
  3947     05E4  00D7               	movwf	___fladd@a+1
  3948     05E5  0021               	movlb	1	; select bank1
  3949     05E6  0868               	movf	_angle^(0+128),w
  3950     05E7  0020               	movlb	0	; select bank0
  3951     05E8  00D6               	movwf	___fladd@a
  3952     05E9  3195  25F4  3180   	fcall	___fladd
  3953     05EC  0020               	movlb	0	; select bank0
  3954     05ED  0855               	movf	?___fladd+3,w
  3955     05EE  00ED               	movwf	___flmul@a+3
  3956     05EF  0854               	movf	?___fladd+2,w
  3957     05F0  00EC               	movwf	___flmul@a+2
  3958     05F1  0853               	movf	?___fladd+1,w
  3959     05F2  00EB               	movwf	___flmul@a+1
  3960     05F3  0852               	movf	?___fladd,w
  3961     05F4  00EA               	movwf	___flmul@a
  3962     05F5  3188  2031  3180   	fcall	___flmul
  3963     05F8  0020               	movlb	0	; select bank0
  3964     05F9  0869               	movf	?___flmul+3,w
  3965     05FA  0021               	movlb	1	; select bank1
  3966     05FB  00E5               	movwf	(_vectorCalculations$1913+3)^(0+128)
  3967     05FC  0020               	movlb	0	; select bank0
  3968     05FD  0868               	movf	?___flmul+2,w
  3969     05FE  0021               	movlb	1	; select bank1
  3970     05FF  00E4               	movwf	(_vectorCalculations$1913+2)^(0+128)
  3971     0600  0020               	movlb	0	; select bank0
  3972     0601  0867               	movf	?___flmul+1,w
  3973     0602  0021               	movlb	1	; select bank1
  3974     0603  00E3               	movwf	(_vectorCalculations$1913+1)^(0+128)
  3975     0604  0020               	movlb	0	; select bank0
  3976     0605  0866               	movf	?___flmul,w
  3977     0606  0021               	movlb	1	; select bank1
  3978     0607  00E2               	movwf	_vectorCalculations$1913^(0+128)
  3979                           
  3980                           ;Rover_Main_Ver01.c: 412:                 speed = (angle - 3.14159265358979323846/4)*127
      +                          +20;
  3981     0608  3041               	movlw	65
  3982     0609  0020               	movlb	0	; select bank0
  3983     060A  00D5               	movwf	___fladd@b+3
  3984     060B  30A0               	movlw	160
  3985     060C  00D4               	movwf	___fladd@b+2
  3986     060D  3000               	movlw	0
  3987     060E  00D3               	movwf	___fladd@b+1
  3988     060F  3000               	movlw	0
  3989     0610  00D2               	movwf	___fladd@b
  3990     0611  0021               	movlb	1	; select bank1
  3991     0612  0865               	movf	(_vectorCalculations$1913+3)^(0+128),w
  3992     0613  0020               	movlb	0	; select bank0
  3993     0614  00D9               	movwf	___fladd@a+3
  3994     0615  0021               	movlb	1	; select bank1
  3995     0616  0864               	movf	(_vectorCalculations$1913+2)^(0+128),w
  3996     0617  0020               	movlb	0	; select bank0
  3997     0618  00D8               	movwf	___fladd@a+2
  3998     0619  0021               	movlb	1	; select bank1
  3999     061A  0863               	movf	(_vectorCalculations$1913+1)^(0+128),w
  4000     061B  0020               	movlb	0	; select bank0
  4001     061C  00D7               	movwf	___fladd@a+1
  4002     061D  0021               	movlb	1	; select bank1
  4003     061E  0862               	movf	_vectorCalculations$1913^(0+128),w
  4004     061F  0020               	movlb	0	; select bank0
  4005     0620  00D6               	movwf	___fladd@a
  4006     0621  3195  25F4  3180   	fcall	___fladd
  4007     0624  0020               	movlb	0	; select bank0
  4008     0625  0855               	movf	?___fladd+3,w
  4009     0626  0022               	movlb	2	; select bank2
  4010     0627  00DB               	movwf	(_speed+3)^(0+256)
  4011     0628  0020               	movlb	0	; select bank0
  4012     0629  0854               	movf	?___fladd+2,w
  4013     062A  0022               	movlb	2	; select bank2
  4014     062B  00DA               	movwf	(_speed+2)^(0+256)
  4015     062C  0020               	movlb	0	; select bank0
  4016     062D  0853               	movf	?___fladd+1,w
  4017     062E  0022               	movlb	2	; select bank2
  4018     062F  00D9               	movwf	(_speed+1)^(0+256)
  4019     0630  0020               	movlb	0	; select bank0
  4020     0631  0852               	movf	?___fladd,w
  4021     0632  0022               	movlb	2	; select bank2
  4022     0633  00D8               	movwf	_speed^(0+256)
  4023     0634                     l4464:
  4024                           
  4025                           ;Rover_Main_Ver01.c: 413:                 MotorSettings(1,speed, 1, magnitude);
  4026     0634  085B               	movf	(_speed+3)^(0+256),w
  4027     0635  0020               	movlb	0	; select bank0
  4028     0636  00E9               	movwf	___fltol@f1+3
  4029     0637  0022               	movlb	2	; select bank2
  4030     0638  085A               	movf	(_speed+2)^(0+256),w
  4031     0639  0020               	movlb	0	; select bank0
  4032     063A  00E8               	movwf	___fltol@f1+2
  4033     063B  0022               	movlb	2	; select bank2
  4034     063C  0859               	movf	(_speed+1)^(0+256),w
  4035     063D  0020               	movlb	0	; select bank0
  4036     063E  00E7               	movwf	___fltol@f1+1
  4037     063F  0022               	movlb	2	; select bank2
  4038     0640  0858               	movf	_speed^(0+256),w
  4039     0641  0020               	movlb	0	; select bank0
  4040     0642  00E6               	movwf	___fltol@f1
  4041     0643  319F  2712  3180   	fcall	___fltol
  4042     0646  0020               	movlb	0	; select bank0
  4043     0647  0866               	movf	?___fltol,w
  4044     0648  0021               	movlb	1	; select bank1
  4045     0649  00A0               	movwf	MotorSettings@motorA_pwm^(0+128)
  4046     064A  01A1               	clrf	MotorSettings@motorB^(0+128)
  4047     064B  0AA1               	incf	MotorSettings@motorB^(0+128),f
  4048     064C  0866               	movf	vectorCalculations@magnitude^(0+128),w
  4049     064D  00A2               	movwf	MotorSettings@motorB_pwm^(0+128)
  4050     064E  3001               	movlw	1
  4051     064F  319C  2465  3180   	fcall	_MotorSettings
  4052     0652  2FCB               	goto	l387
  4053     0653                     l4466:
  4054                           
  4055                           ;Rover_Main_Ver01.c: 417:             angle *= -1;
  4056     0653  30BF               	movlw	191
  4057     0654  0020               	movlb	0	; select bank0
  4058     0655  00E9               	movwf	___flmul@b+3
  4059     0656  3080               	movlw	128
  4060     0657  00E8               	movwf	___flmul@b+2
  4061     0658  3000               	movlw	0
  4062     0659  00E7               	movwf	___flmul@b+1
  4063     065A  3000               	movlw	0
  4064     065B  00E6               	movwf	___flmul@b
  4065     065C  0021               	movlb	1	; select bank1
  4066     065D  086B               	movf	(_angle+3)^(0+128),w
  4067     065E  0020               	movlb	0	; select bank0
  4068     065F  00ED               	movwf	___flmul@a+3
  4069     0660  0021               	movlb	1	; select bank1
  4070     0661  086A               	movf	(_angle+2)^(0+128),w
  4071     0662  0020               	movlb	0	; select bank0
  4072     0663  00EC               	movwf	___flmul@a+2
  4073     0664  0021               	movlb	1	; select bank1
  4074     0665  0869               	movf	(_angle+1)^(0+128),w
  4075     0666  0020               	movlb	0	; select bank0
  4076     0667  00EB               	movwf	___flmul@a+1
  4077     0668  0021               	movlb	1	; select bank1
  4078     0669  0868               	movf	_angle^(0+128),w
  4079     066A  0020               	movlb	0	; select bank0
  4080     066B  00EA               	movwf	___flmul@a
  4081     066C  3188  2031  3180   	fcall	___flmul
  4082     066F  0020               	movlb	0	; select bank0
  4083     0670  0869               	movf	?___flmul+3,w
  4084     0671  0021               	movlb	1	; select bank1
  4085     0672  00EB               	movwf	(_angle+3)^(0+128)
  4086     0673  0020               	movlb	0	; select bank0
  4087     0674  0868               	movf	?___flmul+2,w
  4088     0675  0021               	movlb	1	; select bank1
  4089     0676  00EA               	movwf	(_angle+2)^(0+128)
  4090     0677  0020               	movlb	0	; select bank0
  4091     0678  0867               	movf	?___flmul+1,w
  4092     0679  0021               	movlb	1	; select bank1
  4093     067A  00E9               	movwf	(_angle+1)^(0+128)
  4094     067B  0020               	movlb	0	; select bank0
  4095     067C  0866               	movf	?___flmul,w
  4096     067D  0021               	movlb	1	; select bank1
  4097     067E  00E8               	movwf	_angle^(0+128)
  4098     067F                     l4468:
  4099                           
  4100                           ;Rover_Main_Ver01.c: 418:             HAL_LED_ON(4);
  4101     067F  3004               	movlw	4
  4102     0680  00F1               	movwf	HAL_LED_ON@LED
  4103     0681  3000               	movlw	0
  4104     0682  00F2               	movwf	HAL_LED_ON@LED+1
  4105     0683  3190  2014  3180   	fcall	_HAL_LED_ON
  4106     0686                     l4470:
  4107                           
  4108                           ;Rover_Main_Ver01.c: 420:             if(angle < 3.14159265358979323846/4){
  4109     0686  0021               	movlb	1	; select bank1
  4110     0687  086B               	movf	(_angle+3)^(0+128),w
  4111     0688  00F4               	movwf	___flge@ff1+3
  4112     0689  086A               	movf	(_angle+2)^(0+128),w
  4113     068A  00F3               	movwf	___flge@ff1+2
  4114     068B  0869               	movf	(_angle+1)^(0+128),w
  4115     068C  00F2               	movwf	___flge@ff1+1
  4116     068D  0868               	movf	_angle^(0+128),w
  4117     068E  00F1               	movwf	___flge@ff1
  4118     068F  303F               	movlw	63
  4119     0690  00F8               	movwf	___flge@ff2+3
  4120     0691  3049               	movlw	73
  4121     0692  00F7               	movwf	___flge@ff2+2
  4122     0693  300F               	movlw	15
  4123     0694  00F6               	movwf	___flge@ff2+1
  4124     0695  30DB               	movlw	219
  4125     0696  00F5               	movwf	___flge@ff2
  4126     0697  3190  2035  3180   	fcall	___flge
  4127     069A  1803               	btfsc	3,0
  4128     069B  2E9D               	goto	u5431
  4129     069C  2E9E               	goto	u5430
  4130     069D                     u5431:
  4131     069D  2F3F               	goto	l4476
  4132     069E                     u5430:
  4133     069E                     l4472:
  4134                           
  4135                           ;Rover_Main_Ver01.c: 423:                 speed = ((angle - 3.14159265358979323846/4)*1)
      +                          *127 + 20;
  4136     069E  303F               	movlw	63
  4137     069F  0020               	movlb	0	; select bank0
  4138     06A0  00E9               	movwf	___flmul@b+3
  4139     06A1  3080               	movlw	128
  4140     06A2  00E8               	movwf	___flmul@b+2
  4141     06A3  3000               	movlw	0
  4142     06A4  00E7               	movwf	___flmul@b+1
  4143     06A5  3000               	movlw	0
  4144     06A6  00E6               	movwf	___flmul@b
  4145     06A7  30BF               	movlw	191
  4146     06A8  00D5               	movwf	___fladd@b+3
  4147     06A9  3049               	movlw	73
  4148     06AA  00D4               	movwf	___fladd@b+2
  4149     06AB  300F               	movlw	15
  4150     06AC  00D3               	movwf	___fladd@b+1
  4151     06AD  30DB               	movlw	219
  4152     06AE  00D2               	movwf	___fladd@b
  4153     06AF  0021               	movlb	1	; select bank1
  4154     06B0  086B               	movf	(_angle+3)^(0+128),w
  4155     06B1  0020               	movlb	0	; select bank0
  4156     06B2  00D9               	movwf	___fladd@a+3
  4157     06B3  0021               	movlb	1	; select bank1
  4158     06B4  086A               	movf	(_angle+2)^(0+128),w
  4159     06B5  0020               	movlb	0	; select bank0
  4160     06B6  00D8               	movwf	___fladd@a+2
  4161     06B7  0021               	movlb	1	; select bank1
  4162     06B8  0869               	movf	(_angle+1)^(0+128),w
  4163     06B9  0020               	movlb	0	; select bank0
  4164     06BA  00D7               	movwf	___fladd@a+1
  4165     06BB  0021               	movlb	1	; select bank1
  4166     06BC  0868               	movf	_angle^(0+128),w
  4167     06BD  0020               	movlb	0	; select bank0
  4168     06BE  00D6               	movwf	___fladd@a
  4169     06BF  3195  25F4  3180   	fcall	___fladd
  4170     06C2  0020               	movlb	0	; select bank0
  4171     06C3  0855               	movf	?___fladd+3,w
  4172     06C4  00ED               	movwf	___flmul@a+3
  4173     06C5  0854               	movf	?___fladd+2,w
  4174     06C6  00EC               	movwf	___flmul@a+2
  4175     06C7  0853               	movf	?___fladd+1,w
  4176     06C8  00EB               	movwf	___flmul@a+1
  4177     06C9  0852               	movf	?___fladd,w
  4178     06CA  00EA               	movwf	___flmul@a
  4179     06CB  3188  2031  3180   	fcall	___flmul
  4180     06CE  0020               	movlb	0	; select bank0
  4181     06CF  0869               	movf	?___flmul+3,w
  4182     06D0  0021               	movlb	1	; select bank1
  4183     06D1  00E1               	movwf	(_vectorCalculations$1912+3)^(0+128)
  4184     06D2  0020               	movlb	0	; select bank0
  4185     06D3  0868               	movf	?___flmul+2,w
  4186     06D4  0021               	movlb	1	; select bank1
  4187     06D5  00E0               	movwf	(_vectorCalculations$1912+2)^(0+128)
  4188     06D6  0020               	movlb	0	; select bank0
  4189     06D7  0867               	movf	?___flmul+1,w
  4190     06D8  0021               	movlb	1	; select bank1
  4191     06D9  00DF               	movwf	(_vectorCalculations$1912+1)^(0+128)
  4192     06DA  0020               	movlb	0	; select bank0
  4193     06DB  0866               	movf	?___flmul,w
  4194     06DC  0021               	movlb	1	; select bank1
  4195     06DD  00DE               	movwf	_vectorCalculations$1912^(0+128)
  4196                           
  4197                           ;Rover_Main_Ver01.c: 423:                 speed = ((angle - 3.14159265358979323846/4)*1)
      +                          *127 + 20;
  4198     06DE  3041               	movlw	65
  4199     06DF  0020               	movlb	0	; select bank0
  4200     06E0  00D5               	movwf	___fladd@b+3
  4201     06E1  30A0               	movlw	160
  4202     06E2  00D4               	movwf	___fladd@b+2
  4203     06E3  3000               	movlw	0
  4204     06E4  00D3               	movwf	___fladd@b+1
  4205     06E5  3000               	movlw	0
  4206     06E6  00D2               	movwf	___fladd@b
  4207     06E7  3042               	movlw	66
  4208     06E8  00E9               	movwf	___flmul@b+3
  4209     06E9  30FE               	movlw	254
  4210     06EA  00E8               	movwf	___flmul@b+2
  4211     06EB  3000               	movlw	0
  4212     06EC  00E7               	movwf	___flmul@b+1
  4213     06ED  3000               	movlw	0
  4214     06EE  00E6               	movwf	___flmul@b
  4215     06EF  0021               	movlb	1	; select bank1
  4216     06F0  0861               	movf	(_vectorCalculations$1912+3)^(0+128),w
  4217     06F1  0020               	movlb	0	; select bank0
  4218     06F2  00ED               	movwf	___flmul@a+3
  4219     06F3  0021               	movlb	1	; select bank1
  4220     06F4  0860               	movf	(_vectorCalculations$1912+2)^(0+128),w
  4221     06F5  0020               	movlb	0	; select bank0
  4222     06F6  00EC               	movwf	___flmul@a+2
  4223     06F7  0021               	movlb	1	; select bank1
  4224     06F8  085F               	movf	(_vectorCalculations$1912+1)^(0+128),w
  4225     06F9  0020               	movlb	0	; select bank0
  4226     06FA  00EB               	movwf	___flmul@a+1
  4227     06FB  0021               	movlb	1	; select bank1
  4228     06FC  085E               	movf	_vectorCalculations$1912^(0+128),w
  4229     06FD  0020               	movlb	0	; select bank0
  4230     06FE  00EA               	movwf	___flmul@a
  4231     06FF  3188  2031  3180   	fcall	___flmul
  4232     0702  0020               	movlb	0	; select bank0
  4233     0703  0869               	movf	?___flmul+3,w
  4234     0704  00D9               	movwf	___fladd@a+3
  4235     0705  0868               	movf	?___flmul+2,w
  4236     0706  00D8               	movwf	___fladd@a+2
  4237     0707  0867               	movf	?___flmul+1,w
  4238     0708  00D7               	movwf	___fladd@a+1
  4239     0709  0866               	movf	?___flmul,w
  4240     070A  00D6               	movwf	___fladd@a
  4241     070B  3195  25F4  3180   	fcall	___fladd
  4242     070E  0020               	movlb	0	; select bank0
  4243     070F  0855               	movf	?___fladd+3,w
  4244     0710  0022               	movlb	2	; select bank2
  4245     0711  00DB               	movwf	(_speed+3)^(0+256)
  4246     0712  0020               	movlb	0	; select bank0
  4247     0713  0854               	movf	?___fladd+2,w
  4248     0714  0022               	movlb	2	; select bank2
  4249     0715  00DA               	movwf	(_speed+2)^(0+256)
  4250     0716  0020               	movlb	0	; select bank0
  4251     0717  0853               	movf	?___fladd+1,w
  4252     0718  0022               	movlb	2	; select bank2
  4253     0719  00D9               	movwf	(_speed+1)^(0+256)
  4254     071A  0020               	movlb	0	; select bank0
  4255     071B  0852               	movf	?___fladd,w
  4256     071C  0022               	movlb	2	; select bank2
  4257     071D  00D8               	movwf	_speed^(0+256)
  4258     071E                     l4474:
  4259                           
  4260                           ;Rover_Main_Ver01.c: 424:                 MotorSettings(2,magnitude, 1, speed);
  4261     071E  0021               	movlb	1	; select bank1
  4262     071F  0866               	movf	vectorCalculations@magnitude^(0+128),w
  4263     0720  00A0               	movwf	MotorSettings@motorA_pwm^(0+128)
  4264     0721  01A1               	clrf	MotorSettings@motorB^(0+128)
  4265     0722  0AA1               	incf	MotorSettings@motorB^(0+128),f
  4266     0723  0022               	movlb	2	; select bank2
  4267     0724  085B               	movf	(_speed+3)^(0+256),w
  4268     0725  0020               	movlb	0	; select bank0
  4269     0726  00E9               	movwf	___fltol@f1+3
  4270     0727  0022               	movlb	2	; select bank2
  4271     0728  085A               	movf	(_speed+2)^(0+256),w
  4272     0729  0020               	movlb	0	; select bank0
  4273     072A  00E8               	movwf	___fltol@f1+2
  4274     072B  0022               	movlb	2	; select bank2
  4275     072C  0859               	movf	(_speed+1)^(0+256),w
  4276     072D  0020               	movlb	0	; select bank0
  4277     072E  00E7               	movwf	___fltol@f1+1
  4278     072F  0022               	movlb	2	; select bank2
  4279     0730  0858               	movf	_speed^(0+256),w
  4280     0731  0020               	movlb	0	; select bank0
  4281     0732  00E6               	movwf	___fltol@f1
  4282     0733  319F  2712  3180   	fcall	___fltol
  4283     0736  0020               	movlb	0	; select bank0
  4284     0737  0866               	movf	?___fltol,w
  4285     0738  0021               	movlb	1	; select bank1
  4286     0739  00A2               	movwf	MotorSettings@motorB_pwm^(0+128)
  4287     073A  3002               	movlw	2
  4288     073B  319C  2465  3180   	fcall	_MotorSettings
  4289                           
  4290                           ;Rover_Main_Ver01.c: 425:             }
  4291     073E  2FCB               	goto	l387
  4292     073F                     l4476:
  4293                           
  4294                           ;Rover_Main_Ver01.c: 427:                 speed = (angle - 3.14159265358979323846/4)*127
      +                           + 20;
  4295     073F  3042               	movlw	66
  4296     0740  0020               	movlb	0	; select bank0
  4297     0741  00E9               	movwf	___flmul@b+3
  4298     0742  30FE               	movlw	254
  4299     0743  00E8               	movwf	___flmul@b+2
  4300     0744  3000               	movlw	0
  4301     0745  00E7               	movwf	___flmul@b+1
  4302     0746  3000               	movlw	0
  4303     0747  00E6               	movwf	___flmul@b
  4304     0748  30BF               	movlw	191
  4305     0749  00D5               	movwf	___fladd@b+3
  4306     074A  3049               	movlw	73
  4307     074B  00D4               	movwf	___fladd@b+2
  4308     074C  300F               	movlw	15
  4309     074D  00D3               	movwf	___fladd@b+1
  4310     074E  30DB               	movlw	219
  4311     074F  00D2               	movwf	___fladd@b
  4312     0750  0021               	movlb	1	; select bank1
  4313     0751  086B               	movf	(_angle+3)^(0+128),w
  4314     0752  0020               	movlb	0	; select bank0
  4315     0753  00D9               	movwf	___fladd@a+3
  4316     0754  0021               	movlb	1	; select bank1
  4317     0755  086A               	movf	(_angle+2)^(0+128),w
  4318     0756  0020               	movlb	0	; select bank0
  4319     0757  00D8               	movwf	___fladd@a+2
  4320     0758  0021               	movlb	1	; select bank1
  4321     0759  0869               	movf	(_angle+1)^(0+128),w
  4322     075A  0020               	movlb	0	; select bank0
  4323     075B  00D7               	movwf	___fladd@a+1
  4324     075C  0021               	movlb	1	; select bank1
  4325     075D  0868               	movf	_angle^(0+128),w
  4326     075E  0020               	movlb	0	; select bank0
  4327     075F  00D6               	movwf	___fladd@a
  4328     0760  3195  25F4  3180   	fcall	___fladd
  4329     0763  0020               	movlb	0	; select bank0
  4330     0764  0855               	movf	?___fladd+3,w
  4331     0765  00ED               	movwf	___flmul@a+3
  4332     0766  0854               	movf	?___fladd+2,w
  4333     0767  00EC               	movwf	___flmul@a+2
  4334     0768  0853               	movf	?___fladd+1,w
  4335     0769  00EB               	movwf	___flmul@a+1
  4336     076A  0852               	movf	?___fladd,w
  4337     076B  00EA               	movwf	___flmul@a
  4338     076C  3188  2031  3180   	fcall	___flmul
  4339     076F  0020               	movlb	0	; select bank0
  4340     0770  0869               	movf	?___flmul+3,w
  4341     0771  0021               	movlb	1	; select bank1
  4342     0772  00E5               	movwf	(_vectorCalculations$1913+3)^(0+128)
  4343     0773  0020               	movlb	0	; select bank0
  4344     0774  0868               	movf	?___flmul+2,w
  4345     0775  0021               	movlb	1	; select bank1
  4346     0776  00E4               	movwf	(_vectorCalculations$1913+2)^(0+128)
  4347     0777  0020               	movlb	0	; select bank0
  4348     0778  0867               	movf	?___flmul+1,w
  4349     0779  0021               	movlb	1	; select bank1
  4350     077A  00E3               	movwf	(_vectorCalculations$1913+1)^(0+128)
  4351     077B  0020               	movlb	0	; select bank0
  4352     077C  0866               	movf	?___flmul,w
  4353     077D  0021               	movlb	1	; select bank1
  4354     077E  00E2               	movwf	_vectorCalculations$1913^(0+128)
  4355                           
  4356                           ;Rover_Main_Ver01.c: 427:                 speed = (angle - 3.14159265358979323846/4)*127
      +                           + 20;
  4357     077F  3041               	movlw	65
  4358     0780  0020               	movlb	0	; select bank0
  4359     0781  00D5               	movwf	___fladd@b+3
  4360     0782  30A0               	movlw	160
  4361     0783  00D4               	movwf	___fladd@b+2
  4362     0784  3000               	movlw	0
  4363     0785  00D3               	movwf	___fladd@b+1
  4364     0786  3000               	movlw	0
  4365     0787  00D2               	movwf	___fladd@b
  4366     0788  0021               	movlb	1	; select bank1
  4367     0789  0865               	movf	(_vectorCalculations$1913+3)^(0+128),w
  4368     078A  0020               	movlb	0	; select bank0
  4369     078B  00D9               	movwf	___fladd@a+3
  4370     078C  0021               	movlb	1	; select bank1
  4371     078D  0864               	movf	(_vectorCalculations$1913+2)^(0+128),w
  4372     078E  0020               	movlb	0	; select bank0
  4373     078F  00D8               	movwf	___fladd@a+2
  4374     0790  0021               	movlb	1	; select bank1
  4375     0791  0863               	movf	(_vectorCalculations$1913+1)^(0+128),w
  4376     0792  0020               	movlb	0	; select bank0
  4377     0793  00D7               	movwf	___fladd@a+1
  4378     0794  0021               	movlb	1	; select bank1
  4379     0795  0862               	movf	_vectorCalculations$1913^(0+128),w
  4380     0796  0020               	movlb	0	; select bank0
  4381     0797  00D6               	movwf	___fladd@a
  4382     0798  3195  25F4  3180   	fcall	___fladd
  4383     079B  0020               	movlb	0	; select bank0
  4384     079C  0855               	movf	?___fladd+3,w
  4385     079D  0022               	movlb	2	; select bank2
  4386     079E  00DB               	movwf	(_speed+3)^(0+256)
  4387     079F  0020               	movlb	0	; select bank0
  4388     07A0  0854               	movf	?___fladd+2,w
  4389     07A1  0022               	movlb	2	; select bank2
  4390     07A2  00DA               	movwf	(_speed+2)^(0+256)
  4391     07A3  0020               	movlb	0	; select bank0
  4392     07A4  0853               	movf	?___fladd+1,w
  4393     07A5  0022               	movlb	2	; select bank2
  4394     07A6  00D9               	movwf	(_speed+1)^(0+256)
  4395     07A7  0020               	movlb	0	; select bank0
  4396     07A8  0852               	movf	?___fladd,w
  4397     07A9  0022               	movlb	2	; select bank2
  4398     07AA  00D8               	movwf	_speed^(0+256)
  4399     07AB                     l4478:
  4400                           
  4401                           ;Rover_Main_Ver01.c: 428:                 MotorSettings(2,magnitude, 2, speed);
  4402     07AB  0021               	movlb	1	; select bank1
  4403     07AC  0866               	movf	vectorCalculations@magnitude^(0+128),w
  4404     07AD  00A0               	movwf	MotorSettings@motorA_pwm^(0+128)
  4405     07AE  3002               	movlw	2
  4406     07AF  00A1               	movwf	MotorSettings@motorB^(0+128)
  4407     07B0  0022               	movlb	2	; select bank2
  4408     07B1  085B               	movf	(_speed+3)^(0+256),w
  4409     07B2  0020               	movlb	0	; select bank0
  4410     07B3  00E9               	movwf	___fltol@f1+3
  4411     07B4  0022               	movlb	2	; select bank2
  4412     07B5  085A               	movf	(_speed+2)^(0+256),w
  4413     07B6  0020               	movlb	0	; select bank0
  4414     07B7  00E8               	movwf	___fltol@f1+2
  4415     07B8  0022               	movlb	2	; select bank2
  4416     07B9  0859               	movf	(_speed+1)^(0+256),w
  4417     07BA  0020               	movlb	0	; select bank0
  4418     07BB  00E7               	movwf	___fltol@f1+1
  4419     07BC  0022               	movlb	2	; select bank2
  4420     07BD  0858               	movf	_speed^(0+256),w
  4421     07BE  0020               	movlb	0	; select bank0
  4422     07BF  00E6               	movwf	___fltol@f1
  4423     07C0  319F  2712  3180   	fcall	___fltol
  4424     07C3  0020               	movlb	0	; select bank0
  4425     07C4  0866               	movf	?___fltol,w
  4426     07C5  0021               	movlb	1	; select bank1
  4427     07C6  00A2               	movwf	MotorSettings@motorB_pwm^(0+128)
  4428     07C7  3002               	movlw	2
  4429     07C8  319C  2465  3180   	fcall	_MotorSettings
  4430     07CB                     l387:
  4431     07CB  0008               	return
  4432     07CC                     __end_of_vectorCalculations:
  4433                           
  4434                           	psect	text2
  4435     13EE                     __ptext2:	
  4436 ;; *************** function _sqrtf *****************
  4437 ;; Defined at:
  4438 ;;		line 24 in file "C:\Program Files\Microchip\xc8\v3.00\pic\sources\c99\common\sqrtf.c"
  4439 ;; Parameters:    Size  Location     Type
  4440 ;;  x               4   10[BANK0 ] float 
  4441 ;; Auto vars:     Size  Location     Type
  4442 ;;  ix              4   46[BANK0 ] struct .
  4443 ;;  r               4   42[BANK0 ] unsigned long 
  4444 ;;  m               4   38[BANK0 ] long 
  4445 ;;  t               4   34[BANK0 ] long 
  4446 ;;  q               4   30[BANK0 ] long 
  4447 ;;  i               4   26[BANK0 ] long 
  4448 ;;  s               4   22[BANK0 ] long 
  4449 ;;  z               4    0        float 
  4450 ;; Return value:  Size  Location     Type
  4451 ;;                  4   10[BANK0 ] float 
  4452 ;; Registers used:
  4453 ;;		wreg, status,2, status,0
  4454 ;; Tracked objects:
  4455 ;;		On entry : 0/0
  4456 ;;		On exit  : 0/0
  4457 ;;		Unchanged: 0/0
  4458 ;; Data sizes:     COMMON   BANK0   BANK1   BANK2   BANK3   BANK4   BANK5   BANK6   BANK7   BANK8   BANK9  BANK10  BANK1
      +1  BANK12
  4459 ;;      Params:         0       4       0       0       0       0       0       0       0       0       0       0       
      +0       0
  4460 ;;      Locals:         0      28       0       0       0       0       0       0       0       0       0       0       
      +0       0
  4461 ;;      Temps:          0       8       0       0       0       0       0       0       0       0       0       0       
      +0       0
  4462 ;;      Totals:         0      40       0       0       0       0       0       0       0       0       0       0       
      +0       0
  4463 ;;Total ram usage:       40 bytes
  4464 ;; Hardware stack levels used: 1
  4465 ;; Hardware stack levels required when called: 1
  4466 ;; This function calls:
  4467 ;;		Nothing
  4468 ;; This function is called by:
  4469 ;;		_vectorCalculations
  4470 ;; This function uses a non-reentrant model
  4471 ;;
  4472                           
  4473     13EE                     _sqrtf:	
  4474                           ;psect for function _sqrtf
  4475                           
  4476     13EE                     l3372:	
  4477                           ;incstack = 0
  4478                           ; Regs used in _sqrtf: [wreg+status,2+status,0]
  4479                           
  4480     13EE  0020               	movlb	0	; select bank0
  4481     13EF  082D               	movf	sqrtf@x+3,w
  4482     13F0  00D1               	movwf	sqrtf@ix+3
  4483     13F1  082C               	movf	sqrtf@x+2,w
  4484     13F2  00D0               	movwf	sqrtf@ix+2
  4485     13F3  082B               	movf	sqrtf@x+1,w
  4486     13F4  00CF               	movwf	sqrtf@ix+1
  4487     13F5  082A               	movf	sqrtf@x,w
  4488     13F6  00CE               	movwf	sqrtf@ix
  4489     13F7                     l3374:
  4490     13F7  3000               	movlw	0
  4491     13F8  054E               	andwf	sqrtf@ix,w
  4492     13F9  00AE               	movwf	??_sqrtf
  4493     13FA  3000               	movlw	0
  4494     13FB  054F               	andwf	sqrtf@ix+1,w
  4495     13FC  00AF               	movwf	??_sqrtf+1
  4496     13FD  3080               	movlw	128
  4497     13FE  0550               	andwf	sqrtf@ix+2,w
  4498     13FF  00B0               	movwf	??_sqrtf+2
  4499     1400  307F               	movlw	127
  4500     1401  0551               	andwf	sqrtf@ix+3,w
  4501     1402  00B1               	movwf	??_sqrtf+3
  4502     1403  3080               	movlw	128
  4503     1404  0630               	xorwf	??_sqrtf+2,w
  4504     1405  307F               	movlw	127
  4505     1406  1903               	skipnz
  4506     1407  0631               	xorwf	??_sqrtf+3,w
  4507     1408  042E               	iorwf	??_sqrtf,w
  4508     1409  042F               	iorwf	??_sqrtf+1,w
  4509     140A  1D03               	btfss	3,2
  4510     140B  2C0D               	goto	u3781
  4511     140C  2C0E               	goto	u3780
  4512     140D                     u3781:
  4513     140D  2C38               	goto	l3384
  4514     140E                     u3780:
  4515     140E                     l3376:
  4516     140E  30FF               	movlw	255
  4517     140F  0020               	movlb	0	; select bank0
  4518     1410  054E               	andwf	sqrtf@ix,w
  4519     1411  00AE               	movwf	??_sqrtf
  4520     1412  30FF               	movlw	255
  4521     1413  054F               	andwf	sqrtf@ix+1,w
  4522     1414  00AF               	movwf	??_sqrtf+1
  4523     1415  307F               	movlw	127
  4524     1416  0550               	andwf	sqrtf@ix+2,w
  4525     1417  00B0               	movwf	??_sqrtf+2
  4526     1418  3000               	movlw	0
  4527     1419  0551               	andwf	sqrtf@ix+3,w
  4528     141A  00B1               	movwf	??_sqrtf+3
  4529     141B  0831               	movf	??_sqrtf+3,w
  4530     141C  0430               	iorwf	??_sqrtf+2,w
  4531     141D  042F               	iorwf	??_sqrtf+1,w
  4532     141E  042E               	iorwf	??_sqrtf,w
  4533     141F  1D03               	skipz
  4534     1420  2C22               	goto	u3791
  4535     1421  2C23               	goto	u3790
  4536     1422                     u3791:
  4537     1422  2C27               	goto	l3380
  4538     1423                     u3790:
  4539     1423                     l3378:
  4540     1423  1FD1               	btfss	sqrtf@ix+3,7
  4541     1424  2C26               	goto	u3801
  4542     1425  2C27               	goto	u3800
  4543     1426                     u3801:
  4544     1426  2C2F               	goto	l1134
  4545     1427                     u3800:
  4546     1427                     l3380:
  4547     1427  30FF               	movlw	255
  4548     1428  04CE               	iorwf	sqrtf@ix,f
  4549     1429  30FF               	movlw	255
  4550     142A  04CF               	iorwf	sqrtf@ix+1,f
  4551     142B  307F               	movlw	127
  4552     142C  04D0               	iorwf	sqrtf@ix+2,f
  4553     142D  3000               	movlw	0
  4554     142E  04D1               	iorwf	sqrtf@ix+3,f
  4555     142F                     l1134:
  4556     142F  0851               	movf	sqrtf@ix+3,w
  4557     1430  00AD               	movwf	?_sqrtf+3
  4558     1431  0850               	movf	sqrtf@ix+2,w
  4559     1432  00AC               	movwf	?_sqrtf+2
  4560     1433  084F               	movf	sqrtf@ix+1,w
  4561     1434  00AB               	movwf	?_sqrtf+1
  4562     1435  084E               	movf	sqrtf@ix,w
  4563     1436  00AA               	movwf	?_sqrtf
  4564     1437  2DF3               	goto	l1137
  4565     1438                     l3384:
  4566     1438  0020               	movlb	0	; select bank0
  4567     1439  1BD1               	btfsc	sqrtf@ix+3,7
  4568     143A  2C4A               	goto	u3810
  4569     143B  0851               	movf	sqrtf@ix+3,w
  4570     143C  1D03               	btfss	3,2
  4571     143D  2C49               	goto	u3811
  4572     143E  0850               	movf	sqrtf@ix+2,w
  4573     143F  1D03               	btfss	3,2
  4574     1440  2C49               	goto	u3811
  4575     1441  084F               	movf	sqrtf@ix+1,w
  4576     1442  1D03               	btfss	3,2
  4577     1443  2C49               	goto	u3811
  4578     1444  3001               	movlw	1
  4579     1445  024E               	subwf	sqrtf@ix,w
  4580     1446  1803               	btfsc	3,0
  4581     1447  2C49               	goto	u3811
  4582     1448  2C4A               	goto	u3810
  4583     1449                     u3811:
  4584     1449  2C83               	goto	l3396
  4585     144A                     u3810:
  4586     144A                     l3386:
  4587     144A  30FF               	movlw	255
  4588     144B  0020               	movlb	0	; select bank0
  4589     144C  054E               	andwf	sqrtf@ix,w
  4590     144D  00AE               	movwf	??_sqrtf
  4591     144E  30FF               	movlw	255
  4592     144F  054F               	andwf	sqrtf@ix+1,w
  4593     1450  00AF               	movwf	??_sqrtf+1
  4594     1451  30FF               	movlw	255
  4595     1452  0550               	andwf	sqrtf@ix+2,w
  4596     1453  00B0               	movwf	??_sqrtf+2
  4597     1454  307F               	movlw	127
  4598     1455  0551               	andwf	sqrtf@ix+3,w
  4599     1456  00B1               	movwf	??_sqrtf+3
  4600     1457  0831               	movf	??_sqrtf+3,w
  4601     1458  0430               	iorwf	??_sqrtf+2,w
  4602     1459  042F               	iorwf	??_sqrtf+1,w
  4603     145A  042E               	iorwf	??_sqrtf,w
  4604     145B  1D03               	skipz
  4605     145C  2C5E               	goto	u3821
  4606     145D  2C5F               	goto	u3820
  4607     145E                     u3821:
  4608     145E  2C68               	goto	l1139
  4609     145F                     u3820:
  4610     145F                     l3388:
  4611     145F  3000               	movlw	0
  4612     1460  00AD               	movwf	?_sqrtf+3
  4613     1461  3000               	movlw	0
  4614     1462  00AC               	movwf	?_sqrtf+2
  4615     1463  3000               	movlw	0
  4616     1464  00AB               	movwf	?_sqrtf+1
  4617     1465  3000               	movlw	0
  4618     1466  00AA               	movwf	?_sqrtf
  4619     1467  2DF3               	goto	l1137
  4620     1468                     l1139:
  4621     1468  1FD1               	btfss	sqrtf@ix+3,7
  4622     1469  2C6B               	goto	u3831
  4623     146A  2C6C               	goto	u3830
  4624     146B                     u3831:
  4625     146B  2C83               	goto	l3396
  4626     146C                     u3830:
  4627     146C                     l3392:
  4628     146C  3021               	movlw	33
  4629     146D  0022               	movlb	2	; select bank2
  4630     146E  00DC               	movwf	_errno^(0+256)
  4631     146F  3000               	movlw	0
  4632     1470  00DD               	movwf	(_errno^(0+256)+1)
  4633     1471  307F               	movlw	127
  4634     1472  0020               	movlb	0	; select bank0
  4635     1473  00D1               	movwf	sqrtf@ix+3
  4636     1474  30FF               	movlw	255
  4637     1475  00D0               	movwf	sqrtf@ix+2
  4638     1476  30FF               	movlw	255
  4639     1477  00CF               	movwf	sqrtf@ix+1
  4640     1478  30FF               	movlw	255
  4641     1479  00CE               	movwf	sqrtf@ix
  4642     147A  0851               	movf	sqrtf@ix+3,w
  4643     147B  00AD               	movwf	?_sqrtf+3
  4644     147C  0850               	movf	sqrtf@ix+2,w
  4645     147D  00AC               	movwf	?_sqrtf+2
  4646     147E  084F               	movf	sqrtf@ix+1,w
  4647     147F  00AB               	movwf	?_sqrtf+1
  4648     1480  084E               	movf	sqrtf@ix,w
  4649     1481  00AA               	movwf	?_sqrtf
  4650     1482  2DF3               	goto	l1137
  4651     1483                     l3396:
  4652     1483  0020               	movlb	0	; select bank0
  4653     1484  084E               	movf	sqrtf@ix,w
  4654     1485  00AE               	movwf	??_sqrtf
  4655     1486  084F               	movf	sqrtf@ix+1,w
  4656     1487  00AF               	movwf	??_sqrtf+1
  4657     1488  0850               	movf	sqrtf@ix+2,w
  4658     1489  00B0               	movwf	??_sqrtf+2
  4659     148A  0851               	movf	sqrtf@ix+3,w
  4660     148B  00B1               	movwf	??_sqrtf+3
  4661     148C  3017               	movlw	23
  4662     148D  00B2               	movwf	??_sqrtf+4
  4663     148E                     u3845:
  4664     148E  37B1               	asrf	??_sqrtf+3,f
  4665     148F  0CB0               	rrf	??_sqrtf+2,f
  4666     1490  0CAF               	rrf	??_sqrtf+1,f
  4667     1491  0CAE               	rrf	??_sqrtf,f
  4668     1492                     u3840:
  4669     1492  0BB2               	decfsz	??_sqrtf+4,f
  4670     1493  2C8E               	goto	u3845
  4671     1494  0831               	movf	??_sqrtf+3,w
  4672     1495  00C9               	movwf	sqrtf@m+3
  4673     1496  0830               	movf	??_sqrtf+2,w
  4674     1497  00C8               	movwf	sqrtf@m+2
  4675     1498  082F               	movf	??_sqrtf+1,w
  4676     1499  00C7               	movwf	sqrtf@m+1
  4677     149A  082E               	movf	??_sqrtf,w
  4678     149B  00C6               	movwf	sqrtf@m
  4679     149C                     l3398:
  4680     149C  0849               	movf	sqrtf@m+3,w
  4681     149D  0448               	iorwf	sqrtf@m+2,w
  4682     149E  0447               	iorwf	sqrtf@m+1,w
  4683     149F  0446               	iorwf	sqrtf@m,w
  4684     14A0  1D03               	skipz
  4685     14A1  2CA3               	goto	u3851
  4686     14A2  2CA4               	goto	u3850
  4687     14A3                     u3851:
  4688     14A3  2CD6               	goto	l1141
  4689     14A4                     u3850:
  4690     14A4                     l3400:
  4691     14A4  3000               	movlw	0
  4692     14A5  00BD               	movwf	sqrtf@i+3
  4693     14A6  3000               	movlw	0
  4694     14A7  00BC               	movwf	sqrtf@i+2
  4695     14A8  3000               	movlw	0
  4696     14A9  00BB               	movwf	sqrtf@i+1
  4697     14AA  3000               	movlw	0
  4698     14AB  00BA               	movwf	sqrtf@i
  4699     14AC  2CBA               	goto	l3404
  4700     14AD                     l3402:
  4701     14AD  3001               	movlw	1
  4702     14AE                     u3865:
  4703     14AE  35CE               	lslf	sqrtf@ix,f
  4704     14AF  0DCF               	rlf	sqrtf@ix+1,f
  4705     14B0  0DD0               	rlf	sqrtf@ix+2,f
  4706     14B1  0DD1               	rlf	sqrtf@ix+3,f
  4707     14B2  0B89               	decfsz	9,f
  4708     14B3  2CAE               	goto	u3865
  4709     14B4  3001               	movlw	1
  4710     14B5  07BA               	addwf	sqrtf@i,f
  4711     14B6  3000               	movlw	0
  4712     14B7  3DBB               	addwfc	sqrtf@i+1,f
  4713     14B8  3DBC               	addwfc	sqrtf@i+2,f
  4714     14B9  3DBD               	addwfc	sqrtf@i+3,f
  4715     14BA                     l3404:
  4716     14BA  1FD0               	btfss	sqrtf@ix+2,7
  4717     14BB  2CBD               	goto	u3871
  4718     14BC  2CBE               	goto	u3870
  4719     14BD                     u3871:
  4720     14BD  2CAD               	goto	l3402
  4721     14BE                     u3870:
  4722     14BE                     l3406:
  4723     14BE  30FF               	movlw	255
  4724     14BF  00AE               	movwf	??_sqrtf
  4725     14C0  30FF               	movlw	255
  4726     14C1  00AF               	movwf	??_sqrtf+1
  4727     14C2  30FF               	movlw	255
  4728     14C3  00B0               	movwf	??_sqrtf+2
  4729     14C4  30FF               	movlw	255
  4730     14C5  00B1               	movwf	??_sqrtf+3
  4731     14C6  083A               	movf	sqrtf@i,w
  4732     14C7  07AE               	addwf	??_sqrtf,f
  4733     14C8  083B               	movf	sqrtf@i+1,w
  4734     14C9  3DAF               	addwfc	??_sqrtf+1,f
  4735     14CA  083C               	movf	sqrtf@i+2,w
  4736     14CB  3DB0               	addwfc	??_sqrtf+2,f
  4737     14CC  083D               	movf	sqrtf@i+3,w
  4738     14CD  3DB1               	addwfc	??_sqrtf+3,f
  4739     14CE  082E               	movf	??_sqrtf,w
  4740     14CF  02C6               	subwf	sqrtf@m,f
  4741     14D0  082F               	movf	??_sqrtf+1,w
  4742     14D1  3BC7               	subwfb	sqrtf@m+1,f
  4743     14D2  0830               	movf	??_sqrtf+2,w
  4744     14D3  3BC8               	subwfb	sqrtf@m+2,f
  4745     14D4  0831               	movf	??_sqrtf+3,w
  4746     14D5  3BC9               	subwfb	sqrtf@m+3,f
  4747     14D6                     l1141:
  4748     14D6  3081               	movlw	129
  4749     14D7  07C6               	addwf	sqrtf@m,f
  4750     14D8  30FF               	movlw	255
  4751     14D9  3DC7               	addwfc	sqrtf@m+1,f
  4752     14DA  30FF               	movlw	255
  4753     14DB  3DC8               	addwfc	sqrtf@m+2,f
  4754     14DC  30FF               	movlw	255
  4755     14DD  3DC9               	addwfc	sqrtf@m+3,f
  4756     14DE  3000               	movlw	0
  4757     14DF  00AE               	movwf	??_sqrtf
  4758     14E0  3000               	movlw	0
  4759     14E1  00AF               	movwf	??_sqrtf+1
  4760     14E2  3080               	movlw	128
  4761     14E3  00B0               	movwf	??_sqrtf+2
  4762     14E4  3000               	movlw	0
  4763     14E5  00B1               	movwf	??_sqrtf+3
  4764     14E6  30FF               	movlw	255
  4765     14E7  054E               	andwf	sqrtf@ix,w
  4766     14E8  00B2               	movwf	??_sqrtf+4
  4767     14E9  30FF               	movlw	255
  4768     14EA  054F               	andwf	sqrtf@ix+1,w
  4769     14EB  00B3               	movwf	??_sqrtf+5
  4770     14EC  307F               	movlw	127
  4771     14ED  0550               	andwf	sqrtf@ix+2,w
  4772     14EE  00B4               	movwf	??_sqrtf+6
  4773     14EF  3000               	movlw	0
  4774     14F0  0551               	andwf	sqrtf@ix+3,w
  4775     14F1  00B5               	movwf	??_sqrtf+7
  4776     14F2  0832               	movf	??_sqrtf+4,w
  4777     14F3  04AE               	iorwf	??_sqrtf,f
  4778     14F4  0833               	movf	??_sqrtf+5,w
  4779     14F5  04AF               	iorwf	??_sqrtf+1,f
  4780     14F6  0834               	movf	??_sqrtf+6,w
  4781     14F7  04B0               	iorwf	??_sqrtf+2,f
  4782     14F8  0835               	movf	??_sqrtf+7,w
  4783     14F9  04B1               	iorwf	??_sqrtf+3,f
  4784     14FA  0831               	movf	??_sqrtf+3,w
  4785     14FB  00D1               	movwf	sqrtf@ix+3
  4786     14FC  0830               	movf	??_sqrtf+2,w
  4787     14FD  00D0               	movwf	sqrtf@ix+2
  4788     14FE  082F               	movf	??_sqrtf+1,w
  4789     14FF  00CF               	movwf	sqrtf@ix+1
  4790     1500  082E               	movf	??_sqrtf,w
  4791     1501  00CE               	movwf	sqrtf@ix
  4792     1502                     l3408:
  4793     1502  1C46               	btfss	sqrtf@m,0
  4794     1503  2D05               	goto	u3881
  4795     1504  2D06               	goto	u3880
  4796     1505                     u3881:
  4797     1505  2D0E               	goto	l1145
  4798     1506                     u3880:
  4799     1506                     l3410:
  4800     1506  084E               	movf	sqrtf@ix,w
  4801     1507  07CE               	addwf	sqrtf@ix,f
  4802     1508  084F               	movf	sqrtf@ix+1,w
  4803     1509  3DCF               	addwfc	sqrtf@ix+1,f
  4804     150A  0850               	movf	sqrtf@ix+2,w
  4805     150B  3DD0               	addwfc	sqrtf@ix+2,f
  4806     150C  0851               	movf	sqrtf@ix+3,w
  4807     150D  3DD1               	addwfc	sqrtf@ix+3,f
  4808     150E                     l1145:
  4809     150E  3001               	movlw	1
  4810     150F  00AE               	movwf	??_sqrtf
  4811     1510                     u3895:
  4812     1510  37C9               	asrf	sqrtf@m+3,f
  4813     1511  0CC8               	rrf	sqrtf@m+2,f
  4814     1512  0CC7               	rrf	sqrtf@m+1,f
  4815     1513  0CC6               	rrf	sqrtf@m,f
  4816     1514  0BAE               	decfsz	??_sqrtf& (0+127),f
  4817     1515  2D10               	goto	u3895
  4818     1516  084E               	movf	sqrtf@ix,w
  4819     1517  07CE               	addwf	sqrtf@ix,f
  4820     1518  084F               	movf	sqrtf@ix+1,w
  4821     1519  3DCF               	addwfc	sqrtf@ix+1,f
  4822     151A  0850               	movf	sqrtf@ix+2,w
  4823     151B  3DD0               	addwfc	sqrtf@ix+2,f
  4824     151C  0851               	movf	sqrtf@ix+3,w
  4825     151D  3DD1               	addwfc	sqrtf@ix+3,f
  4826     151E  3000               	movlw	0
  4827     151F  00B9               	movwf	sqrtf@s+3
  4828     1520  3000               	movlw	0
  4829     1521  00B8               	movwf	sqrtf@s+2
  4830     1522  3000               	movlw	0
  4831     1523  00B7               	movwf	sqrtf@s+1
  4832     1524  3000               	movlw	0
  4833     1525  00B6               	movwf	sqrtf@s
  4834     1526  0839               	movf	sqrtf@s+3,w
  4835     1527  00C1               	movwf	sqrtf@q+3
  4836     1528  0838               	movf	sqrtf@s+2,w
  4837     1529  00C0               	movwf	sqrtf@q+2
  4838     152A  0837               	movf	sqrtf@s+1,w
  4839     152B  00BF               	movwf	sqrtf@q+1
  4840     152C  0836               	movf	sqrtf@s,w
  4841     152D  00BE               	movwf	sqrtf@q
  4842     152E  3001               	movlw	1
  4843     152F  00CD               	movwf	sqrtf@r+3
  4844     1530  3000               	movlw	0
  4845     1531  00CC               	movwf	sqrtf@r+2
  4846     1532  3000               	movlw	0
  4847     1533  00CB               	movwf	sqrtf@r+1
  4848     1534  3000               	movlw	0
  4849     1535  00CA               	movwf	sqrtf@r
  4850     1536  2D94               	goto	l3418
  4851     1537                     l3412:
  4852     1537  084A               	movf	sqrtf@r,w
  4853     1538  0736               	addwf	sqrtf@s,w
  4854     1539  00AE               	movwf	??_sqrtf
  4855     153A  084B               	movf	sqrtf@r+1,w
  4856     153B  3D37               	addwfc	sqrtf@s+1,w
  4857     153C  00AF               	movwf	??_sqrtf+1
  4858     153D  084C               	movf	sqrtf@r+2,w
  4859     153E  3D38               	addwfc	sqrtf@s+2,w
  4860     153F  00B0               	movwf	??_sqrtf+2
  4861     1540  084D               	movf	sqrtf@r+3,w
  4862     1541  3D39               	addwfc	sqrtf@s+3,w
  4863     1542  00B1               	movwf	??_sqrtf+3
  4864     1543  0831               	movf	??_sqrtf+3,w
  4865     1544  00C5               	movwf	sqrtf@t+3
  4866     1545  0830               	movf	??_sqrtf+2,w
  4867     1546  00C4               	movwf	sqrtf@t+2
  4868     1547  082F               	movf	??_sqrtf+1,w
  4869     1548  00C3               	movwf	sqrtf@t+1
  4870     1549  082E               	movf	??_sqrtf,w
  4871     154A  00C2               	movwf	sqrtf@t
  4872     154B  0851               	movf	sqrtf@ix+3,w
  4873     154C  3A80               	xorlw	128
  4874     154D  00AE               	movwf	??_sqrtf
  4875     154E  0845               	movf	sqrtf@t+3,w
  4876     154F  3A80               	xorlw	128
  4877     1550  022E               	subwf	??_sqrtf,w
  4878     1551  1D03               	skipz
  4879     1552  2D5D               	goto	u3903
  4880     1553  0844               	movf	sqrtf@t+2,w
  4881     1554  0250               	subwf	sqrtf@ix+2,w
  4882     1555  1D03               	skipz
  4883     1556  2D5D               	goto	u3903
  4884     1557  0843               	movf	sqrtf@t+1,w
  4885     1558  024F               	subwf	sqrtf@ix+1,w
  4886     1559  1D03               	skipz
  4887     155A  2D5D               	goto	u3903
  4888     155B  0842               	movf	sqrtf@t,w
  4889     155C  024E               	subwf	sqrtf@ix,w
  4890     155D                     u3903:
  4891     155D  1C03               	skipc
  4892     155E  2D60               	goto	u3901
  4893     155F  2D61               	goto	u3900
  4894     1560                     u3901:
  4895     1560  2D85               	goto	l1148
  4896     1561                     u3900:
  4897     1561                     l3414:
  4898     1561  084A               	movf	sqrtf@r,w
  4899     1562  0742               	addwf	sqrtf@t,w
  4900     1563  00AE               	movwf	??_sqrtf
  4901     1564  084B               	movf	sqrtf@r+1,w
  4902     1565  3D43               	addwfc	sqrtf@t+1,w
  4903     1566  00AF               	movwf	??_sqrtf+1
  4904     1567  084C               	movf	sqrtf@r+2,w
  4905     1568  3D44               	addwfc	sqrtf@t+2,w
  4906     1569  00B0               	movwf	??_sqrtf+2
  4907     156A  084D               	movf	sqrtf@r+3,w
  4908     156B  3D45               	addwfc	sqrtf@t+3,w
  4909     156C  00B1               	movwf	??_sqrtf+3
  4910     156D  0831               	movf	??_sqrtf+3,w
  4911     156E  00B9               	movwf	sqrtf@s+3
  4912     156F  0830               	movf	??_sqrtf+2,w
  4913     1570  00B8               	movwf	sqrtf@s+2
  4914     1571  082F               	movf	??_sqrtf+1,w
  4915     1572  00B7               	movwf	sqrtf@s+1
  4916     1573  082E               	movf	??_sqrtf,w
  4917     1574  00B6               	movwf	sqrtf@s
  4918     1575  0842               	movf	sqrtf@t,w
  4919     1576  02CE               	subwf	sqrtf@ix,f
  4920     1577  0843               	movf	sqrtf@t+1,w
  4921     1578  3BCF               	subwfb	sqrtf@ix+1,f
  4922     1579  0844               	movf	sqrtf@t+2,w
  4923     157A  3BD0               	subwfb	sqrtf@ix+2,f
  4924     157B  0845               	movf	sqrtf@t+3,w
  4925     157C  3BD1               	subwfb	sqrtf@ix+3,f
  4926     157D  084A               	movf	sqrtf@r,w
  4927     157E  07BE               	addwf	sqrtf@q,f
  4928     157F  084B               	movf	sqrtf@r+1,w
  4929     1580  3DBF               	addwfc	sqrtf@q+1,f
  4930     1581  084C               	movf	sqrtf@r+2,w
  4931     1582  3DC0               	addwfc	sqrtf@q+2,f
  4932     1583  084D               	movf	sqrtf@r+3,w
  4933     1584  3DC1               	addwfc	sqrtf@q+3,f
  4934     1585                     l1148:
  4935     1585  084E               	movf	sqrtf@ix,w
  4936     1586  07CE               	addwf	sqrtf@ix,f
  4937     1587  084F               	movf	sqrtf@ix+1,w
  4938     1588  3DCF               	addwfc	sqrtf@ix+1,f
  4939     1589  0850               	movf	sqrtf@ix+2,w
  4940     158A  3DD0               	addwfc	sqrtf@ix+2,f
  4941     158B  0851               	movf	sqrtf@ix+3,w
  4942     158C  3DD1               	addwfc	sqrtf@ix+3,f
  4943     158D                     l3416:
  4944     158D  3001               	movlw	1
  4945     158E                     u3915:
  4946     158E  36CD               	lsrf	sqrtf@r+3,f
  4947     158F  0CCC               	rrf	sqrtf@r+2,f
  4948     1590  0CCB               	rrf	sqrtf@r+1,f
  4949     1591  0CCA               	rrf	sqrtf@r,f
  4950     1592  0B89               	decfsz	9,f
  4951     1593  2D8E               	goto	u3915
  4952     1594                     l3418:
  4953     1594  084D               	movf	sqrtf@r+3,w
  4954     1595  044C               	iorwf	sqrtf@r+2,w
  4955     1596  044B               	iorwf	sqrtf@r+1,w
  4956     1597  044A               	iorwf	sqrtf@r,w
  4957     1598  1D03               	skipz
  4958     1599  2D9B               	goto	u3921
  4959     159A  2D9C               	goto	u3920
  4960     159B                     u3921:
  4961     159B  2D37               	goto	l3412
  4962     159C                     u3920:
  4963     159C                     l3420:
  4964     159C  0851               	movf	sqrtf@ix+3,w
  4965     159D  0450               	iorwf	sqrtf@ix+2,w
  4966     159E  044F               	iorwf	sqrtf@ix+1,w
  4967     159F  044E               	iorwf	sqrtf@ix,w
  4968     15A0  1903               	skipnz
  4969     15A1  2DA3               	goto	u3931
  4970     15A2  2DA4               	goto	u3930
  4971     15A3                     u3931:
  4972     15A3  2DB8               	goto	l3424
  4973     15A4                     u3930:
  4974     15A4                     l3422:
  4975     15A4  3001               	movlw	1
  4976     15A5  053E               	andwf	sqrtf@q,w
  4977     15A6  00AE               	movwf	??_sqrtf
  4978     15A7  3000               	movlw	0
  4979     15A8  053F               	andwf	sqrtf@q+1,w
  4980     15A9  00AF               	movwf	??_sqrtf+1
  4981     15AA  3000               	movlw	0
  4982     15AB  0540               	andwf	sqrtf@q+2,w
  4983     15AC  00B0               	movwf	??_sqrtf+2
  4984     15AD  3000               	movlw	0
  4985     15AE  0541               	andwf	sqrtf@q+3,w
  4986     15AF  00B1               	movwf	??_sqrtf+3
  4987     15B0  082E               	movf	??_sqrtf,w
  4988     15B1  07BE               	addwf	sqrtf@q,f
  4989     15B2  082F               	movf	??_sqrtf+1,w
  4990     15B3  3DBF               	addwfc	sqrtf@q+1,f
  4991     15B4  0830               	movf	??_sqrtf+2,w
  4992     15B5  3DC0               	addwfc	sqrtf@q+2,f
  4993     15B6  0831               	movf	??_sqrtf+3,w
  4994     15B7  3DC1               	addwfc	sqrtf@q+3,f
  4995     15B8                     l3424:
  4996     15B8  083E               	movf	sqrtf@q,w
  4997     15B9  00AE               	movwf	??_sqrtf
  4998     15BA  083F               	movf	sqrtf@q+1,w
  4999     15BB  00AF               	movwf	??_sqrtf+1
  5000     15BC  0840               	movf	sqrtf@q+2,w
  5001     15BD  00B0               	movwf	??_sqrtf+2
  5002     15BE  0841               	movf	sqrtf@q+3,w
  5003     15BF  00B1               	movwf	??_sqrtf+3
  5004     15C0  3001               	movlw	1
  5005     15C1  00B2               	movwf	??_sqrtf+4
  5006     15C2                     u3945:
  5007     15C2  37B1               	asrf	??_sqrtf+3,f
  5008     15C3  0CB0               	rrf	??_sqrtf+2,f
  5009     15C4  0CAF               	rrf	??_sqrtf+1,f
  5010     15C5  0CAE               	rrf	??_sqrtf,f
  5011     15C6                     u3940:
  5012     15C6  0BB2               	decfsz	??_sqrtf+4,f
  5013     15C7  2DC2               	goto	u3945
  5014     15C8  3000               	movlw	0
  5015     15C9  072E               	addwf	??_sqrtf,w
  5016     15CA  00CE               	movwf	sqrtf@ix
  5017     15CB  3000               	movlw	0
  5018     15CC  3D2F               	addwfc	??_sqrtf+1,w
  5019     15CD  00CF               	movwf	sqrtf@ix+1
  5020     15CE  3000               	movlw	0
  5021     15CF  3D30               	addwfc	??_sqrtf+2,w
  5022     15D0  00D0               	movwf	sqrtf@ix+2
  5023     15D1  303F               	movlw	63
  5024     15D2  3D31               	addwfc	??_sqrtf+3,w
  5025     15D3  00D1               	movwf	sqrtf@ix+3
  5026     15D4                     l3426:
  5027     15D4  0846               	movf	sqrtf@m,w
  5028     15D5  00AE               	movwf	??_sqrtf
  5029     15D6  0847               	movf	sqrtf@m+1,w
  5030     15D7  00AF               	movwf	??_sqrtf+1
  5031     15D8  0848               	movf	sqrtf@m+2,w
  5032     15D9  00B0               	movwf	??_sqrtf+2
  5033     15DA  0849               	movf	sqrtf@m+3,w
  5034     15DB  00B1               	movwf	??_sqrtf+3
  5035     15DC  3017               	movlw	23
  5036     15DD                     u3955:
  5037     15DD  35AE               	lslf	??_sqrtf,f
  5038     15DE  0DAF               	rlf	??_sqrtf+1,f
  5039     15DF  0DB0               	rlf	??_sqrtf+2,f
  5040     15E0  0DB1               	rlf	??_sqrtf+3,f
  5041     15E1                     u3950:
  5042     15E1  0B89               	decfsz	9,f
  5043     15E2  2DDD               	goto	u3955
  5044     15E3  082E               	movf	??_sqrtf,w
  5045     15E4  07CE               	addwf	sqrtf@ix,f
  5046     15E5  082F               	movf	??_sqrtf+1,w
  5047     15E6  3DCF               	addwfc	sqrtf@ix+1,f
  5048     15E7  0830               	movf	??_sqrtf+2,w
  5049     15E8  3DD0               	addwfc	sqrtf@ix+2,f
  5050     15E9  0831               	movf	??_sqrtf+3,w
  5051     15EA  3DD1               	addwfc	sqrtf@ix+3,f
  5052     15EB  0851               	movf	sqrtf@ix+3,w
  5053     15EC  00AD               	movwf	?_sqrtf+3
  5054     15ED  0850               	movf	sqrtf@ix+2,w
  5055     15EE  00AC               	movwf	?_sqrtf+2
  5056     15EF  084F               	movf	sqrtf@ix+1,w
  5057     15F0  00AB               	movwf	?_sqrtf+1
  5058     15F1  084E               	movf	sqrtf@ix,w
  5059     15F2  00AA               	movwf	?_sqrtf
  5060     15F3                     l1137:
  5061     15F3  0008               	return
  5062     15F4                     __end_of_sqrtf:
  5063                           
  5064                           	psect	text3
  5065     0A90                     __ptext3:	
  5066 ;; *************** function _atanf *****************
  5067 ;; Defined at:
  5068 ;;		line 40 in file "C:\Program Files\Microchip\xc8\v3.00\pic\sources\c99\common\atanf.c"
  5069 ;; Parameters:    Size  Location     Type
  5070 ;;  x               4   44[BANK1 ] float 
  5071 ;; Auto vars:     Size  Location     Type
  5072 ;;  ix              4   38[BANK2 ] struct .
  5073 ;;  z               4   34[BANK2 ] float 
  5074 ;;  w               4   29[BANK2 ] float 
  5075 ;;  s2              4   16[BANK2 ] float 
  5076 ;;  s1              4   12[BANK2 ] float 
  5077 ;;  id              1   33[BANK2 ] char 
  5078 ;;  sign            1   28[BANK2 ] _Bool 
  5079 ;; Return value:  Size  Location     Type
  5080 ;;                  4   44[BANK1 ] float 
  5081 ;; Registers used:
  5082 ;;		wreg, fsr0l, fsr0h, status,2, status,0, pclath, cstack
  5083 ;; Tracked objects:
  5084 ;;		On entry : 0/0
  5085 ;;		On exit  : 0/0
  5086 ;;		Unchanged: 0/0
  5087 ;; Data sizes:     COMMON   BANK0   BANK1   BANK2   BANK3   BANK4   BANK5   BANK6   BANK7   BANK8   BANK9  BANK10  BANK1
      +1  BANK12
  5088 ;;      Params:         0       0       4       0       0       0       0       0       0       0       0       0       
      +0       0
  5089 ;;      Locals:         0       0       0      42       0       0       0       0       0       0       0       0       
      +0       0
  5090 ;;      Temps:          0       0       6       0       0       0       0       0       0       0       0       0       
      +0       0
  5091 ;;      Totals:         0       0      10      42       0       0       0       0       0       0       0       0       
      +0       0
  5092 ;;Total ram usage:       52 bytes
  5093 ;; Hardware stack levels used: 1
  5094 ;; Hardware stack levels required when called: 3
  5095 ;; This function calls:
  5096 ;;		___fladd
  5097 ;;		___fldiv
  5098 ;;		___flmul
  5099 ;;		___flneg
  5100 ;;		___flsub
  5101 ;;		___fpclassifyf
  5102 ;;		_fabsf
  5103 ;; This function is called by:
  5104 ;;		_vectorCalculations
  5105 ;; This function uses a non-reentrant model
  5106 ;;
  5107                           
  5108     0A90                     _atanf:	
  5109                           ;psect for function _atanf
  5110                           
  5111     0A90                     l3430:	
  5112                           ;incstack = 0
  5113                           ; Regs used in _atanf: [wreg-fsr0h+status,2+status,0+pclath+cstack]
  5114                           
  5115     0A90  0021               	movlb	1	; select bank1
  5116     0A91  084F               	movf	(atanf@x+3)^(0+128),w
  5117     0A92  0022               	movlb	2	; select bank2
  5118     0A93  00C9               	movwf	(atanf@ix+3)^(0+256)
  5119     0A94  0021               	movlb	1	; select bank1
  5120     0A95  084E               	movf	(atanf@x+2)^(0+128),w
  5121     0A96  0022               	movlb	2	; select bank2
  5122     0A97  00C8               	movwf	(atanf@ix+2)^(0+256)
  5123     0A98  0021               	movlb	1	; select bank1
  5124     0A99  084D               	movf	(atanf@x+1)^(0+128),w
  5125     0A9A  0022               	movlb	2	; select bank2
  5126     0A9B  00C7               	movwf	(atanf@ix+1)^(0+256)
  5127     0A9C  0021               	movlb	1	; select bank1
  5128     0A9D  084C               	movf	atanf@x^(0+128),w
  5129     0A9E  0022               	movlb	2	; select bank2
  5130     0A9F  00C6               	movwf	atanf@ix^(0+256)
  5131     0AA0  1BC9               	btfsc	(atanf@ix+3)^(0+256),7
  5132     0AA1  2AA3               	goto	u3961
  5133     0AA2  2AA5               	goto	u3960
  5134     0AA3                     u3961:
  5135     0AA3  3001               	movlw	1
  5136     0AA4  2AA6               	goto	u3970
  5137     0AA5                     u3960:
  5138     0AA5  3000               	movlw	0
  5139     0AA6                     u3970:
  5140     0AA6  00BC               	movwf	atanf@sign^(0+256)
  5141     0AA7  30FF               	movlw	255
  5142     0AA8  05C6               	andwf	atanf@ix^(0+256),f
  5143     0AA9  30FF               	movlw	255
  5144     0AAA  05C7               	andwf	(atanf@ix+1)^(0+256),f
  5145     0AAB  30FF               	movlw	255
  5146     0AAC  05C8               	andwf	(atanf@ix+2)^(0+256),f
  5147     0AAD  307F               	movlw	127
  5148     0AAE  05C9               	andwf	(atanf@ix+3)^(0+256),f
  5149     0AAF                     l3432:
  5150     0AAF  3080               	movlw	128
  5151     0AB0  0248               	subwf	(atanf@ix+2)^(0+256),w
  5152     0AB1  304C               	movlw	76
  5153     0AB2  3B49               	subwfb	(atanf@ix+3)^(0+256),w
  5154     0AB3  1C03               	btfss	3,0
  5155     0AB4  2AB6               	goto	u3981
  5156     0AB5  2AB7               	goto	u3980
  5157     0AB6                     u3981:
  5158     0AB6  2B2C               	goto	l3448
  5159     0AB7                     u3980:
  5160     0AB7                     l3434:
  5161     0AB7  0021               	movlb	1	; select bank1
  5162     0AB8  084F               	movf	(atanf@x+3)^(0+128),w
  5163     0AB9  00F4               	movwf	___fpclassifyf@x+3
  5164     0ABA  084E               	movf	(atanf@x+2)^(0+128),w
  5165     0ABB  00F3               	movwf	___fpclassifyf@x+2
  5166     0ABC  084D               	movf	(atanf@x+1)^(0+128),w
  5167     0ABD  00F2               	movwf	___fpclassifyf@x+1
  5168     0ABE  084C               	movf	atanf@x^(0+128),w
  5169     0ABF  00F1               	movwf	___fpclassifyf@x
  5170     0AC0  319F  2781  318A   	fcall	___fpclassifyf
  5171     0AC3  0871               	movf	?___fpclassifyf,w
  5172     0AC4  0472               	iorwf	?___fpclassifyf+1,w
  5173     0AC5  1D03               	btfss	3,2
  5174     0AC6  2AC8               	goto	u3991
  5175     0AC7  2AC9               	goto	u3990
  5176     0AC8                     u3991:
  5177     0AC8  2ACA               	goto	l3438
  5178     0AC9                     u3990:
  5179     0AC9                     l3436:
  5180     0AC9  2FFF               	goto	l1093
  5181     0ACA                     l3438:
  5182     0ACA  3003               	movlw	3
  5183     0ACB  0020               	movlb	0	; select bank0
  5184     0ACC  00D5               	movwf	___fladd@b+3
  5185     0ACD  3080               	movlw	128
  5186     0ACE  00D4               	movwf	___fladd@b+2
  5187     0ACF  3000               	movlw	0
  5188     0AD0  00D3               	movwf	___fladd@b+1
  5189     0AD1  3000               	movlw	0
  5190     0AD2  00D2               	movwf	___fladd@b
  5191     0AD3  301C               	movlw	low ((_atanhi+12)| (0+32768))
  5192     0AD4  0084               	movwf	4
  5193     0AD5  3098               	movlw	high ((_atanhi+12)| (0+32768))
  5194     0AD6  0085               	movwf	5
  5195     0AD7  3F00               	moviw [0]fsr0
  5196     0AD8  0021               	movlb	1	; select bank1
  5197     0AD9  00D0               	movwf	??_atanf^(0+128)
  5198     0ADA  3F01               	moviw [1]fsr0
  5199     0ADB  00D1               	movwf	(??_atanf^(0+128)+1)
  5200     0ADC  3F02               	moviw [2]fsr0
  5201     0ADD  00D2               	movwf	(??_atanf^(0+128)+2)
  5202     0ADE  3F03               	moviw [3]fsr0
  5203     0ADF  00D3               	movwf	(??_atanf^(0+128)+3)
  5204     0AE0  0853               	movf	(??_atanf+3)^(0+128),w
  5205     0AE1  0020               	movlb	0	; select bank0
  5206     0AE2  00D9               	movwf	___fladd@a+3
  5207     0AE3  0021               	movlb	1	; select bank1
  5208     0AE4  0852               	movf	(??_atanf+2)^(0+128),w
  5209     0AE5  0020               	movlb	0	; select bank0
  5210     0AE6  00D8               	movwf	___fladd@a+2
  5211     0AE7  0021               	movlb	1	; select bank1
  5212     0AE8  0851               	movf	(??_atanf+1)^(0+128),w
  5213     0AE9  0020               	movlb	0	; select bank0
  5214     0AEA  00D7               	movwf	___fladd@a+1
  5215     0AEB  0021               	movlb	1	; select bank1
  5216     0AEC  0850               	movf	??_atanf^(0+128),w
  5217     0AED  0020               	movlb	0	; select bank0
  5218     0AEE  00D6               	movwf	___fladd@a
  5219     0AEF  3195  25F4  318A   	fcall	___fladd
  5220     0AF2  0020               	movlb	0	; select bank0
  5221     0AF3  0855               	movf	?___fladd+3,w
  5222     0AF4  0022               	movlb	2	; select bank2
  5223     0AF5  00C5               	movwf	(atanf@z+3)^(0+256)
  5224     0AF6  0020               	movlb	0	; select bank0
  5225     0AF7  0854               	movf	?___fladd+2,w
  5226     0AF8  0022               	movlb	2	; select bank2
  5227     0AF9  00C4               	movwf	(atanf@z+2)^(0+256)
  5228     0AFA  0020               	movlb	0	; select bank0
  5229     0AFB  0853               	movf	?___fladd+1,w
  5230     0AFC  0022               	movlb	2	; select bank2
  5231     0AFD  00C3               	movwf	(atanf@z+1)^(0+256)
  5232     0AFE  0020               	movlb	0	; select bank0
  5233     0AFF  0852               	movf	?___fladd,w
  5234     0B00  0022               	movlb	2	; select bank2
  5235     0B01  00C2               	movwf	atanf@z^(0+256)
  5236     0B02                     l3440:
  5237     0B02  083C               	movf	atanf@sign^(0+256),w
  5238     0B03  1D03               	btfss	3,2
  5239     0B04  2B06               	goto	u4001
  5240     0B05  2B07               	goto	u4000
  5241     0B06                     u4001:
  5242     0B06  2B17               	goto	l3444
  5243     0B07                     u4000:
  5244     0B07                     l3442:
  5245     0B07  0845               	movf	(atanf@z+3)^(0+256),w
  5246     0B08  0021               	movlb	1	; select bank1
  5247     0B09  00CF               	movwf	(?_atanf+3)^(0+128)
  5248     0B0A  0022               	movlb	2	; select bank2
  5249     0B0B  0844               	movf	(atanf@z+2)^(0+256),w
  5250     0B0C  0021               	movlb	1	; select bank1
  5251     0B0D  00CE               	movwf	(?_atanf+2)^(0+128)
  5252     0B0E  0022               	movlb	2	; select bank2
  5253     0B0F  0843               	movf	(atanf@z+1)^(0+256),w
  5254     0B10  0021               	movlb	1	; select bank1
  5255     0B11  00CD               	movwf	(?_atanf+1)^(0+128)
  5256     0B12  0022               	movlb	2	; select bank2
  5257     0B13  0842               	movf	atanf@z^(0+256),w
  5258     0B14  0021               	movlb	1	; select bank1
  5259     0B15  00CC               	movwf	?_atanf^(0+128)
  5260     0B16  2FFF               	goto	l1093
  5261     0B17                     l3444:
  5262     0B17  0845               	movf	(atanf@z+3)^(0+256),w
  5263     0B18  00F4               	movwf	___flneg@f1+3
  5264     0B19  0844               	movf	(atanf@z+2)^(0+256),w
  5265     0B1A  00F3               	movwf	___flneg@f1+2
  5266     0B1B  0843               	movf	(atanf@z+1)^(0+256),w
  5267     0B1C  00F2               	movwf	___flneg@f1+1
  5268     0B1D  0842               	movf	atanf@z^(0+256),w
  5269     0B1E  00F1               	movwf	___flneg@f1
  5270     0B1F  319B  23B4  318A   	fcall	___flneg
  5271     0B22  0874               	movf	?___flneg+3,w
  5272     0B23  0021               	movlb	1	; select bank1
  5273     0B24  00CF               	movwf	(?_atanf+3)^(0+128)
  5274     0B25  0873               	movf	?___flneg+2,w
  5275     0B26  00CE               	movwf	(?_atanf+2)^(0+128)
  5276     0B27  0872               	movf	?___flneg+1,w
  5277     0B28  00CD               	movwf	(?_atanf+1)^(0+128)
  5278     0B29  0871               	movf	?___flneg,w
  5279     0B2A  00CC               	movwf	?_atanf^(0+128)
  5280     0B2B  2FFF               	goto	l1093
  5281     0B2C                     l3448:
  5282     0B2C  30E0               	movlw	224
  5283     0B2D  0022               	movlb	2	; select bank2
  5284     0B2E  0248               	subwf	(atanf@ix+2)^(0+256),w
  5285     0B2F  303E               	movlw	62
  5286     0B30  3B49               	subwfb	(atanf@ix+3)^(0+256),w
  5287     0B31  1803               	btfsc	3,0
  5288     0B32  2B34               	goto	u4011
  5289     0B33  2B35               	goto	u4010
  5290     0B34                     u4011:
  5291     0B34  2B43               	goto	l3454
  5292     0B35                     u4010:
  5293     0B35                     l3450:
  5294     0B35  3080               	movlw	128
  5295     0B36  0022               	movlb	2	; select bank2
  5296     0B37  0248               	subwf	(atanf@ix+2)^(0+256),w
  5297     0B38  3039               	movlw	57
  5298     0B39  3B49               	subwfb	(atanf@ix+3)^(0+256),w
  5299     0B3A  1803               	btfsc	3,0
  5300     0B3B  2B3D               	goto	u4021
  5301     0B3C  2B3E               	goto	u4020
  5302     0B3D                     u4021:
  5303     0B3D  2B3F               	goto	l1099
  5304     0B3E                     u4020:
  5305     0B3E  2AC9               	goto	l3436
  5306     0B3F                     l1099:
  5307     0B3F  30FF               	movlw	-1
  5308     0B40  0022               	movlb	2	; select bank2
  5309     0B41  00C1               	movwf	atanf@id^(0+256)
  5310     0B42  2CF2               	goto	l1101
  5311     0B43                     l3454:
  5312     0B43  0021               	movlb	1	; select bank1
  5313     0B44  084F               	movf	(atanf@x+3)^(0+128),w
  5314     0B45  00F4               	movwf	fabsf@x+3
  5315     0B46  084E               	movf	(atanf@x+2)^(0+128),w
  5316     0B47  00F3               	movwf	fabsf@x+2
  5317     0B48  084D               	movf	(atanf@x+1)^(0+128),w
  5318     0B49  00F2               	movwf	fabsf@x+1
  5319     0B4A  084C               	movf	atanf@x^(0+128),w
  5320     0B4B  00F1               	movwf	fabsf@x
  5321     0B4C  3188  200F  318A   	fcall	_fabsf
  5322     0B4F  0874               	movf	?_fabsf+3,w
  5323     0B50  0021               	movlb	1	; select bank1
  5324     0B51  00CF               	movwf	(atanf@x+3)^(0+128)
  5325     0B52  0873               	movf	?_fabsf+2,w
  5326     0B53  00CE               	movwf	(atanf@x+2)^(0+128)
  5327     0B54  0872               	movf	?_fabsf+1,w
  5328     0B55  00CD               	movwf	(atanf@x+1)^(0+128)
  5329     0B56  0871               	movf	?_fabsf,w
  5330     0B57  00CC               	movwf	atanf@x^(0+128)
  5331     0B58                     l3456:
  5332     0B58  3098               	movlw	152
  5333     0B59  0022               	movlb	2	; select bank2
  5334     0B5A  0248               	subwf	(atanf@ix+2)^(0+256),w
  5335     0B5B  303F               	movlw	63
  5336     0B5C  3B49               	subwfb	(atanf@ix+3)^(0+256),w
  5337     0B5D  1803               	btfsc	3,0
  5338     0B5E  2B60               	goto	u4031
  5339     0B5F  2B61               	goto	u4030
  5340     0B60                     u4031:
  5341     0B60  2C4D               	goto	l3466
  5342     0B61                     u4030:
  5343     0B61                     l3458:
  5344     0B61  3030               	movlw	48
  5345     0B62  0022               	movlb	2	; select bank2
  5346     0B63  0248               	subwf	(atanf@ix+2)^(0+256),w
  5347     0B64  303F               	movlw	63
  5348     0B65  3B49               	subwfb	(atanf@ix+3)^(0+256),w
  5349     0B66  1803               	btfsc	3,0
  5350     0B67  2B69               	goto	u4041
  5351     0B68  2B6A               	goto	u4040
  5352     0B69                     u4041:
  5353     0B69  2BE5               	goto	l1103
  5354     0B6A                     u4040:
  5355     0B6A                     l3460:
  5356     0B6A  0022               	movlb	2	; select bank2
  5357     0B6B  01C1               	clrf	atanf@id^(0+256)
  5358     0B6C                     l3462:
  5359     0B6C  3040               	movlw	64
  5360     0B6D  0020               	movlb	0	; select bank0
  5361     0B6E  00D5               	movwf	___fladd@b+3
  5362     0B6F  3000               	movlw	0
  5363     0B70  00D4               	movwf	___fladd@b+2
  5364     0B71  3000               	movlw	0
  5365     0B72  00D3               	movwf	___fladd@b+1
  5366     0B73  3000               	movlw	0
  5367     0B74  00D2               	movwf	___fladd@b
  5368     0B75  0021               	movlb	1	; select bank1
  5369     0B76  084F               	movf	(atanf@x+3)^(0+128),w
  5370     0B77  0020               	movlb	0	; select bank0
  5371     0B78  00D9               	movwf	___fladd@a+3
  5372     0B79  0021               	movlb	1	; select bank1
  5373     0B7A  084E               	movf	(atanf@x+2)^(0+128),w
  5374     0B7B  0020               	movlb	0	; select bank0
  5375     0B7C  00D8               	movwf	___fladd@a+2
  5376     0B7D  0021               	movlb	1	; select bank1
  5377     0B7E  084D               	movf	(atanf@x+1)^(0+128),w
  5378     0B7F  0020               	movlb	0	; select bank0
  5379     0B80  00D7               	movwf	___fladd@a+1
  5380     0B81  0021               	movlb	1	; select bank1
  5381     0B82  084C               	movf	atanf@x^(0+128),w
  5382     0B83  0020               	movlb	0	; select bank0
  5383     0B84  00D6               	movwf	___fladd@a
  5384     0B85  3195  25F4  318A   	fcall	___fladd
  5385     0B88  0020               	movlb	0	; select bank0
  5386     0B89  0855               	movf	?___fladd+3,w
  5387     0B8A  0021               	movlb	1	; select bank1
  5388     0B8B  00B5               	movwf	(___fldiv@a+3)^(0+128)
  5389     0B8C  0020               	movlb	0	; select bank0
  5390     0B8D  0854               	movf	?___fladd+2,w
  5391     0B8E  0021               	movlb	1	; select bank1
  5392     0B8F  00B4               	movwf	(___fldiv@a+2)^(0+128)
  5393     0B90  0020               	movlb	0	; select bank0
  5394     0B91  0853               	movf	?___fladd+1,w
  5395     0B92  0021               	movlb	1	; select bank1
  5396     0B93  00B3               	movwf	(___fldiv@a+1)^(0+128)
  5397     0B94  0020               	movlb	0	; select bank0
  5398     0B95  0852               	movf	?___fladd,w
  5399     0B96  0021               	movlb	1	; select bank1
  5400     0B97  00B2               	movwf	___fldiv@a^(0+128)
  5401     0B98  30BF               	movlw	191
  5402     0B99  0020               	movlb	0	; select bank0
  5403     0B9A  00D5               	movwf	___fladd@b+3
  5404     0B9B  3080               	movlw	128
  5405     0B9C  00D4               	movwf	___fladd@b+2
  5406     0B9D  3000               	movlw	0
  5407     0B9E  00D3               	movwf	___fladd@b+1
  5408     0B9F  3000               	movlw	0
  5409     0BA0  00D2               	movwf	___fladd@b
  5410     0BA1  3040               	movlw	64
  5411     0BA2  00E9               	movwf	___flmul@b+3
  5412     0BA3  3000               	movlw	0
  5413     0BA4  00E8               	movwf	___flmul@b+2
  5414     0BA5  3000               	movlw	0
  5415     0BA6  00E7               	movwf	___flmul@b+1
  5416     0BA7  3000               	movlw	0
  5417     0BA8  00E6               	movwf	___flmul@b
  5418     0BA9  0021               	movlb	1	; select bank1
  5419     0BAA  084F               	movf	(atanf@x+3)^(0+128),w
  5420     0BAB  0020               	movlb	0	; select bank0
  5421     0BAC  00ED               	movwf	___flmul@a+3
  5422     0BAD  0021               	movlb	1	; select bank1
  5423     0BAE  084E               	movf	(atanf@x+2)^(0+128),w
  5424     0BAF  0020               	movlb	0	; select bank0
  5425     0BB0  00EC               	movwf	___flmul@a+2
  5426     0BB1  0021               	movlb	1	; select bank1
  5427     0BB2  084D               	movf	(atanf@x+1)^(0+128),w
  5428     0BB3  0020               	movlb	0	; select bank0
  5429     0BB4  00EB               	movwf	___flmul@a+1
  5430     0BB5  0021               	movlb	1	; select bank1
  5431     0BB6  084C               	movf	atanf@x^(0+128),w
  5432     0BB7  0020               	movlb	0	; select bank0
  5433     0BB8  00EA               	movwf	___flmul@a
  5434     0BB9  3188  2031  318A   	fcall	___flmul
  5435     0BBC  0020               	movlb	0	; select bank0
  5436     0BBD  0869               	movf	?___flmul+3,w
  5437     0BBE  00D9               	movwf	___fladd@a+3
  5438     0BBF  0868               	movf	?___flmul+2,w
  5439     0BC0  00D8               	movwf	___fladd@a+2
  5440     0BC1  0867               	movf	?___flmul+1,w
  5441     0BC2  00D7               	movwf	___fladd@a+1
  5442     0BC3  0866               	movf	?___flmul,w
  5443     0BC4  00D6               	movwf	___fladd@a
  5444     0BC5  3195  25F4  318A   	fcall	___fladd
  5445     0BC8  0020               	movlb	0	; select bank0
  5446     0BC9  0855               	movf	?___fladd+3,w
  5447     0BCA  0021               	movlb	1	; select bank1
  5448     0BCB  00B9               	movwf	(___fldiv@b+3)^(0+128)
  5449     0BCC  0020               	movlb	0	; select bank0
  5450     0BCD  0854               	movf	?___fladd+2,w
  5451     0BCE  0021               	movlb	1	; select bank1
  5452     0BCF  00B8               	movwf	(___fldiv@b+2)^(0+128)
  5453     0BD0  0020               	movlb	0	; select bank0
  5454     0BD1  0853               	movf	?___fladd+1,w
  5455     0BD2  0021               	movlb	1	; select bank1
  5456     0BD3  00B7               	movwf	(___fldiv@b+1)^(0+128)
  5457     0BD4  0020               	movlb	0	; select bank0
  5458     0BD5  0852               	movf	?___fladd,w
  5459     0BD6  0021               	movlb	1	; select bank1
  5460     0BD7  00B6               	movwf	___fldiv@b^(0+128)
  5461     0BD8  3192  224A  318A   	fcall	___fldiv
  5462     0BDB  0021               	movlb	1	; select bank1
  5463     0BDC  0835               	movf	(?___fldiv+3)^(0+128),w
  5464     0BDD  00CF               	movwf	(atanf@x+3)^(0+128)
  5465     0BDE  0834               	movf	(?___fldiv+2)^(0+128),w
  5466     0BDF  00CE               	movwf	(atanf@x+2)^(0+128)
  5467     0BE0  0833               	movf	(?___fldiv+1)^(0+128),w
  5468     0BE1  00CD               	movwf	(atanf@x+1)^(0+128)
  5469     0BE2  0832               	movf	?___fldiv^(0+128),w
  5470     0BE3  00CC               	movwf	atanf@x^(0+128)
  5471     0BE4  2CF2               	goto	l1101
  5472     0BE5                     l1103:
  5473     0BE5  3001               	movlw	1
  5474     0BE6  0022               	movlb	2	; select bank2
  5475     0BE7  00C1               	movwf	atanf@id^(0+256)
  5476     0BE8                     l3464:
  5477     0BE8  303F               	movlw	63
  5478     0BE9  0020               	movlb	0	; select bank0
  5479     0BEA  00D5               	movwf	___fladd@b+3
  5480     0BEB  3080               	movlw	128
  5481     0BEC  00D4               	movwf	___fladd@b+2
  5482     0BED  3000               	movlw	0
  5483     0BEE  00D3               	movwf	___fladd@b+1
  5484     0BEF  3000               	movlw	0
  5485     0BF0  00D2               	movwf	___fladd@b
  5486     0BF1  0021               	movlb	1	; select bank1
  5487     0BF2  084F               	movf	(atanf@x+3)^(0+128),w
  5488     0BF3  0020               	movlb	0	; select bank0
  5489     0BF4  00D9               	movwf	___fladd@a+3
  5490     0BF5  0021               	movlb	1	; select bank1
  5491     0BF6  084E               	movf	(atanf@x+2)^(0+128),w
  5492     0BF7  0020               	movlb	0	; select bank0
  5493     0BF8  00D8               	movwf	___fladd@a+2
  5494     0BF9  0021               	movlb	1	; select bank1
  5495     0BFA  084D               	movf	(atanf@x+1)^(0+128),w
  5496     0BFB  0020               	movlb	0	; select bank0
  5497     0BFC  00D7               	movwf	___fladd@a+1
  5498     0BFD  0021               	movlb	1	; select bank1
  5499     0BFE  084C               	movf	atanf@x^(0+128),w
  5500     0BFF  0020               	movlb	0	; select bank0
  5501     0C00  00D6               	movwf	___fladd@a
  5502     0C01  3195  25F4  318A   	fcall	___fladd
  5503     0C04  0020               	movlb	0	; select bank0
  5504     0C05  0855               	movf	?___fladd+3,w
  5505     0C06  0021               	movlb	1	; select bank1
  5506     0C07  00B5               	movwf	(___fldiv@a+3)^(0+128)
  5507     0C08  0020               	movlb	0	; select bank0
  5508     0C09  0854               	movf	?___fladd+2,w
  5509     0C0A  0021               	movlb	1	; select bank1
  5510     0C0B  00B4               	movwf	(___fldiv@a+2)^(0+128)
  5511     0C0C  0020               	movlb	0	; select bank0
  5512     0C0D  0853               	movf	?___fladd+1,w
  5513     0C0E  0021               	movlb	1	; select bank1
  5514     0C0F  00B3               	movwf	(___fldiv@a+1)^(0+128)
  5515     0C10  0020               	movlb	0	; select bank0
  5516     0C11  0852               	movf	?___fladd,w
  5517     0C12  0021               	movlb	1	; select bank1
  5518     0C13  00B2               	movwf	___fldiv@a^(0+128)
  5519     0C14  30BF               	movlw	191
  5520     0C15  0020               	movlb	0	; select bank0
  5521     0C16  00D5               	movwf	___fladd@b+3
  5522     0C17  3080               	movlw	128
  5523     0C18  00D4               	movwf	___fladd@b+2
  5524     0C19  3000               	movlw	0
  5525     0C1A  00D3               	movwf	___fladd@b+1
  5526     0C1B  3000               	movlw	0
  5527     0C1C  00D2               	movwf	___fladd@b
  5528     0C1D  0021               	movlb	1	; select bank1
  5529     0C1E  084F               	movf	(atanf@x+3)^(0+128),w
  5530     0C1F  0020               	movlb	0	; select bank0
  5531     0C20  00D9               	movwf	___fladd@a+3
  5532     0C21  0021               	movlb	1	; select bank1
  5533     0C22  084E               	movf	(atanf@x+2)^(0+128),w
  5534     0C23  0020               	movlb	0	; select bank0
  5535     0C24  00D8               	movwf	___fladd@a+2
  5536     0C25  0021               	movlb	1	; select bank1
  5537     0C26  084D               	movf	(atanf@x+1)^(0+128),w
  5538     0C27  0020               	movlb	0	; select bank0
  5539     0C28  00D7               	movwf	___fladd@a+1
  5540     0C29  0021               	movlb	1	; select bank1
  5541     0C2A  084C               	movf	atanf@x^(0+128),w
  5542     0C2B  0020               	movlb	0	; select bank0
  5543     0C2C  00D6               	movwf	___fladd@a
  5544     0C2D  3195  25F4  318A   	fcall	___fladd
  5545     0C30  0020               	movlb	0	; select bank0
  5546     0C31  0855               	movf	?___fladd+3,w
  5547     0C32  0021               	movlb	1	; select bank1
  5548     0C33  00B9               	movwf	(___fldiv@b+3)^(0+128)
  5549     0C34  0020               	movlb	0	; select bank0
  5550     0C35  0854               	movf	?___fladd+2,w
  5551     0C36  0021               	movlb	1	; select bank1
  5552     0C37  00B8               	movwf	(___fldiv@b+2)^(0+128)
  5553     0C38  0020               	movlb	0	; select bank0
  5554     0C39  0853               	movf	?___fladd+1,w
  5555     0C3A  0021               	movlb	1	; select bank1
  5556     0C3B  00B7               	movwf	(___fldiv@b+1)^(0+128)
  5557     0C3C  0020               	movlb	0	; select bank0
  5558     0C3D  0852               	movf	?___fladd,w
  5559     0C3E  0021               	movlb	1	; select bank1
  5560     0C3F  00B6               	movwf	___fldiv@b^(0+128)
  5561     0C40  3192  224A  318A   	fcall	___fldiv
  5562     0C43  0021               	movlb	1	; select bank1
  5563     0C44  0835               	movf	(?___fldiv+3)^(0+128),w
  5564     0C45  00CF               	movwf	(atanf@x+3)^(0+128)
  5565     0C46  0834               	movf	(?___fldiv+2)^(0+128),w
  5566     0C47  00CE               	movwf	(atanf@x+2)^(0+128)
  5567     0C48  0833               	movf	(?___fldiv+1)^(0+128),w
  5568     0C49  00CD               	movwf	(atanf@x+1)^(0+128)
  5569     0C4A  0832               	movf	?___fldiv^(0+128),w
  5570     0C4B  00CC               	movwf	atanf@x^(0+128)
  5571     0C4C  2CF2               	goto	l1101
  5572     0C4D                     l3466:
  5573     0C4D  301C               	movlw	28
  5574     0C4E  0022               	movlb	2	; select bank2
  5575     0C4F  0248               	subwf	(atanf@ix+2)^(0+256),w
  5576     0C50  3040               	movlw	64
  5577     0C51  3B49               	subwfb	(atanf@ix+3)^(0+256),w
  5578     0C52  1803               	btfsc	3,0
  5579     0C53  2C55               	goto	u4051
  5580     0C54  2C56               	goto	u4050
  5581     0C55                     u4051:
  5582     0C55  2CD2               	goto	l1106
  5583     0C56                     u4050:
  5584     0C56                     l3468:
  5585     0C56  3002               	movlw	2
  5586     0C57  0022               	movlb	2	; select bank2
  5587     0C58  00C1               	movwf	atanf@id^(0+256)
  5588     0C59                     l3470:
  5589     0C59  303F               	movlw	63
  5590     0C5A  0020               	movlb	0	; select bank0
  5591     0C5B  00D5               	movwf	___fladd@b+3
  5592     0C5C  3080               	movlw	128
  5593     0C5D  00D4               	movwf	___fladd@b+2
  5594     0C5E  3000               	movlw	0
  5595     0C5F  00D3               	movwf	___fladd@b+1
  5596     0C60  3000               	movlw	0
  5597     0C61  00D2               	movwf	___fladd@b
  5598     0C62  303F               	movlw	63
  5599     0C63  00E9               	movwf	___flmul@b+3
  5600     0C64  30C0               	movlw	192
  5601     0C65  00E8               	movwf	___flmul@b+2
  5602     0C66  3000               	movlw	0
  5603     0C67  00E7               	movwf	___flmul@b+1
  5604     0C68  3000               	movlw	0
  5605     0C69  00E6               	movwf	___flmul@b
  5606     0C6A  0021               	movlb	1	; select bank1
  5607     0C6B  084F               	movf	(atanf@x+3)^(0+128),w
  5608     0C6C  0020               	movlb	0	; select bank0
  5609     0C6D  00ED               	movwf	___flmul@a+3
  5610     0C6E  0021               	movlb	1	; select bank1
  5611     0C6F  084E               	movf	(atanf@x+2)^(0+128),w
  5612     0C70  0020               	movlb	0	; select bank0
  5613     0C71  00EC               	movwf	___flmul@a+2
  5614     0C72  0021               	movlb	1	; select bank1
  5615     0C73  084D               	movf	(atanf@x+1)^(0+128),w
  5616     0C74  0020               	movlb	0	; select bank0
  5617     0C75  00EB               	movwf	___flmul@a+1
  5618     0C76  0021               	movlb	1	; select bank1
  5619     0C77  084C               	movf	atanf@x^(0+128),w
  5620     0C78  0020               	movlb	0	; select bank0
  5621     0C79  00EA               	movwf	___flmul@a
  5622     0C7A  3188  2031  318A   	fcall	___flmul
  5623     0C7D  0020               	movlb	0	; select bank0
  5624     0C7E  0869               	movf	?___flmul+3,w
  5625     0C7F  00D9               	movwf	___fladd@a+3
  5626     0C80  0868               	movf	?___flmul+2,w
  5627     0C81  00D8               	movwf	___fladd@a+2
  5628     0C82  0867               	movf	?___flmul+1,w
  5629     0C83  00D7               	movwf	___fladd@a+1
  5630     0C84  0866               	movf	?___flmul,w
  5631     0C85  00D6               	movwf	___fladd@a
  5632     0C86  3195  25F4  318A   	fcall	___fladd
  5633     0C89  0020               	movlb	0	; select bank0
  5634     0C8A  0855               	movf	?___fladd+3,w
  5635     0C8B  0021               	movlb	1	; select bank1
  5636     0C8C  00B5               	movwf	(___fldiv@a+3)^(0+128)
  5637     0C8D  0020               	movlb	0	; select bank0
  5638     0C8E  0854               	movf	?___fladd+2,w
  5639     0C8F  0021               	movlb	1	; select bank1
  5640     0C90  00B4               	movwf	(___fldiv@a+2)^(0+128)
  5641     0C91  0020               	movlb	0	; select bank0
  5642     0C92  0853               	movf	?___fladd+1,w
  5643     0C93  0021               	movlb	1	; select bank1
  5644     0C94  00B3               	movwf	(___fldiv@a+1)^(0+128)
  5645     0C95  0020               	movlb	0	; select bank0
  5646     0C96  0852               	movf	?___fladd,w
  5647     0C97  0021               	movlb	1	; select bank1
  5648     0C98  00B2               	movwf	___fldiv@a^(0+128)
  5649     0C99  30BF               	movlw	191
  5650     0C9A  0020               	movlb	0	; select bank0
  5651     0C9B  00D5               	movwf	___fladd@b+3
  5652     0C9C  30C0               	movlw	192
  5653     0C9D  00D4               	movwf	___fladd@b+2
  5654     0C9E  3000               	movlw	0
  5655     0C9F  00D3               	movwf	___fladd@b+1
  5656     0CA0  3000               	movlw	0
  5657     0CA1  00D2               	movwf	___fladd@b
  5658     0CA2  0021               	movlb	1	; select bank1
  5659     0CA3  084F               	movf	(atanf@x+3)^(0+128),w
  5660     0CA4  0020               	movlb	0	; select bank0
  5661     0CA5  00D9               	movwf	___fladd@a+3
  5662     0CA6  0021               	movlb	1	; select bank1
  5663     0CA7  084E               	movf	(atanf@x+2)^(0+128),w
  5664     0CA8  0020               	movlb	0	; select bank0
  5665     0CA9  00D8               	movwf	___fladd@a+2
  5666     0CAA  0021               	movlb	1	; select bank1
  5667     0CAB  084D               	movf	(atanf@x+1)^(0+128),w
  5668     0CAC  0020               	movlb	0	; select bank0
  5669     0CAD  00D7               	movwf	___fladd@a+1
  5670     0CAE  0021               	movlb	1	; select bank1
  5671     0CAF  084C               	movf	atanf@x^(0+128),w
  5672     0CB0  0020               	movlb	0	; select bank0
  5673     0CB1  00D6               	movwf	___fladd@a
  5674     0CB2  3195  25F4  318A   	fcall	___fladd
  5675     0CB5  0020               	movlb	0	; select bank0
  5676     0CB6  0855               	movf	?___fladd+3,w
  5677     0CB7  0021               	movlb	1	; select bank1
  5678     0CB8  00B9               	movwf	(___fldiv@b+3)^(0+128)
  5679     0CB9  0020               	movlb	0	; select bank0
  5680     0CBA  0854               	movf	?___fladd+2,w
  5681     0CBB  0021               	movlb	1	; select bank1
  5682     0CBC  00B8               	movwf	(___fldiv@b+2)^(0+128)
  5683     0CBD  0020               	movlb	0	; select bank0
  5684     0CBE  0853               	movf	?___fladd+1,w
  5685     0CBF  0021               	movlb	1	; select bank1
  5686     0CC0  00B7               	movwf	(___fldiv@b+1)^(0+128)
  5687     0CC1  0020               	movlb	0	; select bank0
  5688     0CC2  0852               	movf	?___fladd,w
  5689     0CC3  0021               	movlb	1	; select bank1
  5690     0CC4  00B6               	movwf	___fldiv@b^(0+128)
  5691     0CC5  3192  224A  318A   	fcall	___fldiv
  5692     0CC8  0021               	movlb	1	; select bank1
  5693     0CC9  0835               	movf	(?___fldiv+3)^(0+128),w
  5694     0CCA  00CF               	movwf	(atanf@x+3)^(0+128)
  5695     0CCB  0834               	movf	(?___fldiv+2)^(0+128),w
  5696     0CCC  00CE               	movwf	(atanf@x+2)^(0+128)
  5697     0CCD  0833               	movf	(?___fldiv+1)^(0+128),w
  5698     0CCE  00CD               	movwf	(atanf@x+1)^(0+128)
  5699     0CCF  0832               	movf	?___fldiv^(0+128),w
  5700     0CD0  00CC               	movwf	atanf@x^(0+128)
  5701     0CD1  2CF2               	goto	l1101
  5702     0CD2                     l1106:
  5703     0CD2  3003               	movlw	3
  5704     0CD3  0022               	movlb	2	; select bank2
  5705     0CD4  00C1               	movwf	atanf@id^(0+256)
  5706     0CD5                     l3472:
  5707     0CD5  0021               	movlb	1	; select bank1
  5708     0CD6  084F               	movf	(atanf@x+3)^(0+128),w
  5709     0CD7  00B5               	movwf	(___fldiv@a+3)^(0+128)
  5710     0CD8  084E               	movf	(atanf@x+2)^(0+128),w
  5711     0CD9  00B4               	movwf	(___fldiv@a+2)^(0+128)
  5712     0CDA  084D               	movf	(atanf@x+1)^(0+128),w
  5713     0CDB  00B3               	movwf	(___fldiv@a+1)^(0+128)
  5714     0CDC  084C               	movf	atanf@x^(0+128),w
  5715     0CDD  00B2               	movwf	___fldiv@a^(0+128)
  5716     0CDE  30BF               	movlw	191
  5717     0CDF  00B9               	movwf	(___fldiv@b+3)^(0+128)
  5718     0CE0  3080               	movlw	128
  5719     0CE1  00B8               	movwf	(___fldiv@b+2)^(0+128)
  5720     0CE2  3000               	movlw	0
  5721     0CE3  00B7               	movwf	(___fldiv@b+1)^(0+128)
  5722     0CE4  3000               	movlw	0
  5723     0CE5  00B6               	movwf	___fldiv@b^(0+128)
  5724     0CE6  3192  224A  318A   	fcall	___fldiv
  5725     0CE9  0021               	movlb	1	; select bank1
  5726     0CEA  0835               	movf	(?___fldiv+3)^(0+128),w
  5727     0CEB  00CF               	movwf	(atanf@x+3)^(0+128)
  5728     0CEC  0834               	movf	(?___fldiv+2)^(0+128),w
  5729     0CED  00CE               	movwf	(atanf@x+2)^(0+128)
  5730     0CEE  0833               	movf	(?___fldiv+1)^(0+128),w
  5731     0CEF  00CD               	movwf	(atanf@x+1)^(0+128)
  5732     0CF0  0832               	movf	?___fldiv^(0+128),w
  5733     0CF1  00CC               	movwf	atanf@x^(0+128)
  5734     0CF2                     l1101:
  5735     0CF2  0021               	movlb	1	; select bank1
  5736     0CF3  084F               	movf	(atanf@x+3)^(0+128),w
  5737     0CF4  0020               	movlb	0	; select bank0
  5738     0CF5  00E9               	movwf	___flmul@b+3
  5739     0CF6  0021               	movlb	1	; select bank1
  5740     0CF7  084E               	movf	(atanf@x+2)^(0+128),w
  5741     0CF8  0020               	movlb	0	; select bank0
  5742     0CF9  00E8               	movwf	___flmul@b+2
  5743     0CFA  0021               	movlb	1	; select bank1
  5744     0CFB  084D               	movf	(atanf@x+1)^(0+128),w
  5745     0CFC  0020               	movlb	0	; select bank0
  5746     0CFD  00E7               	movwf	___flmul@b+1
  5747     0CFE  0021               	movlb	1	; select bank1
  5748     0CFF  084C               	movf	atanf@x^(0+128),w
  5749     0D00  0020               	movlb	0	; select bank0
  5750     0D01  00E6               	movwf	___flmul@b
  5751     0D02  0021               	movlb	1	; select bank1
  5752     0D03  084F               	movf	(atanf@x+3)^(0+128),w
  5753     0D04  0020               	movlb	0	; select bank0
  5754     0D05  00ED               	movwf	___flmul@a+3
  5755     0D06  0021               	movlb	1	; select bank1
  5756     0D07  084E               	movf	(atanf@x+2)^(0+128),w
  5757     0D08  0020               	movlb	0	; select bank0
  5758     0D09  00EC               	movwf	___flmul@a+2
  5759     0D0A  0021               	movlb	1	; select bank1
  5760     0D0B  084D               	movf	(atanf@x+1)^(0+128),w
  5761     0D0C  0020               	movlb	0	; select bank0
  5762     0D0D  00EB               	movwf	___flmul@a+1
  5763     0D0E  0021               	movlb	1	; select bank1
  5764     0D0F  084C               	movf	atanf@x^(0+128),w
  5765     0D10  0020               	movlb	0	; select bank0
  5766     0D11  00EA               	movwf	___flmul@a
  5767     0D12  3188  2031  318A   	fcall	___flmul
  5768     0D15  0020               	movlb	0	; select bank0
  5769     0D16  0869               	movf	?___flmul+3,w
  5770     0D17  0022               	movlb	2	; select bank2
  5771     0D18  00C5               	movwf	(atanf@z+3)^(0+256)
  5772     0D19  0020               	movlb	0	; select bank0
  5773     0D1A  0868               	movf	?___flmul+2,w
  5774     0D1B  0022               	movlb	2	; select bank2
  5775     0D1C  00C4               	movwf	(atanf@z+2)^(0+256)
  5776     0D1D  0020               	movlb	0	; select bank0
  5777     0D1E  0867               	movf	?___flmul+1,w
  5778     0D1F  0022               	movlb	2	; select bank2
  5779     0D20  00C3               	movwf	(atanf@z+1)^(0+256)
  5780     0D21  0020               	movlb	0	; select bank0
  5781     0D22  0866               	movf	?___flmul,w
  5782     0D23  0022               	movlb	2	; select bank2
  5783     0D24  00C2               	movwf	atanf@z^(0+256)
  5784     0D25  0845               	movf	(atanf@z+3)^(0+256),w
  5785     0D26  0020               	movlb	0	; select bank0
  5786     0D27  00E9               	movwf	___flmul@b+3
  5787     0D28  0022               	movlb	2	; select bank2
  5788     0D29  0844               	movf	(atanf@z+2)^(0+256),w
  5789     0D2A  0020               	movlb	0	; select bank0
  5790     0D2B  00E8               	movwf	___flmul@b+2
  5791     0D2C  0022               	movlb	2	; select bank2
  5792     0D2D  0843               	movf	(atanf@z+1)^(0+256),w
  5793     0D2E  0020               	movlb	0	; select bank0
  5794     0D2F  00E7               	movwf	___flmul@b+1
  5795     0D30  0022               	movlb	2	; select bank2
  5796     0D31  0842               	movf	atanf@z^(0+256),w
  5797     0D32  0020               	movlb	0	; select bank0
  5798     0D33  00E6               	movwf	___flmul@b
  5799     0D34  0022               	movlb	2	; select bank2
  5800     0D35  0845               	movf	(atanf@z+3)^(0+256),w
  5801     0D36  0020               	movlb	0	; select bank0
  5802     0D37  00ED               	movwf	___flmul@a+3
  5803     0D38  0022               	movlb	2	; select bank2
  5804     0D39  0844               	movf	(atanf@z+2)^(0+256),w
  5805     0D3A  0020               	movlb	0	; select bank0
  5806     0D3B  00EC               	movwf	___flmul@a+2
  5807     0D3C  0022               	movlb	2	; select bank2
  5808     0D3D  0843               	movf	(atanf@z+1)^(0+256),w
  5809     0D3E  0020               	movlb	0	; select bank0
  5810     0D3F  00EB               	movwf	___flmul@a+1
  5811     0D40  0022               	movlb	2	; select bank2
  5812     0D41  0842               	movf	atanf@z^(0+256),w
  5813     0D42  0020               	movlb	0	; select bank0
  5814     0D43  00EA               	movwf	___flmul@a
  5815     0D44  3188  2031  318A   	fcall	___flmul
  5816     0D47  0020               	movlb	0	; select bank0
  5817     0D48  0869               	movf	?___flmul+3,w
  5818     0D49  0022               	movlb	2	; select bank2
  5819     0D4A  00C0               	movwf	(atanf@w+3)^(0+256)
  5820     0D4B  0020               	movlb	0	; select bank0
  5821     0D4C  0868               	movf	?___flmul+2,w
  5822     0D4D  0022               	movlb	2	; select bank2
  5823     0D4E  00BF               	movwf	(atanf@w+2)^(0+256)
  5824     0D4F  0020               	movlb	0	; select bank0
  5825     0D50  0867               	movf	?___flmul+1,w
  5826     0D51  0022               	movlb	2	; select bank2
  5827     0D52  00BE               	movwf	(atanf@w+1)^(0+256)
  5828     0D53  0020               	movlb	0	; select bank0
  5829     0D54  0866               	movf	?___flmul,w
  5830     0D55  0022               	movlb	2	; select bank2
  5831     0D56  00BD               	movwf	atanf@w^(0+256)
  5832     0D57  303E               	movlw	62
  5833     0D58  0020               	movlb	0	; select bank0
  5834     0D59  00D5               	movwf	___fladd@b+3
  5835     0D5A  3011               	movlw	17
  5836     0D5B  00D4               	movwf	___fladd@b+2
  5837     0D5C  30F5               	movlw	245
  5838     0D5D  00D3               	movwf	___fladd@b+1
  5839     0D5E  300D               	movlw	13
  5840     0D5F  00D2               	movwf	___fladd@b
  5841     0D60  303D               	movlw	61
  5842     0D61  00E9               	movwf	___flmul@b+3
  5843     0D62  307C               	movlw	124
  5844     0D63  00E8               	movwf	___flmul@b+2
  5845     0D64  30AC               	movlw	172
  5846     0D65  00E7               	movwf	___flmul@b+1
  5847     0D66  3025               	movlw	37
  5848     0D67  00E6               	movwf	___flmul@b
  5849     0D68  0022               	movlb	2	; select bank2
  5850     0D69  0840               	movf	(atanf@w+3)^(0+256),w
  5851     0D6A  0020               	movlb	0	; select bank0
  5852     0D6B  00ED               	movwf	___flmul@a+3
  5853     0D6C  0022               	movlb	2	; select bank2
  5854     0D6D  083F               	movf	(atanf@w+2)^(0+256),w
  5855     0D6E  0020               	movlb	0	; select bank0
  5856     0D6F  00EC               	movwf	___flmul@a+2
  5857     0D70  0022               	movlb	2	; select bank2
  5858     0D71  083E               	movf	(atanf@w+1)^(0+256),w
  5859     0D72  0020               	movlb	0	; select bank0
  5860     0D73  00EB               	movwf	___flmul@a+1
  5861     0D74  0022               	movlb	2	; select bank2
  5862     0D75  083D               	movf	atanf@w^(0+256),w
  5863     0D76  0020               	movlb	0	; select bank0
  5864     0D77  00EA               	movwf	___flmul@a
  5865     0D78  3188  2031  318A   	fcall	___flmul
  5866     0D7B  0020               	movlb	0	; select bank0
  5867     0D7C  0869               	movf	?___flmul+3,w
  5868     0D7D  00D9               	movwf	___fladd@a+3
  5869     0D7E  0868               	movf	?___flmul+2,w
  5870     0D7F  00D8               	movwf	___fladd@a+2
  5871     0D80  0867               	movf	?___flmul+1,w
  5872     0D81  00D7               	movwf	___fladd@a+1
  5873     0D82  0866               	movf	?___flmul,w
  5874     0D83  00D6               	movwf	___fladd@a
  5875     0D84  3195  25F4  318A   	fcall	___fladd
  5876     0D87  0020               	movlb	0	; select bank0
  5877     0D88  0855               	movf	?___fladd+3,w
  5878     0D89  0022               	movlb	2	; select bank2
  5879     0D8A  00B7               	movwf	(_atanf$1914+3)^(0+256)
  5880     0D8B  0020               	movlb	0	; select bank0
  5881     0D8C  0854               	movf	?___fladd+2,w
  5882     0D8D  0022               	movlb	2	; select bank2
  5883     0D8E  00B6               	movwf	(_atanf$1914+2)^(0+256)
  5884     0D8F  0020               	movlb	0	; select bank0
  5885     0D90  0853               	movf	?___fladd+1,w
  5886     0D91  0022               	movlb	2	; select bank2
  5887     0D92  00B5               	movwf	(_atanf$1914+1)^(0+256)
  5888     0D93  0020               	movlb	0	; select bank0
  5889     0D94  0852               	movf	?___fladd,w
  5890     0D95  0022               	movlb	2	; select bank2
  5891     0D96  00B4               	movwf	_atanf$1914^(0+256)
  5892     0D97  303E               	movlw	62
  5893     0D98  0020               	movlb	0	; select bank0
  5894     0D99  00D5               	movwf	___fladd@b+3
  5895     0D9A  30AA               	movlw	170
  5896     0D9B  00D4               	movwf	___fladd@b+2
  5897     0D9C  30AA               	movlw	170
  5898     0D9D  00D3               	movwf	___fladd@b+1
  5899     0D9E  30A9               	movlw	169
  5900     0D9F  00D2               	movwf	___fladd@b
  5901     0DA0  0022               	movlb	2	; select bank2
  5902     0DA1  0840               	movf	(atanf@w+3)^(0+256),w
  5903     0DA2  0020               	movlb	0	; select bank0
  5904     0DA3  00E9               	movwf	___flmul@b+3
  5905     0DA4  0022               	movlb	2	; select bank2
  5906     0DA5  083F               	movf	(atanf@w+2)^(0+256),w
  5907     0DA6  0020               	movlb	0	; select bank0
  5908     0DA7  00E8               	movwf	___flmul@b+2
  5909     0DA8  0022               	movlb	2	; select bank2
  5910     0DA9  083E               	movf	(atanf@w+1)^(0+256),w
  5911     0DAA  0020               	movlb	0	; select bank0
  5912     0DAB  00E7               	movwf	___flmul@b+1
  5913     0DAC  0022               	movlb	2	; select bank2
  5914     0DAD  083D               	movf	atanf@w^(0+256),w
  5915     0DAE  0020               	movlb	0	; select bank0
  5916     0DAF  00E6               	movwf	___flmul@b
  5917     0DB0  0022               	movlb	2	; select bank2
  5918     0DB1  0837               	movf	(_atanf$1914+3)^(0+256),w
  5919     0DB2  0020               	movlb	0	; select bank0
  5920     0DB3  00ED               	movwf	___flmul@a+3
  5921     0DB4  0022               	movlb	2	; select bank2
  5922     0DB5  0836               	movf	(_atanf$1914+2)^(0+256),w
  5923     0DB6  0020               	movlb	0	; select bank0
  5924     0DB7  00EC               	movwf	___flmul@a+2
  5925     0DB8  0022               	movlb	2	; select bank2
  5926     0DB9  0835               	movf	(_atanf$1914+1)^(0+256),w
  5927     0DBA  0020               	movlb	0	; select bank0
  5928     0DBB  00EB               	movwf	___flmul@a+1
  5929     0DBC  0022               	movlb	2	; select bank2
  5930     0DBD  0834               	movf	_atanf$1914^(0+256),w
  5931     0DBE  0020               	movlb	0	; select bank0
  5932     0DBF  00EA               	movwf	___flmul@a
  5933     0DC0  3188  2031  318A   	fcall	___flmul
  5934     0DC3  0020               	movlb	0	; select bank0
  5935     0DC4  0869               	movf	?___flmul+3,w
  5936     0DC5  00D9               	movwf	___fladd@a+3
  5937     0DC6  0868               	movf	?___flmul+2,w
  5938     0DC7  00D8               	movwf	___fladd@a+2
  5939     0DC8  0867               	movf	?___flmul+1,w
  5940     0DC9  00D7               	movwf	___fladd@a+1
  5941     0DCA  0866               	movf	?___flmul,w
  5942     0DCB  00D6               	movwf	___fladd@a
  5943     0DCC  3195  25F4  318A   	fcall	___fladd
  5944     0DCF  0020               	movlb	0	; select bank0
  5945     0DD0  0855               	movf	?___fladd+3,w
  5946     0DD1  0022               	movlb	2	; select bank2
  5947     0DD2  00A3               	movwf	(_atanf$1915+3)^(0+256)
  5948     0DD3  0020               	movlb	0	; select bank0
  5949     0DD4  0854               	movf	?___fladd+2,w
  5950     0DD5  0022               	movlb	2	; select bank2
  5951     0DD6  00A2               	movwf	(_atanf$1915+2)^(0+256)
  5952     0DD7  0020               	movlb	0	; select bank0
  5953     0DD8  0853               	movf	?___fladd+1,w
  5954     0DD9  0022               	movlb	2	; select bank2
  5955     0DDA  00A1               	movwf	(_atanf$1915+1)^(0+256)
  5956     0DDB  0020               	movlb	0	; select bank0
  5957     0DDC  0852               	movf	?___fladd,w
  5958     0DDD  0022               	movlb	2	; select bank2
  5959     0DDE  00A0               	movwf	_atanf$1915^(0+256)
  5960     0DDF  0845               	movf	(atanf@z+3)^(0+256),w
  5961     0DE0  0020               	movlb	0	; select bank0
  5962     0DE1  00E9               	movwf	___flmul@b+3
  5963     0DE2  0022               	movlb	2	; select bank2
  5964     0DE3  0844               	movf	(atanf@z+2)^(0+256),w
  5965     0DE4  0020               	movlb	0	; select bank0
  5966     0DE5  00E8               	movwf	___flmul@b+2
  5967     0DE6  0022               	movlb	2	; select bank2
  5968     0DE7  0843               	movf	(atanf@z+1)^(0+256),w
  5969     0DE8  0020               	movlb	0	; select bank0
  5970     0DE9  00E7               	movwf	___flmul@b+1
  5971     0DEA  0022               	movlb	2	; select bank2
  5972     0DEB  0842               	movf	atanf@z^(0+256),w
  5973     0DEC  0020               	movlb	0	; select bank0
  5974     0DED  00E6               	movwf	___flmul@b
  5975     0DEE  0022               	movlb	2	; select bank2
  5976     0DEF  0823               	movf	(_atanf$1915+3)^(0+256),w
  5977     0DF0  0020               	movlb	0	; select bank0
  5978     0DF1  00ED               	movwf	___flmul@a+3
  5979     0DF2  0022               	movlb	2	; select bank2
  5980     0DF3  0822               	movf	(_atanf$1915+2)^(0+256),w
  5981     0DF4  0020               	movlb	0	; select bank0
  5982     0DF5  00EC               	movwf	___flmul@a+2
  5983     0DF6  0022               	movlb	2	; select bank2
  5984     0DF7  0821               	movf	(_atanf$1915+1)^(0+256),w
  5985     0DF8  0020               	movlb	0	; select bank0
  5986     0DF9  00EB               	movwf	___flmul@a+1
  5987     0DFA  0022               	movlb	2	; select bank2
  5988     0DFB  0820               	movf	_atanf$1915^(0+256),w
  5989     0DFC  0020               	movlb	0	; select bank0
  5990     0DFD  00EA               	movwf	___flmul@a
  5991     0DFE  3188  2031  318A   	fcall	___flmul
  5992     0E01  0020               	movlb	0	; select bank0
  5993     0E02  0869               	movf	?___flmul+3,w
  5994     0E03  0022               	movlb	2	; select bank2
  5995     0E04  00AF               	movwf	(atanf@s1+3)^(0+256)
  5996     0E05  0020               	movlb	0	; select bank0
  5997     0E06  0868               	movf	?___flmul+2,w
  5998     0E07  0022               	movlb	2	; select bank2
  5999     0E08  00AE               	movwf	(atanf@s1+2)^(0+256)
  6000     0E09  0020               	movlb	0	; select bank0
  6001     0E0A  0867               	movf	?___flmul+1,w
  6002     0E0B  0022               	movlb	2	; select bank2
  6003     0E0C  00AD               	movwf	(atanf@s1+1)^(0+256)
  6004     0E0D  0020               	movlb	0	; select bank0
  6005     0E0E  0866               	movf	?___flmul,w
  6006     0E0F  0022               	movlb	2	; select bank2
  6007     0E10  00AC               	movwf	atanf@s1^(0+256)
  6008     0E11  30BE               	movlw	190
  6009     0E12  0020               	movlb	0	; select bank0
  6010     0E13  00D5               	movwf	___fladd@b+3
  6011     0E14  304C               	movlw	76
  6012     0E15  00D4               	movwf	___fladd@b+2
  6013     0E16  30CA               	movlw	202
  6014     0E17  00D3               	movwf	___fladd@b+1
  6015     0E18  3098               	movlw	152
  6016     0E19  00D2               	movwf	___fladd@b
  6017     0E1A  30BD               	movlw	189
  6018     0E1B  00E9               	movwf	___flmul@b+3
  6019     0E1C  30DA               	movlw	218
  6020     0E1D  00E8               	movwf	___flmul@b+2
  6021     0E1E  3012               	movlw	18
  6022     0E1F  00E7               	movwf	___flmul@b+1
  6023     0E20  3047               	movlw	71
  6024     0E21  00E6               	movwf	___flmul@b
  6025     0E22  0022               	movlb	2	; select bank2
  6026     0E23  0840               	movf	(atanf@w+3)^(0+256),w
  6027     0E24  0020               	movlb	0	; select bank0
  6028     0E25  00ED               	movwf	___flmul@a+3
  6029     0E26  0022               	movlb	2	; select bank2
  6030     0E27  083F               	movf	(atanf@w+2)^(0+256),w
  6031     0E28  0020               	movlb	0	; select bank0
  6032     0E29  00EC               	movwf	___flmul@a+2
  6033     0E2A  0022               	movlb	2	; select bank2
  6034     0E2B  083E               	movf	(atanf@w+1)^(0+256),w
  6035     0E2C  0020               	movlb	0	; select bank0
  6036     0E2D  00EB               	movwf	___flmul@a+1
  6037     0E2E  0022               	movlb	2	; select bank2
  6038     0E2F  083D               	movf	atanf@w^(0+256),w
  6039     0E30  0020               	movlb	0	; select bank0
  6040     0E31  00EA               	movwf	___flmul@a
  6041     0E32  3188  2031  318A   	fcall	___flmul
  6042     0E35  0020               	movlb	0	; select bank0
  6043     0E36  0869               	movf	?___flmul+3,w
  6044     0E37  00D9               	movwf	___fladd@a+3
  6045     0E38  0868               	movf	?___flmul+2,w
  6046     0E39  00D8               	movwf	___fladd@a+2
  6047     0E3A  0867               	movf	?___flmul+1,w
  6048     0E3B  00D7               	movwf	___fladd@a+1
  6049     0E3C  0866               	movf	?___flmul,w
  6050     0E3D  00D6               	movwf	___fladd@a
  6051     0E3E  3195  25F4  318A   	fcall	___fladd
  6052     0E41  0020               	movlb	0	; select bank0
  6053     0E42  0855               	movf	?___fladd+3,w
  6054     0E43  0022               	movlb	2	; select bank2
  6055     0E44  00B7               	movwf	(_atanf$1914+3)^(0+256)
  6056     0E45  0020               	movlb	0	; select bank0
  6057     0E46  0854               	movf	?___fladd+2,w
  6058     0E47  0022               	movlb	2	; select bank2
  6059     0E48  00B6               	movwf	(_atanf$1914+2)^(0+256)
  6060     0E49  0020               	movlb	0	; select bank0
  6061     0E4A  0853               	movf	?___fladd+1,w
  6062     0E4B  0022               	movlb	2	; select bank2
  6063     0E4C  00B5               	movwf	(_atanf$1914+1)^(0+256)
  6064     0E4D  0020               	movlb	0	; select bank0
  6065     0E4E  0852               	movf	?___fladd,w
  6066     0E4F  0022               	movlb	2	; select bank2
  6067     0E50  00B4               	movwf	_atanf$1914^(0+256)
  6068     0E51  0840               	movf	(atanf@w+3)^(0+256),w
  6069     0E52  0020               	movlb	0	; select bank0
  6070     0E53  00E9               	movwf	___flmul@b+3
  6071     0E54  0022               	movlb	2	; select bank2
  6072     0E55  083F               	movf	(atanf@w+2)^(0+256),w
  6073     0E56  0020               	movlb	0	; select bank0
  6074     0E57  00E8               	movwf	___flmul@b+2
  6075     0E58  0022               	movlb	2	; select bank2
  6076     0E59  083E               	movf	(atanf@w+1)^(0+256),w
  6077     0E5A  0020               	movlb	0	; select bank0
  6078     0E5B  00E7               	movwf	___flmul@b+1
  6079     0E5C  0022               	movlb	2	; select bank2
  6080     0E5D  083D               	movf	atanf@w^(0+256),w
  6081     0E5E  0020               	movlb	0	; select bank0
  6082     0E5F  00E6               	movwf	___flmul@b
  6083     0E60  0022               	movlb	2	; select bank2
  6084     0E61  0837               	movf	(_atanf$1914+3)^(0+256),w
  6085     0E62  0020               	movlb	0	; select bank0
  6086     0E63  00ED               	movwf	___flmul@a+3
  6087     0E64  0022               	movlb	2	; select bank2
  6088     0E65  0836               	movf	(_atanf$1914+2)^(0+256),w
  6089     0E66  0020               	movlb	0	; select bank0
  6090     0E67  00EC               	movwf	___flmul@a+2
  6091     0E68  0022               	movlb	2	; select bank2
  6092     0E69  0835               	movf	(_atanf$1914+1)^(0+256),w
  6093     0E6A  0020               	movlb	0	; select bank0
  6094     0E6B  00EB               	movwf	___flmul@a+1
  6095     0E6C  0022               	movlb	2	; select bank2
  6096     0E6D  0834               	movf	_atanf$1914^(0+256),w
  6097     0E6E  0020               	movlb	0	; select bank0
  6098     0E6F  00EA               	movwf	___flmul@a
  6099     0E70  3188  2031  318A   	fcall	___flmul
  6100     0E73  0020               	movlb	0	; select bank0
  6101     0E74  0869               	movf	?___flmul+3,w
  6102     0E75  0022               	movlb	2	; select bank2
  6103     0E76  00B3               	movwf	(atanf@s2+3)^(0+256)
  6104     0E77  0020               	movlb	0	; select bank0
  6105     0E78  0868               	movf	?___flmul+2,w
  6106     0E79  0022               	movlb	2	; select bank2
  6107     0E7A  00B2               	movwf	(atanf@s2+2)^(0+256)
  6108     0E7B  0020               	movlb	0	; select bank0
  6109     0E7C  0867               	movf	?___flmul+1,w
  6110     0E7D  0022               	movlb	2	; select bank2
  6111     0E7E  00B1               	movwf	(atanf@s2+1)^(0+256)
  6112     0E7F  0020               	movlb	0	; select bank0
  6113     0E80  0866               	movf	?___flmul,w
  6114     0E81  0022               	movlb	2	; select bank2
  6115     0E82  00B0               	movwf	atanf@s2^(0+256)
  6116     0E83                     l3474:
  6117     0E83  1FC1               	btfss	atanf@id^(0+256),7
  6118     0E84  2E86               	goto	u4061
  6119     0E85  2E87               	goto	u4060
  6120     0E86                     u4061:
  6121     0E86  2EFA               	goto	l3480
  6122     0E87                     u4060:
  6123     0E87                     l3476:
  6124     0E87  0021               	movlb	1	; select bank1
  6125     0E88  084F               	movf	(atanf@x+3)^(0+128),w
  6126     0E89  0020               	movlb	0	; select bank0
  6127     0E8A  00E9               	movwf	___flmul@b+3
  6128     0E8B  0021               	movlb	1	; select bank1
  6129     0E8C  084E               	movf	(atanf@x+2)^(0+128),w
  6130     0E8D  0020               	movlb	0	; select bank0
  6131     0E8E  00E8               	movwf	___flmul@b+2
  6132     0E8F  0021               	movlb	1	; select bank1
  6133     0E90  084D               	movf	(atanf@x+1)^(0+128),w
  6134     0E91  0020               	movlb	0	; select bank0
  6135     0E92  00E7               	movwf	___flmul@b+1
  6136     0E93  0021               	movlb	1	; select bank1
  6137     0E94  084C               	movf	atanf@x^(0+128),w
  6138     0E95  0020               	movlb	0	; select bank0
  6139     0E96  00E6               	movwf	___flmul@b
  6140     0E97  0022               	movlb	2	; select bank2
  6141     0E98  0833               	movf	(atanf@s2+3)^(0+256),w
  6142     0E99  0020               	movlb	0	; select bank0
  6143     0E9A  00D5               	movwf	___fladd@b+3
  6144     0E9B  0022               	movlb	2	; select bank2
  6145     0E9C  0832               	movf	(atanf@s2+2)^(0+256),w
  6146     0E9D  0020               	movlb	0	; select bank0
  6147     0E9E  00D4               	movwf	___fladd@b+2
  6148     0E9F  0022               	movlb	2	; select bank2
  6149     0EA0  0831               	movf	(atanf@s2+1)^(0+256),w
  6150     0EA1  0020               	movlb	0	; select bank0
  6151     0EA2  00D3               	movwf	___fladd@b+1
  6152     0EA3  0022               	movlb	2	; select bank2
  6153     0EA4  0830               	movf	atanf@s2^(0+256),w
  6154     0EA5  0020               	movlb	0	; select bank0
  6155     0EA6  00D2               	movwf	___fladd@b
  6156     0EA7  0022               	movlb	2	; select bank2
  6157     0EA8  082F               	movf	(atanf@s1+3)^(0+256),w
  6158     0EA9  0020               	movlb	0	; select bank0
  6159     0EAA  00D9               	movwf	___fladd@a+3
  6160     0EAB  0022               	movlb	2	; select bank2
  6161     0EAC  082E               	movf	(atanf@s1+2)^(0+256),w
  6162     0EAD  0020               	movlb	0	; select bank0
  6163     0EAE  00D8               	movwf	___fladd@a+2
  6164     0EAF  0022               	movlb	2	; select bank2
  6165     0EB0  082D               	movf	(atanf@s1+1)^(0+256),w
  6166     0EB1  0020               	movlb	0	; select bank0
  6167     0EB2  00D7               	movwf	___fladd@a+1
  6168     0EB3  0022               	movlb	2	; select bank2
  6169     0EB4  082C               	movf	atanf@s1^(0+256),w
  6170     0EB5  0020               	movlb	0	; select bank0
  6171     0EB6  00D6               	movwf	___fladd@a
  6172     0EB7  3195  25F4  318A   	fcall	___fladd
  6173     0EBA  0020               	movlb	0	; select bank0
  6174     0EBB  0855               	movf	?___fladd+3,w
  6175     0EBC  00ED               	movwf	___flmul@a+3
  6176     0EBD  0854               	movf	?___fladd+2,w
  6177     0EBE  00EC               	movwf	___flmul@a+2
  6178     0EBF  0853               	movf	?___fladd+1,w
  6179     0EC0  00EB               	movwf	___flmul@a+1
  6180     0EC1  0852               	movf	?___fladd,w
  6181     0EC2  00EA               	movwf	___flmul@a
  6182     0EC3  3188  2031  318A   	fcall	___flmul
  6183     0EC6  0020               	movlb	0	; select bank0
  6184     0EC7  0869               	movf	?___flmul+3,w
  6185     0EC8  0022               	movlb	2	; select bank2
  6186     0EC9  00BB               	movwf	(_atanf$1916+3)^(0+256)
  6187     0ECA  0020               	movlb	0	; select bank0
  6188     0ECB  0868               	movf	?___flmul+2,w
  6189     0ECC  0022               	movlb	2	; select bank2
  6190     0ECD  00BA               	movwf	(_atanf$1916+2)^(0+256)
  6191     0ECE  0020               	movlb	0	; select bank0
  6192     0ECF  0867               	movf	?___flmul+1,w
  6193     0ED0  0022               	movlb	2	; select bank2
  6194     0ED1  00B9               	movwf	(_atanf$1916+1)^(0+256)
  6195     0ED2  0020               	movlb	0	; select bank0
  6196     0ED3  0866               	movf	?___flmul,w
  6197     0ED4  0022               	movlb	2	; select bank2
  6198     0ED5  00B8               	movwf	_atanf$1916^(0+256)
  6199     0ED6  083B               	movf	(_atanf$1916+3)^(0+256),w
  6200     0ED7  0021               	movlb	1	; select bank1
  6201     0ED8  00A3               	movwf	(___flsub@a+3)^(0+128)
  6202     0ED9  0022               	movlb	2	; select bank2
  6203     0EDA  083A               	movf	(_atanf$1916+2)^(0+256),w
  6204     0EDB  0021               	movlb	1	; select bank1
  6205     0EDC  00A2               	movwf	(___flsub@a+2)^(0+128)
  6206     0EDD  0022               	movlb	2	; select bank2
  6207     0EDE  0839               	movf	(_atanf$1916+1)^(0+256),w
  6208     0EDF  0021               	movlb	1	; select bank1
  6209     0EE0  00A1               	movwf	(___flsub@a+1)^(0+128)
  6210     0EE1  0022               	movlb	2	; select bank2
  6211     0EE2  0838               	movf	_atanf$1916^(0+256),w
  6212     0EE3  0021               	movlb	1	; select bank1
  6213     0EE4  00A0               	movwf	___flsub@a^(0+128)
  6214     0EE5  084F               	movf	(atanf@x+3)^(0+128),w
  6215     0EE6  00A7               	movwf	(___flsub@b+3)^(0+128)
  6216     0EE7  084E               	movf	(atanf@x+2)^(0+128),w
  6217     0EE8  00A6               	movwf	(___flsub@b+2)^(0+128)
  6218     0EE9  084D               	movf	(atanf@x+1)^(0+128),w
  6219     0EEA  00A5               	movwf	(___flsub@b+1)^(0+128)
  6220     0EEB  084C               	movf	atanf@x^(0+128),w
  6221     0EEC  00A4               	movwf	___flsub@b^(0+128)
  6222     0EED  319D  2522  318A   	fcall	___flsub
  6223     0EF0  0021               	movlb	1	; select bank1
  6224     0EF1  0823               	movf	(?___flsub+3)^(0+128),w
  6225     0EF2  00CF               	movwf	(?_atanf+3)^(0+128)
  6226     0EF3  0822               	movf	(?___flsub+2)^(0+128),w
  6227     0EF4  00CE               	movwf	(?_atanf+2)^(0+128)
  6228     0EF5  0821               	movf	(?___flsub+1)^(0+128),w
  6229     0EF6  00CD               	movwf	(?_atanf+1)^(0+128)
  6230     0EF7  0820               	movf	?___flsub^(0+128),w
  6231     0EF8  00CC               	movwf	?_atanf^(0+128)
  6232     0EF9  2FFF               	goto	l1093
  6233     0EFA                     l3480:
  6234     0EFA  0021               	movlb	1	; select bank1
  6235     0EFB  084F               	movf	(atanf@x+3)^(0+128),w
  6236     0EFC  0020               	movlb	0	; select bank0
  6237     0EFD  00E9               	movwf	___flmul@b+3
  6238     0EFE  0021               	movlb	1	; select bank1
  6239     0EFF  084E               	movf	(atanf@x+2)^(0+128),w
  6240     0F00  0020               	movlb	0	; select bank0
  6241     0F01  00E8               	movwf	___flmul@b+2
  6242     0F02  0021               	movlb	1	; select bank1
  6243     0F03  084D               	movf	(atanf@x+1)^(0+128),w
  6244     0F04  0020               	movlb	0	; select bank0
  6245     0F05  00E7               	movwf	___flmul@b+1
  6246     0F06  0021               	movlb	1	; select bank1
  6247     0F07  084C               	movf	atanf@x^(0+128),w
  6248     0F08  0020               	movlb	0	; select bank0
  6249     0F09  00E6               	movwf	___flmul@b
  6250     0F0A  0022               	movlb	2	; select bank2
  6251     0F0B  0833               	movf	(atanf@s2+3)^(0+256),w
  6252     0F0C  0020               	movlb	0	; select bank0
  6253     0F0D  00D5               	movwf	___fladd@b+3
  6254     0F0E  0022               	movlb	2	; select bank2
  6255     0F0F  0832               	movf	(atanf@s2+2)^(0+256),w
  6256     0F10  0020               	movlb	0	; select bank0
  6257     0F11  00D4               	movwf	___fladd@b+2
  6258     0F12  0022               	movlb	2	; select bank2
  6259     0F13  0831               	movf	(atanf@s2+1)^(0+256),w
  6260     0F14  0020               	movlb	0	; select bank0
  6261     0F15  00D3               	movwf	___fladd@b+1
  6262     0F16  0022               	movlb	2	; select bank2
  6263     0F17  0830               	movf	atanf@s2^(0+256),w
  6264     0F18  0020               	movlb	0	; select bank0
  6265     0F19  00D2               	movwf	___fladd@b
  6266     0F1A  0022               	movlb	2	; select bank2
  6267     0F1B  082F               	movf	(atanf@s1+3)^(0+256),w
  6268     0F1C  0020               	movlb	0	; select bank0
  6269     0F1D  00D9               	movwf	___fladd@a+3
  6270     0F1E  0022               	movlb	2	; select bank2
  6271     0F1F  082E               	movf	(atanf@s1+2)^(0+256),w
  6272     0F20  0020               	movlb	0	; select bank0
  6273     0F21  00D8               	movwf	___fladd@a+2
  6274     0F22  0022               	movlb	2	; select bank2
  6275     0F23  082D               	movf	(atanf@s1+1)^(0+256),w
  6276     0F24  0020               	movlb	0	; select bank0
  6277     0F25  00D7               	movwf	___fladd@a+1
  6278     0F26  0022               	movlb	2	; select bank2
  6279     0F27  082C               	movf	atanf@s1^(0+256),w
  6280     0F28  0020               	movlb	0	; select bank0
  6281     0F29  00D6               	movwf	___fladd@a
  6282     0F2A  3195  25F4  318A   	fcall	___fladd
  6283     0F2D  0020               	movlb	0	; select bank0
  6284     0F2E  0855               	movf	?___fladd+3,w
  6285     0F2F  00ED               	movwf	___flmul@a+3
  6286     0F30  0854               	movf	?___fladd+2,w
  6287     0F31  00EC               	movwf	___flmul@a+2
  6288     0F32  0853               	movf	?___fladd+1,w
  6289     0F33  00EB               	movwf	___flmul@a+1
  6290     0F34  0852               	movf	?___fladd,w
  6291     0F35  00EA               	movwf	___flmul@a
  6292     0F36  3188  2031  318A   	fcall	___flmul
  6293     0F39  0020               	movlb	0	; select bank0
  6294     0F3A  0869               	movf	?___flmul+3,w
  6295     0F3B  0022               	movlb	2	; select bank2
  6296     0F3C  00BB               	movwf	(_atanf$1916+3)^(0+256)
  6297     0F3D  0020               	movlb	0	; select bank0
  6298     0F3E  0868               	movf	?___flmul+2,w
  6299     0F3F  0022               	movlb	2	; select bank2
  6300     0F40  00BA               	movwf	(_atanf$1916+2)^(0+256)
  6301     0F41  0020               	movlb	0	; select bank0
  6302     0F42  0867               	movf	?___flmul+1,w
  6303     0F43  0022               	movlb	2	; select bank2
  6304     0F44  00B9               	movwf	(_atanf$1916+1)^(0+256)
  6305     0F45  0020               	movlb	0	; select bank0
  6306     0F46  0866               	movf	?___flmul,w
  6307     0F47  0022               	movlb	2	; select bank2
  6308     0F48  00B8               	movwf	_atanf$1916^(0+256)
  6309     0F49                     l3482:
  6310     0F49  0841               	movf	atanf@id^(0+256),w
  6311     0F4A  0021               	movlb	1	; select bank1
  6312     0F4B  00D0               	movwf	??_atanf^(0+128)
  6313     0F4C  01D1               	clrf	(??_atanf^(0+128)+1)
  6314     0F4D  35D0               	lslf	??_atanf^(0+128),f
  6315     0F4E  0DD1               	rlf	(??_atanf^(0+128)+1),f
  6316     0F4F  35D0               	lslf	??_atanf^(0+128),f
  6317     0F50  0DD1               	rlf	(??_atanf^(0+128)+1),f
  6318     0F51  3000               	movlw	low _atanlo
  6319     0F52  0750               	addwf	??_atanf^(0+128),w
  6320     0F53  0084               	movwf	4
  6321     0F54  3018               	movlw	high _atanlo
  6322     0F55  3D51               	addwfc	(??_atanf+1)^(0+128),w
  6323     0F56  3880               	iorlw	128
  6324     0F57  0085               	movwf	5
  6325     0F58  3F00               	moviw [0]fsr0
  6326     0F59  00D2               	movwf	(??_atanf+2)^(0+128)
  6327     0F5A  3F01               	moviw [1]fsr0
  6328     0F5B  00D3               	movwf	((??_atanf+2)^(0+128)+1)
  6329     0F5C  3F02               	moviw [2]fsr0
  6330     0F5D  00D4               	movwf	((??_atanf+2)^(0+128)+2)
  6331     0F5E  3F03               	moviw [3]fsr0
  6332     0F5F  00D5               	movwf	((??_atanf+2)^(0+128)+3)
  6333     0F60  0855               	movf	(??_atanf+5)^(0+128),w
  6334     0F61  00A3               	movwf	(___flsub@a+3)^(0+128)
  6335     0F62  0854               	movf	(??_atanf+4)^(0+128),w
  6336     0F63  00A2               	movwf	(___flsub@a+2)^(0+128)
  6337     0F64  0853               	movf	(??_atanf+3)^(0+128),w
  6338     0F65  00A1               	movwf	(___flsub@a+1)^(0+128)
  6339     0F66  0852               	movf	(??_atanf+2)^(0+128),w
  6340     0F67  00A0               	movwf	___flsub@a^(0+128)
  6341     0F68  0022               	movlb	2	; select bank2
  6342     0F69  083B               	movf	(_atanf$1916+3)^(0+256),w
  6343     0F6A  0021               	movlb	1	; select bank1
  6344     0F6B  00A7               	movwf	(___flsub@b+3)^(0+128)
  6345     0F6C  0022               	movlb	2	; select bank2
  6346     0F6D  083A               	movf	(_atanf$1916+2)^(0+256),w
  6347     0F6E  0021               	movlb	1	; select bank1
  6348     0F6F  00A6               	movwf	(___flsub@b+2)^(0+128)
  6349     0F70  0022               	movlb	2	; select bank2
  6350     0F71  0839               	movf	(_atanf$1916+1)^(0+256),w
  6351     0F72  0021               	movlb	1	; select bank1
  6352     0F73  00A5               	movwf	(___flsub@b+1)^(0+128)
  6353     0F74  0022               	movlb	2	; select bank2
  6354     0F75  0838               	movf	_atanf$1916^(0+256),w
  6355     0F76  0021               	movlb	1	; select bank1
  6356     0F77  00A4               	movwf	___flsub@b^(0+128)
  6357     0F78  319D  2522  318A   	fcall	___flsub
  6358     0F7B  0021               	movlb	1	; select bank1
  6359     0F7C  0823               	movf	(?___flsub+3)^(0+128),w
  6360     0F7D  0022               	movlb	2	; select bank2
  6361     0F7E  00A7               	movwf	(_atanf$1917+3)^(0+256)
  6362     0F7F  0021               	movlb	1	; select bank1
  6363     0F80  0822               	movf	(?___flsub+2)^(0+128),w
  6364     0F81  0022               	movlb	2	; select bank2
  6365     0F82  00A6               	movwf	(_atanf$1917+2)^(0+256)
  6366     0F83  0021               	movlb	1	; select bank1
  6367     0F84  0821               	movf	(?___flsub+1)^(0+128),w
  6368     0F85  0022               	movlb	2	; select bank2
  6369     0F86  00A5               	movwf	(_atanf$1917+1)^(0+256)
  6370     0F87  0021               	movlb	1	; select bank1
  6371     0F88  0820               	movf	?___flsub^(0+128),w
  6372     0F89  0022               	movlb	2	; select bank2
  6373     0F8A  00A4               	movwf	_atanf$1917^(0+256)
  6374     0F8B                     l3484:
  6375     0F8B  0021               	movlb	1	; select bank1
  6376     0F8C  084F               	movf	(atanf@x+3)^(0+128),w
  6377     0F8D  00A3               	movwf	(___flsub@a+3)^(0+128)
  6378     0F8E  084E               	movf	(atanf@x+2)^(0+128),w
  6379     0F8F  00A2               	movwf	(___flsub@a+2)^(0+128)
  6380     0F90  084D               	movf	(atanf@x+1)^(0+128),w
  6381     0F91  00A1               	movwf	(___flsub@a+1)^(0+128)
  6382     0F92  084C               	movf	atanf@x^(0+128),w
  6383     0F93  00A0               	movwf	___flsub@a^(0+128)
  6384     0F94  0022               	movlb	2	; select bank2
  6385     0F95  0827               	movf	(_atanf$1917+3)^(0+256),w
  6386     0F96  0021               	movlb	1	; select bank1
  6387     0F97  00A7               	movwf	(___flsub@b+3)^(0+128)
  6388     0F98  0022               	movlb	2	; select bank2
  6389     0F99  0826               	movf	(_atanf$1917+2)^(0+256),w
  6390     0F9A  0021               	movlb	1	; select bank1
  6391     0F9B  00A6               	movwf	(___flsub@b+2)^(0+128)
  6392     0F9C  0022               	movlb	2	; select bank2
  6393     0F9D  0825               	movf	(_atanf$1917+1)^(0+256),w
  6394     0F9E  0021               	movlb	1	; select bank1
  6395     0F9F  00A5               	movwf	(___flsub@b+1)^(0+128)
  6396     0FA0  0022               	movlb	2	; select bank2
  6397     0FA1  0824               	movf	_atanf$1917^(0+256),w
  6398     0FA2  0021               	movlb	1	; select bank1
  6399     0FA3  00A4               	movwf	___flsub@b^(0+128)
  6400     0FA4  319D  2522  318A   	fcall	___flsub
  6401     0FA7  0021               	movlb	1	; select bank1
  6402     0FA8  0823               	movf	(?___flsub+3)^(0+128),w
  6403     0FA9  0022               	movlb	2	; select bank2
  6404     0FAA  00AB               	movwf	(_atanf$1918+3)^(0+256)
  6405     0FAB  0021               	movlb	1	; select bank1
  6406     0FAC  0822               	movf	(?___flsub+2)^(0+128),w
  6407     0FAD  0022               	movlb	2	; select bank2
  6408     0FAE  00AA               	movwf	(_atanf$1918+2)^(0+256)
  6409     0FAF  0021               	movlb	1	; select bank1
  6410     0FB0  0821               	movf	(?___flsub+1)^(0+128),w
  6411     0FB1  0022               	movlb	2	; select bank2
  6412     0FB2  00A9               	movwf	(_atanf$1918+1)^(0+256)
  6413     0FB3  0021               	movlb	1	; select bank1
  6414     0FB4  0820               	movf	?___flsub^(0+128),w
  6415     0FB5  0022               	movlb	2	; select bank2
  6416     0FB6  00A8               	movwf	_atanf$1918^(0+256)
  6417     0FB7  082B               	movf	(_atanf$1918+3)^(0+256),w
  6418     0FB8  0021               	movlb	1	; select bank1
  6419     0FB9  00A3               	movwf	(___flsub@a+3)^(0+128)
  6420     0FBA  0022               	movlb	2	; select bank2
  6421     0FBB  082A               	movf	(_atanf$1918+2)^(0+256),w
  6422     0FBC  0021               	movlb	1	; select bank1
  6423     0FBD  00A2               	movwf	(___flsub@a+2)^(0+128)
  6424     0FBE  0022               	movlb	2	; select bank2
  6425     0FBF  0829               	movf	(_atanf$1918+1)^(0+256),w
  6426     0FC0  0021               	movlb	1	; select bank1
  6427     0FC1  00A1               	movwf	(___flsub@a+1)^(0+128)
  6428     0FC2  0022               	movlb	2	; select bank2
  6429     0FC3  0828               	movf	_atanf$1918^(0+256),w
  6430     0FC4  0021               	movlb	1	; select bank1
  6431     0FC5  00A0               	movwf	___flsub@a^(0+128)
  6432     0FC6  0022               	movlb	2	; select bank2
  6433     0FC7  0841               	movf	atanf@id^(0+256),w
  6434     0FC8  0021               	movlb	1	; select bank1
  6435     0FC9  00D0               	movwf	??_atanf^(0+128)
  6436     0FCA  01D1               	clrf	(??_atanf^(0+128)+1)
  6437     0FCB  35D0               	lslf	??_atanf^(0+128),f
  6438     0FCC  0DD1               	rlf	(??_atanf^(0+128)+1),f
  6439     0FCD  35D0               	lslf	??_atanf^(0+128),f
  6440     0FCE  0DD1               	rlf	(??_atanf^(0+128)+1),f
  6441     0FCF  3010               	movlw	low _atanhi
  6442     0FD0  0750               	addwf	??_atanf^(0+128),w
  6443     0FD1  0084               	movwf	4
  6444     0FD2  3018               	movlw	high _atanhi
  6445     0FD3  3D51               	addwfc	(??_atanf+1)^(0+128),w
  6446     0FD4  3880               	iorlw	128
  6447     0FD5  0085               	movwf	5
  6448     0FD6  3F00               	moviw [0]fsr0
  6449     0FD7  00D2               	movwf	(??_atanf+2)^(0+128)
  6450     0FD8  3F01               	moviw [1]fsr0
  6451     0FD9  00D3               	movwf	((??_atanf+2)^(0+128)+1)
  6452     0FDA  3F02               	moviw [2]fsr0
  6453     0FDB  00D4               	movwf	((??_atanf+2)^(0+128)+2)
  6454     0FDC  3F03               	moviw [3]fsr0
  6455     0FDD  00D5               	movwf	((??_atanf+2)^(0+128)+3)
  6456     0FDE  0855               	movf	(??_atanf+5)^(0+128),w
  6457     0FDF  00A7               	movwf	(___flsub@b+3)^(0+128)
  6458     0FE0  0854               	movf	(??_atanf+4)^(0+128),w
  6459     0FE1  00A6               	movwf	(___flsub@b+2)^(0+128)
  6460     0FE2  0853               	movf	(??_atanf+3)^(0+128),w
  6461     0FE3  00A5               	movwf	(___flsub@b+1)^(0+128)
  6462     0FE4  0852               	movf	(??_atanf+2)^(0+128),w
  6463     0FE5  00A4               	movwf	___flsub@b^(0+128)
  6464     0FE6  319D  2522  318A   	fcall	___flsub
  6465     0FE9  0021               	movlb	1	; select bank1
  6466     0FEA  0823               	movf	(?___flsub+3)^(0+128),w
  6467     0FEB  0022               	movlb	2	; select bank2
  6468     0FEC  00C5               	movwf	(atanf@z+3)^(0+256)
  6469     0FED  0021               	movlb	1	; select bank1
  6470     0FEE  0822               	movf	(?___flsub+2)^(0+128),w
  6471     0FEF  0022               	movlb	2	; select bank2
  6472     0FF0  00C4               	movwf	(atanf@z+2)^(0+256)
  6473     0FF1  0021               	movlb	1	; select bank1
  6474     0FF2  0821               	movf	(?___flsub+1)^(0+128),w
  6475     0FF3  0022               	movlb	2	; select bank2
  6476     0FF4  00C3               	movwf	(atanf@z+1)^(0+256)
  6477     0FF5  0021               	movlb	1	; select bank1
  6478     0FF6  0820               	movf	?___flsub^(0+128),w
  6479     0FF7  0022               	movlb	2	; select bank2
  6480     0FF8  00C2               	movwf	atanf@z^(0+256)
  6481     0FF9                     l3486:
  6482     0FF9  083C               	movf	atanf@sign^(0+256),w
  6483     0FFA  1D03               	btfss	3,2
  6484     0FFB  2FFD               	goto	u4071
  6485     0FFC  2FFE               	goto	u4070
  6486     0FFD                     u4071:
  6487     0FFD  2B17               	goto	l3444
  6488     0FFE                     u4070:
  6489     0FFE  2B07               	goto	l3442
  6490     0FFF                     l1093:
  6491     0FFF  0008               	return
  6492     1000                     __end_of_atanf:
  6493                           
  6494                           	psect	text4
  6495     080F                     __ptext4:	
  6496 ;; *************** function _fabsf *****************
  6497 ;; Defined at:
  6498 ;;		line 4 in file "C:\Program Files\Microchip\xc8\v3.00\pic\sources\c99\common\fabsf.c"
  6499 ;; Parameters:    Size  Location     Type
  6500 ;;  x               4    1[COMMON] float 
  6501 ;; Auto vars:     Size  Location     Type
  6502 ;;  u               4    5[COMMON] struct .
  6503 ;; Return value:  Size  Location     Type
  6504 ;;                  4    1[COMMON] float 
  6505 ;; Registers used:
  6506 ;;		wreg
  6507 ;; Tracked objects:
  6508 ;;		On entry : 0/0
  6509 ;;		On exit  : 0/0
  6510 ;;		Unchanged: 0/0
  6511 ;; Data sizes:     COMMON   BANK0   BANK1   BANK2   BANK3   BANK4   BANK5   BANK6   BANK7   BANK8   BANK9  BANK10  BANK1
      +1  BANK12
  6512 ;;      Params:         4       0       0       0       0       0       0       0       0       0       0       0       
      +0       0
  6513 ;;      Locals:         4       0       0       0       0       0       0       0       0       0       0       0       
      +0       0
  6514 ;;      Temps:          0       0       0       0       0       0       0       0       0       0       0       0       
      +0       0
  6515 ;;      Totals:         8       0       0       0       0       0       0       0       0       0       0       0       
      +0       0
  6516 ;;Total ram usage:        8 bytes
  6517 ;; Hardware stack levels used: 1
  6518 ;; Hardware stack levels required when called: 1
  6519 ;; This function calls:
  6520 ;;		Nothing
  6521 ;; This function is called by:
  6522 ;;		_atanf
  6523 ;; This function uses a non-reentrant model
  6524 ;;
  6525                           
  6526     080F                     _fabsf:	
  6527                           ;psect for function _fabsf
  6528                           
  6529     080F                     l3280:	
  6530                           ;incstack = 0
  6531                           ; Regs used in _fabsf: [wreg]
  6532                           
  6533     080F  0023               	movlb	3	; select bank3
  6534     0810  0845               	movf	(fabsf@F465+3)^(0+384),w
  6535     0811  00F8               	movwf	fabsf@u+3
  6536     0812  0844               	movf	(fabsf@F465+2)^(0+384),w
  6537     0813  00F7               	movwf	fabsf@u+2
  6538     0814  0843               	movf	(fabsf@F465+1)^(0+384),w
  6539     0815  00F6               	movwf	fabsf@u+1
  6540     0816  0842               	movf	fabsf@F465^(0+384),w
  6541     0817  00F5               	movwf	fabsf@u
  6542     0818  0874               	movf	fabsf@x+3,w
  6543     0819  00F8               	movwf	fabsf@u+3
  6544     081A  0873               	movf	fabsf@x+2,w
  6545     081B  00F7               	movwf	fabsf@u+2
  6546     081C  0872               	movf	fabsf@x+1,w
  6547     081D  00F6               	movwf	fabsf@u+1
  6548     081E  0871               	movf	fabsf@x,w
  6549     081F  00F5               	movwf	fabsf@u
  6550     0820  30FF               	movlw	255
  6551     0821  05F5               	andwf	fabsf@u,f
  6552     0822  30FF               	movlw	255
  6553     0823  05F6               	andwf	fabsf@u+1,f
  6554     0824  30FF               	movlw	255
  6555     0825  05F7               	andwf	fabsf@u+2,f
  6556     0826  307F               	movlw	127
  6557     0827  05F8               	andwf	fabsf@u+3,f
  6558     0828  0878               	movf	fabsf@u+3,w
  6559     0829  00F4               	movwf	?_fabsf+3
  6560     082A  0877               	movf	fabsf@u+2,w
  6561     082B  00F3               	movwf	?_fabsf+2
  6562     082C  0876               	movf	fabsf@u+1,w
  6563     082D  00F2               	movwf	?_fabsf+1
  6564     082E  0875               	movf	fabsf@u,w
  6565     082F  00F1               	movwf	?_fabsf
  6566     0830                     l1128:
  6567     0830  0008               	return
  6568     0831                     __end_of_fabsf:
  6569                           
  6570                           	psect	text5
  6571     1F81                     __ptext5:	
  6572 ;; *************** function ___fpclassifyf *****************
  6573 ;; Defined at:
  6574 ;;		line 4 in file "C:\Program Files\Microchip\xc8\v3.00\pic\sources\c99\common\__fpclassifyf.c"
  6575 ;; Parameters:    Size  Location     Type
  6576 ;;  x               4    1[COMMON] float 
  6577 ;; Auto vars:     Size  Location     Type
  6578 ;;  u               4    2[BANK0 ] struct .
  6579 ;;  e               2    0[BANK0 ] int 
  6580 ;; Return value:  Size  Location     Type
  6581 ;;                  2    1[COMMON] int 
  6582 ;; Registers used:
  6583 ;;		wreg, status,2, status,0
  6584 ;; Tracked objects:
  6585 ;;		On entry : 0/0
  6586 ;;		On exit  : 0/0
  6587 ;;		Unchanged: 0/0
  6588 ;; Data sizes:     COMMON   BANK0   BANK1   BANK2   BANK3   BANK4   BANK5   BANK6   BANK7   BANK8   BANK9  BANK10  BANK1
      +1  BANK12
  6589 ;;      Params:         4       0       0       0       0       0       0       0       0       0       0       0       
      +0       0
  6590 ;;      Locals:         0       6       0       0       0       0       0       0       0       0       0       0       
      +0       0
  6591 ;;      Temps:          6       0       0       0       0       0       0       0       0       0       0       0       
      +0       0
  6592 ;;      Totals:        10       6       0       0       0       0       0       0       0       0       0       0       
      +0       0
  6593 ;;Total ram usage:       16 bytes
  6594 ;; Hardware stack levels used: 1
  6595 ;; Hardware stack levels required when called: 1
  6596 ;; This function calls:
  6597 ;;		Nothing
  6598 ;; This function is called by:
  6599 ;;		_atanf
  6600 ;; This function uses a non-reentrant model
  6601 ;;
  6602                           
  6603     1F81                     ___fpclassifyf:	
  6604                           ;psect for function ___fpclassifyf
  6605                           
  6606     1F81                     l3256:	
  6607                           ;incstack = 0
  6608                           ; Regs used in ___fpclassifyf: [wreg+status,2+status,0]
  6609                           
  6610     1F81  0023               	movlb	3	; select bank3
  6611     1F82  0849               	movf	(___fpclassifyf@F465+3)^(0+384),w
  6612     1F83  0020               	movlb	0	; select bank0
  6613     1F84  00A5               	movwf	___fpclassifyf@u+3
  6614     1F85  0023               	movlb	3	; select bank3
  6615     1F86  0848               	movf	(___fpclassifyf@F465+2)^(0+384),w
  6616     1F87  0020               	movlb	0	; select bank0
  6617     1F88  00A4               	movwf	___fpclassifyf@u+2
  6618     1F89  0023               	movlb	3	; select bank3
  6619     1F8A  0847               	movf	(___fpclassifyf@F465+1)^(0+384),w
  6620     1F8B  0020               	movlb	0	; select bank0
  6621     1F8C  00A3               	movwf	___fpclassifyf@u+1
  6622     1F8D  0023               	movlb	3	; select bank3
  6623     1F8E  0846               	movf	___fpclassifyf@F465^(0+384),w
  6624     1F8F  0020               	movlb	0	; select bank0
  6625     1F90  00A2               	movwf	___fpclassifyf@u
  6626     1F91  0874               	movf	___fpclassifyf@x+3,w
  6627     1F92  00A5               	movwf	___fpclassifyf@u+3
  6628     1F93  0873               	movf	___fpclassifyf@x+2,w
  6629     1F94  00A4               	movwf	___fpclassifyf@u+2
  6630     1F95  0872               	movf	___fpclassifyf@x+1,w
  6631     1F96  00A3               	movwf	___fpclassifyf@u+1
  6632     1F97  0871               	movf	___fpclassifyf@x,w
  6633     1F98  00A2               	movwf	___fpclassifyf@u
  6634     1F99                     l3258:
  6635     1F99  0822               	movf	___fpclassifyf@u,w
  6636     1F9A  00F5               	movwf	??___fpclassifyf
  6637     1F9B  0823               	movf	___fpclassifyf@u+1,w
  6638     1F9C  00F6               	movwf	??___fpclassifyf+1
  6639     1F9D  0824               	movf	___fpclassifyf@u+2,w
  6640     1F9E  00F7               	movwf	??___fpclassifyf+2
  6641     1F9F  0825               	movf	___fpclassifyf@u+3,w
  6642     1FA0  00F8               	movwf	??___fpclassifyf+3
  6643     1FA1  3017               	movlw	23
  6644     1FA2                     u3695:
  6645     1FA2  36F8               	lsrf	??___fpclassifyf+3,f
  6646     1FA3  0CF7               	rrf	??___fpclassifyf+2,f
  6647     1FA4  0CF6               	rrf	??___fpclassifyf+1,f
  6648     1FA5  0CF5               	rrf	??___fpclassifyf,f
  6649     1FA6                     u3690:
  6650     1FA6  0B89               	decfsz	9,f
  6651     1FA7  2FA2               	goto	u3695
  6652     1FA8  30FF               	movlw	255
  6653     1FA9  0575               	andwf	??___fpclassifyf,w
  6654     1FAA  00A0               	movwf	___fpclassifyf@e
  6655     1FAB  3000               	movlw	0
  6656     1FAC  0576               	andwf	??___fpclassifyf+1,w
  6657     1FAD  00A1               	movwf	___fpclassifyf@e+1
  6658     1FAE                     l3260:
  6659     1FAE  0820               	movf	___fpclassifyf@e,w
  6660     1FAF  0421               	iorwf	___fpclassifyf@e+1,w
  6661     1FB0  1D03               	btfss	3,2
  6662     1FB1  2FB3               	goto	u3701
  6663     1FB2  2FB4               	goto	u3700
  6664     1FB3                     u3701:
  6665     1FB3  2FD5               	goto	l3270
  6666     1FB4                     u3700:
  6667     1FB4                     l3262:
  6668     1FB4  0822               	movf	___fpclassifyf@u,w
  6669     1FB5  00F5               	movwf	??___fpclassifyf
  6670     1FB6  0823               	movf	___fpclassifyf@u+1,w
  6671     1FB7  00F6               	movwf	??___fpclassifyf+1
  6672     1FB8  0824               	movf	___fpclassifyf@u+2,w
  6673     1FB9  00F7               	movwf	??___fpclassifyf+2
  6674     1FBA  0825               	movf	___fpclassifyf@u+3,w
  6675     1FBB  00F8               	movwf	??___fpclassifyf+3
  6676     1FBC  3001               	movlw	1
  6677     1FBD                     u3715:
  6678     1FBD  35F5               	lslf	??___fpclassifyf,f
  6679     1FBE  0DF6               	rlf	??___fpclassifyf+1,f
  6680     1FBF  0DF7               	rlf	??___fpclassifyf+2,f
  6681     1FC0  0DF8               	rlf	??___fpclassifyf+3,f
  6682     1FC1                     u3710:
  6683     1FC1  0B89               	decfsz	9,f
  6684     1FC2  2FBD               	goto	u3715
  6685     1FC3  0878               	movf	??___fpclassifyf+3,w
  6686     1FC4  0477               	iorwf	??___fpclassifyf+2,w
  6687     1FC5  0476               	iorwf	??___fpclassifyf+1,w
  6688     1FC6  0475               	iorwf	??___fpclassifyf,w
  6689     1FC7  1D03               	skipz
  6690     1FC8  2FCA               	goto	u3721
  6691     1FC9  2FCB               	goto	u3720
  6692     1FCA                     u3721:
  6693     1FCA  2FD0               	goto	l3266
  6694     1FCB                     u3720:
  6695     1FCB                     l3264:
  6696     1FCB  3002               	movlw	2
  6697     1FCC  00F1               	movwf	?___fpclassifyf
  6698     1FCD  3000               	movlw	0
  6699     1FCE  00F2               	movwf	?___fpclassifyf+1
  6700     1FCF  2FFF               	goto	l1122
  6701     1FD0                     l3266:
  6702     1FD0  3003               	movlw	3
  6703     1FD1  00F1               	movwf	?___fpclassifyf
  6704     1FD2  3000               	movlw	0
  6705     1FD3  00F2               	movwf	?___fpclassifyf+1
  6706     1FD4  2FFF               	goto	l1122
  6707     1FD5                     l3270:
  6708     1FD5  0A20               	incf	___fpclassifyf@e,w
  6709     1FD6  0421               	iorwf	___fpclassifyf@e+1,w
  6710     1FD7  1D03               	btfss	3,2
  6711     1FD8  2FDA               	goto	u3731
  6712     1FD9  2FDB               	goto	u3730
  6713     1FDA                     u3731:
  6714     1FDA  2FFB               	goto	l3276
  6715     1FDB                     u3730:
  6716     1FDB                     l3272:
  6717     1FDB  0822               	movf	___fpclassifyf@u,w
  6718     1FDC  00F5               	movwf	??___fpclassifyf
  6719     1FDD  0823               	movf	___fpclassifyf@u+1,w
  6720     1FDE  00F6               	movwf	??___fpclassifyf+1
  6721     1FDF  0824               	movf	___fpclassifyf@u+2,w
  6722     1FE0  00F7               	movwf	??___fpclassifyf+2
  6723     1FE1  0825               	movf	___fpclassifyf@u+3,w
  6724     1FE2  00F8               	movwf	??___fpclassifyf+3
  6725     1FE3  3009               	movlw	9
  6726     1FE4                     u3745:
  6727     1FE4  35F5               	lslf	??___fpclassifyf,f
  6728     1FE5  0DF6               	rlf	??___fpclassifyf+1,f
  6729     1FE6  0DF7               	rlf	??___fpclassifyf+2,f
  6730     1FE7  0DF8               	rlf	??___fpclassifyf+3,f
  6731     1FE8                     u3740:
  6732     1FE8  0B89               	decfsz	9,f
  6733     1FE9  2FE4               	goto	u3745
  6734     1FEA  0878               	movf	??___fpclassifyf+3,w
  6735     1FEB  0477               	iorwf	??___fpclassifyf+2,w
  6736     1FEC  0476               	iorwf	??___fpclassifyf+1,w
  6737     1FED  0475               	iorwf	??___fpclassifyf,w
  6738     1FEE  1903               	skipnz
  6739     1FEF  2FF1               	goto	u3751
  6740     1FF0  2FF3               	goto	u3750
  6741     1FF1                     u3751:
  6742     1FF1  3001               	movlw	1
  6743     1FF2  2FF4               	goto	u3760
  6744     1FF3                     u3750:
  6745     1FF3  3000               	movlw	0
  6746     1FF4                     u3760:
  6747     1FF4  00F9               	movwf	??___fpclassifyf+4
  6748     1FF5  01FA               	clrf	??___fpclassifyf+5
  6749     1FF6  0879               	movf	??___fpclassifyf+4,w
  6750     1FF7  00F1               	movwf	?___fpclassifyf
  6751     1FF8  087A               	movf	??___fpclassifyf+5,w
  6752     1FF9  00F2               	movwf	?___fpclassifyf+1
  6753     1FFA  2FFF               	goto	l1122
  6754     1FFB                     l3276:
  6755     1FFB  3004               	movlw	4
  6756     1FFC  00F1               	movwf	?___fpclassifyf
  6757     1FFD  3000               	movlw	0
  6758     1FFE  00F2               	movwf	?___fpclassifyf+1
  6759     1FFF                     l1122:
  6760     1FFF  0008               	return
  6761     2000                     __end_of___fpclassifyf:
  6762                           
  6763                           	psect	text6
  6764     1D22                     __ptext6:	
  6765 ;; *************** function ___flsub *****************
  6766 ;; Defined at:
  6767 ;;		line 242 in file "C:\Program Files\Microchip\xc8\v3.00\pic\sources\c99\common\sprcadd.c"
  6768 ;; Parameters:    Size  Location     Type
  6769 ;;  a               4    0[BANK1 ] int 
  6770 ;;  b               4    4[BANK1 ] int 
  6771 ;; Auto vars:     Size  Location     Type
  6772 ;;		None
  6773 ;; Return value:  Size  Location     Type
  6774 ;;                  4    0[BANK1 ] int 
  6775 ;; Registers used:
  6776 ;;		wreg, status,2, status,0, pclath, cstack
  6777 ;; Tracked objects:
  6778 ;;		On entry : 0/0
  6779 ;;		On exit  : 0/0
  6780 ;;		Unchanged: 0/0
  6781 ;; Data sizes:     COMMON   BANK0   BANK1   BANK2   BANK3   BANK4   BANK5   BANK6   BANK7   BANK8   BANK9  BANK10  BANK1
      +1  BANK12
  6782 ;;      Params:         0       0       8       0       0       0       0       0       0       0       0       0       
      +0       0
  6783 ;;      Locals:         0       0       0       0       0       0       0       0       0       0       0       0       
      +0       0
  6784 ;;      Temps:          0       0       0       0       0       0       0       0       0       0       0       0       
      +0       0
  6785 ;;      Totals:         0       0       8       0       0       0       0       0       0       0       0       0       
      +0       0
  6786 ;;Total ram usage:        8 bytes
  6787 ;; Hardware stack levels used: 1
  6788 ;; Hardware stack levels required when called: 2
  6789 ;; This function calls:
  6790 ;;		___fladd
  6791 ;; This function is called by:
  6792 ;;		_atanf
  6793 ;; This function uses a non-reentrant model
  6794 ;;
  6795                           
  6796     1D22                     ___flsub:	
  6797                           ;psect for function ___flsub
  6798                           
  6799     1D22                     l2970:	
  6800                           ;incstack = 0
  6801                           ; Regs used in ___flsub: [wreg+status,2+status,0+pclath+cstack]
  6802                           
  6803     1D22  3080               	movlw	128
  6804     1D23  0021               	movlb	1	; select bank1
  6805     1D24  06A3               	xorwf	(___flsub@a+3)^(0+128),f
  6806     1D25                     l2972:
  6807     1D25  0827               	movf	(___flsub@b+3)^(0+128),w
  6808     1D26  0020               	movlb	0	; select bank0
  6809     1D27  00D5               	movwf	___fladd@b+3
  6810     1D28  0021               	movlb	1	; select bank1
  6811     1D29  0826               	movf	(___flsub@b+2)^(0+128),w
  6812     1D2A  0020               	movlb	0	; select bank0
  6813     1D2B  00D4               	movwf	___fladd@b+2
  6814     1D2C  0021               	movlb	1	; select bank1
  6815     1D2D  0825               	movf	(___flsub@b+1)^(0+128),w
  6816     1D2E  0020               	movlb	0	; select bank0
  6817     1D2F  00D3               	movwf	___fladd@b+1
  6818     1D30  0021               	movlb	1	; select bank1
  6819     1D31  0824               	movf	___flsub@b^(0+128),w
  6820     1D32  0020               	movlb	0	; select bank0
  6821     1D33  00D2               	movwf	___fladd@b
  6822     1D34  0021               	movlb	1	; select bank1
  6823     1D35  0823               	movf	(___flsub@a+3)^(0+128),w
  6824     1D36  0020               	movlb	0	; select bank0
  6825     1D37  00D9               	movwf	___fladd@a+3
  6826     1D38  0021               	movlb	1	; select bank1
  6827     1D39  0822               	movf	(___flsub@a+2)^(0+128),w
  6828     1D3A  0020               	movlb	0	; select bank0
  6829     1D3B  00D8               	movwf	___fladd@a+2
  6830     1D3C  0021               	movlb	1	; select bank1
  6831     1D3D  0821               	movf	(___flsub@a+1)^(0+128),w
  6832     1D3E  0020               	movlb	0	; select bank0
  6833     1D3F  00D7               	movwf	___fladd@a+1
  6834     1D40  0021               	movlb	1	; select bank1
  6835     1D41  0820               	movf	___flsub@a^(0+128),w
  6836     1D42  0020               	movlb	0	; select bank0
  6837     1D43  00D6               	movwf	___fladd@a
  6838     1D44  3195  25F4  319D   	fcall	___fladd
  6839     1D47  0020               	movlb	0	; select bank0
  6840     1D48  0855               	movf	?___fladd+3,w
  6841     1D49  0021               	movlb	1	; select bank1
  6842     1D4A  00A3               	movwf	(?___flsub+3)^(0+128)
  6843     1D4B  0020               	movlb	0	; select bank0
  6844     1D4C  0854               	movf	?___fladd+2,w
  6845     1D4D  0021               	movlb	1	; select bank1
  6846     1D4E  00A2               	movwf	(?___flsub+2)^(0+128)
  6847     1D4F  0020               	movlb	0	; select bank0
  6848     1D50  0853               	movf	?___fladd+1,w
  6849     1D51  0021               	movlb	1	; select bank1
  6850     1D52  00A1               	movwf	(?___flsub+1)^(0+128)
  6851     1D53  0020               	movlb	0	; select bank0
  6852     1D54  0852               	movf	?___fladd,w
  6853     1D55  0021               	movlb	1	; select bank1
  6854     1D56  00A0               	movwf	?___flsub^(0+128)
  6855     1D57                     l961:
  6856     1D57  0008               	return
  6857     1D58                     __end_of___flsub:
  6858                           
  6859                           	psect	text7
  6860     15F4                     __ptext7:	
  6861 ;; *************** function ___fladd *****************
  6862 ;; Defined at:
  6863 ;;		line 10 in file "C:\Program Files\Microchip\xc8\v3.00\pic\sources\c99\common\sprcadd.c"
  6864 ;; Parameters:    Size  Location     Type
  6865 ;;  b               4   50[BANK0 ] int 
  6866 ;;  a               4   54[BANK0 ] int 
  6867 ;; Auto vars:     Size  Location     Type
  6868 ;;  grs             1   69[BANK0 ] unsigned char 
  6869 ;;  bexp            1   68[BANK0 ] unsigned char 
  6870 ;;  aexp            1   67[BANK0 ] unsigned char 
  6871 ;;  signs           1   66[BANK0 ] unsigned char 
  6872 ;; Return value:  Size  Location     Type
  6873 ;;                  4   50[BANK0 ] unsigned char 
  6874 ;; Registers used:
  6875 ;;		wreg, status,2, status,0
  6876 ;; Tracked objects:
  6877 ;;		On entry : 0/0
  6878 ;;		On exit  : 0/0
  6879 ;;		Unchanged: 0/0
  6880 ;; Data sizes:     COMMON   BANK0   BANK1   BANK2   BANK3   BANK4   BANK5   BANK6   BANK7   BANK8   BANK9  BANK10  BANK1
      +1  BANK12
  6881 ;;      Params:         0       8       0       0       0       0       0       0       0       0       0       0       
      +0       0
  6882 ;;      Locals:         0       4       0       0       0       0       0       0       0       0       0       0       
      +0       0
  6883 ;;      Temps:          0       8       0       0       0       0       0       0       0       0       0       0       
      +0       0
  6884 ;;      Totals:         0      20       0       0       0       0       0       0       0       0       0       0       
      +0       0
  6885 ;;Total ram usage:       20 bytes
  6886 ;; Hardware stack levels used: 1
  6887 ;; Hardware stack levels required when called: 1
  6888 ;; This function calls:
  6889 ;;		Nothing
  6890 ;; This function is called by:
  6891 ;;		_vectorCalculations
  6892 ;;		___flsub
  6893 ;;		_atanf
  6894 ;; This function uses a non-reentrant model
  6895 ;;
  6896                           
  6897     15F4                     ___fladd:	
  6898                           ;psect for function ___fladd
  6899                           
  6900     15F4                     l2734:	
  6901                           ;incstack = 0
  6902                           ; Regs used in ___fladd: [wreg+status,2+status,0]
  6903                           
  6904     15F4  0020               	movlb	0	; select bank0
  6905     15F5  0855               	movf	___fladd@b+3,w
  6906     15F6  3980               	andlw	128
  6907     15F7  00E2               	movwf	___fladd@signs
  6908     15F8                     l2736:
  6909     15F8  3555               	lslf	___fladd@b+3,w
  6910     15F9  00E4               	movwf	___fladd@bexp
  6911     15FA                     l2738:
  6912     15FA  1FD4               	btfss	___fladd@b+2,7
  6913     15FB  2DFD               	goto	u2591
  6914     15FC  2DFE               	goto	u2590
  6915     15FD                     u2591:
  6916     15FD  2DFF               	goto	l2742
  6917     15FE                     u2590:
  6918     15FE                     l2740:
  6919     15FE  1464               	bsf	___fladd@bexp,0
  6920     15FF                     l2742:
  6921     15FF  0864               	movf	___fladd@bexp,w
  6922     1600  1903               	btfsc	3,2
  6923     1601  2E03               	goto	u2601
  6924     1602  2E04               	goto	u2600
  6925     1603                     u2601:
  6926     1603  2E14               	goto	l2752
  6927     1604                     u2600:
  6928     1604                     l2744:
  6929     1604  0A64               	incf	___fladd@bexp,w
  6930     1605  1D03               	btfss	3,2
  6931     1606  2E08               	goto	u2611
  6932     1607  2E09               	goto	u2610
  6933     1608                     u2611:
  6934     1608  2E11               	goto	l2748
  6935     1609                     u2610:
  6936     1609                     l2746:
  6937     1609  3000               	movlw	0
  6938     160A  00D5               	movwf	___fladd@b+3
  6939     160B  3000               	movlw	0
  6940     160C  00D4               	movwf	___fladd@b+2
  6941     160D  3000               	movlw	0
  6942     160E  00D3               	movwf	___fladd@b+1
  6943     160F  3000               	movlw	0
  6944     1610  00D2               	movwf	___fladd@b
  6945     1611                     l2748:
  6946     1611  17D4               	bsf	___fladd@b+2,7
  6947     1612                     l2750:
  6948     1612  01D5               	clrf	___fladd@b+3
  6949     1613  2E1C               	goto	l2754
  6950     1614                     l2752:
  6951     1614  3000               	movlw	0
  6952     1615  00D5               	movwf	___fladd@b+3
  6953     1616  3000               	movlw	0
  6954     1617  00D4               	movwf	___fladd@b+2
  6955     1618  3000               	movlw	0
  6956     1619  00D3               	movwf	___fladd@b+1
  6957     161A  3000               	movlw	0
  6958     161B  00D2               	movwf	___fladd@b
  6959     161C                     l2754:
  6960     161C  0859               	movf	___fladd@a+3,w
  6961     161D  3980               	andlw	128
  6962     161E  00E3               	movwf	___fladd@aexp
  6963     161F                     l2756:
  6964     161F  0863               	movf	___fladd@aexp,w
  6965     1620  0662               	xorwf	___fladd@signs,w
  6966     1621  1903               	skipnz
  6967     1622  2E24               	goto	u2621
  6968     1623  2E25               	goto	u2620
  6969     1624                     u2621:
  6970     1624  2E26               	goto	l2760
  6971     1625                     u2620:
  6972     1625                     l2758:
  6973     1625  1762               	bsf	___fladd@signs,6
  6974     1626                     l2760:
  6975     1626  3559               	lslf	___fladd@a+3,w
  6976     1627  00E3               	movwf	___fladd@aexp
  6977     1628                     l2762:
  6978     1628  1FD8               	btfss	___fladd@a+2,7
  6979     1629  2E2B               	goto	u2631
  6980     162A  2E2C               	goto	u2630
  6981     162B                     u2631:
  6982     162B  2E2D               	goto	l2766
  6983     162C                     u2630:
  6984     162C                     l2764:
  6985     162C  1463               	bsf	___fladd@aexp,0
  6986     162D                     l2766:
  6987     162D  0863               	movf	___fladd@aexp,w
  6988     162E  1903               	btfsc	3,2
  6989     162F  2E31               	goto	u2641
  6990     1630  2E32               	goto	u2640
  6991     1631                     u2641:
  6992     1631  2E42               	goto	l2776
  6993     1632                     u2640:
  6994     1632                     l2768:
  6995     1632  0A63               	incf	___fladd@aexp,w
  6996     1633  1D03               	btfss	3,2
  6997     1634  2E36               	goto	u2651
  6998     1635  2E37               	goto	u2650
  6999     1636                     u2651:
  7000     1636  2E3F               	goto	l2772
  7001     1637                     u2650:
  7002     1637                     l2770:
  7003     1637  3000               	movlw	0
  7004     1638  00D9               	movwf	___fladd@a+3
  7005     1639  3000               	movlw	0
  7006     163A  00D8               	movwf	___fladd@a+2
  7007     163B  3000               	movlw	0
  7008     163C  00D7               	movwf	___fladd@a+1
  7009     163D  3000               	movlw	0
  7010     163E  00D6               	movwf	___fladd@a
  7011     163F                     l2772:
  7012     163F  17D8               	bsf	___fladd@a+2,7
  7013     1640                     l2774:
  7014     1640  01D9               	clrf	___fladd@a+3
  7015     1641  2E4A               	goto	l915
  7016     1642                     l2776:
  7017     1642  3000               	movlw	0
  7018     1643  00D9               	movwf	___fladd@a+3
  7019     1644  3000               	movlw	0
  7020     1645  00D8               	movwf	___fladd@a+2
  7021     1646  3000               	movlw	0
  7022     1647  00D7               	movwf	___fladd@a+1
  7023     1648  3000               	movlw	0
  7024     1649  00D6               	movwf	___fladd@a
  7025     164A                     l915:
  7026     164A  0864               	movf	___fladd@bexp,w
  7027     164B  0263               	subwf	___fladd@aexp,w
  7028     164C  1803               	skipnc
  7029     164D  2E4F               	goto	u2661
  7030     164E  2E50               	goto	u2660
  7031     164F                     u2661:
  7032     164F  2E74               	goto	l2812
  7033     1650                     u2660:
  7034     1650                     l2778:
  7035     1650  1F62               	btfss	___fladd@signs,6
  7036     1651  2E53               	goto	u2671
  7037     1652  2E54               	goto	u2670
  7038     1653                     u2671:
  7039     1653  2E56               	goto	l2782
  7040     1654                     u2670:
  7041     1654                     l2780:
  7042     1654  3080               	movlw	128
  7043     1655  06E2               	xorwf	___fladd@signs,f
  7044     1656                     l2782:
  7045     1656  0864               	movf	___fladd@bexp,w
  7046     1657  00E5               	movwf	___fladd@grs
  7047     1658                     l2784:
  7048     1658  0863               	movf	___fladd@aexp,w
  7049     1659  00E4               	movwf	___fladd@bexp
  7050     165A                     l2786:
  7051     165A  0865               	movf	___fladd@grs,w
  7052     165B  00E3               	movwf	___fladd@aexp
  7053     165C                     l2788:
  7054     165C  0852               	movf	___fladd@b,w
  7055     165D  00E5               	movwf	___fladd@grs
  7056     165E                     l2790:
  7057     165E  0856               	movf	___fladd@a,w
  7058     165F  00D2               	movwf	___fladd@b
  7059     1660                     l2792:
  7060     1660  0865               	movf	___fladd@grs,w
  7061     1661  00D6               	movwf	___fladd@a
  7062     1662                     l2794:
  7063     1662  0853               	movf	___fladd@b+1,w
  7064     1663  00E5               	movwf	___fladd@grs
  7065     1664                     l2796:
  7066     1664  0857               	movf	___fladd@a+1,w
  7067     1665  00D3               	movwf	___fladd@b+1
  7068     1666                     l2798:
  7069     1666  0865               	movf	___fladd@grs,w
  7070     1667  00D7               	movwf	___fladd@a+1
  7071     1668                     l2800:
  7072     1668  0854               	movf	___fladd@b+2,w
  7073     1669  00E5               	movwf	___fladd@grs
  7074     166A                     l2802:
  7075     166A  0858               	movf	___fladd@a+2,w
  7076     166B  00D4               	movwf	___fladd@b+2
  7077     166C                     l2804:
  7078     166C  0865               	movf	___fladd@grs,w
  7079     166D  00D8               	movwf	___fladd@a+2
  7080     166E                     l2806:
  7081     166E  0855               	movf	___fladd@b+3,w
  7082     166F  00E5               	movwf	___fladd@grs
  7083     1670                     l2808:
  7084     1670  0859               	movf	___fladd@a+3,w
  7085     1671  00D5               	movwf	___fladd@b+3
  7086     1672                     l2810:
  7087     1672  0865               	movf	___fladd@grs,w
  7088     1673  00D9               	movwf	___fladd@a+3
  7089     1674                     l2812:
  7090     1674  01E5               	clrf	___fladd@grs
  7091     1675                     l2814:
  7092     1675  0863               	movf	___fladd@aexp,w
  7093     1676  00DA               	movwf	??___fladd
  7094     1677  01DB               	clrf	??___fladd+1
  7095     1678  085B               	movf	??___fladd+1,w
  7096     1679  00DD               	movwf	??___fladd+3
  7097     167A  0864               	movf	___fladd@bexp,w
  7098     167B  025A               	subwf	??___fladd,w
  7099     167C  00DC               	movwf	??___fladd+2
  7100     167D  1C03               	skipc
  7101     167E  03DD               	decf	??___fladd+3,f
  7102     167F  085D               	movf	??___fladd+3,w
  7103     1680  3A80               	xorlw	128
  7104     1681  00DE               	movwf	??___fladd+4
  7105     1682  3080               	movlw	128
  7106     1683  025E               	subwf	??___fladd+4,w
  7107     1684  1D03               	skipz
  7108     1685  2E88               	goto	u2685
  7109     1686  301A               	movlw	26
  7110     1687  025C               	subwf	??___fladd+2,w
  7111     1688                     u2685:
  7112     1688  1C03               	skipc
  7113     1689  2E8B               	goto	u2681
  7114     168A  2E8C               	goto	u2680
  7115     168B                     u2681:
  7116     168B  2EC2               	goto	l2830
  7117     168C                     u2680:
  7118     168C                     l2816:
  7119     168C  0020               	movlb	0	; select bank0
  7120     168D  0855               	movf	___fladd@b+3,w
  7121     168E  0454               	iorwf	___fladd@b+2,w
  7122     168F  0453               	iorwf	___fladd@b+1,w
  7123     1690  0452               	iorwf	___fladd@b,w
  7124     1691  1D03               	skipz
  7125     1692  2E94               	goto	u2691
  7126     1693  2E96               	goto	u2690
  7127     1694                     u2691:
  7128     1694  3001               	movlw	1
  7129     1695  2E97               	goto	u2700
  7130     1696                     u2690:
  7131     1696  3000               	movlw	0
  7132     1697                     u2700:
  7133     1697  00E5               	movwf	___fladd@grs
  7134     1698  3000               	movlw	0
  7135     1699  00D5               	movwf	___fladd@b+3
  7136     169A  3000               	movlw	0
  7137     169B  00D4               	movwf	___fladd@b+2
  7138     169C  3000               	movlw	0
  7139     169D  00D3               	movwf	___fladd@b+1
  7140     169E  3000               	movlw	0
  7141     169F  00D2               	movwf	___fladd@b
  7142     16A0  0863               	movf	___fladd@aexp,w
  7143     16A1  00E4               	movwf	___fladd@bexp
  7144     16A2  2EC9               	goto	l919
  7145     16A3                     l921:
  7146     16A3  1C65               	btfss	___fladd@grs,0
  7147     16A4  2EA6               	goto	u2711
  7148     16A5  2EA7               	goto	u2710
  7149     16A6                     u2711:
  7150     16A6  2EB1               	goto	l2820
  7151     16A7                     u2710:
  7152     16A7                     l2818:
  7153     16A7  0865               	movf	___fladd@grs,w
  7154     16A8  00DA               	movwf	??___fladd
  7155     16A9  3001               	movlw	1
  7156     16AA                     u2725:
  7157     16AA  36DA               	lsrf	??___fladd,f
  7158     16AB  0B89               	decfsz	9,f
  7159     16AC  2EAA               	goto	u2725
  7160     16AD  085A               	movf	??___fladd,w
  7161     16AE  3801               	iorlw	1
  7162     16AF  00E5               	movwf	___fladd@grs
  7163     16B0  2EB3               	goto	l2822
  7164     16B1                     l2820:
  7165     16B1  1003               	clrc
  7166     16B2  0CE5               	rrf	___fladd@grs,f
  7167     16B3                     l2822:
  7168     16B3  1C52               	btfss	___fladd@b,0
  7169     16B4  2EB6               	goto	u2731
  7170     16B5  2EB7               	goto	u2730
  7171     16B6                     u2731:
  7172     16B6  2EB8               	goto	l2826
  7173     16B7                     u2730:
  7174     16B7                     l2824:
  7175     16B7  17E5               	bsf	___fladd@grs,7
  7176     16B8                     l2826:
  7177     16B8  3001               	movlw	1
  7178     16B9  00DA               	movwf	??___fladd
  7179     16BA                     u2745:
  7180     16BA  37D5               	asrf	___fladd@b+3,f
  7181     16BB  0CD4               	rrf	___fladd@b+2,f
  7182     16BC  0CD3               	rrf	___fladd@b+1,f
  7183     16BD  0CD2               	rrf	___fladd@b,f
  7184     16BE  0BDA               	decfsz	??___fladd& (0+127),f
  7185     16BF  2EBA               	goto	u2745
  7186     16C0                     l2828:
  7187     16C0  3001               	movlw	1
  7188     16C1  07E4               	addwf	___fladd@bexp,f
  7189     16C2                     l2830:
  7190     16C2  0020               	movlb	0	; select bank0
  7191     16C3  0863               	movf	___fladd@aexp,w
  7192     16C4  0264               	subwf	___fladd@bexp,w
  7193     16C5  1C03               	skipc
  7194     16C6  2EC8               	goto	u2751
  7195     16C7  2EC9               	goto	u2750
  7196     16C8                     u2751:
  7197     16C8  2EA3               	goto	l921
  7198     16C9                     u2750:
  7199     16C9                     l919:
  7200     16C9  1B62               	btfsc	___fladd@signs,6
  7201     16CA  2ECC               	goto	u2761
  7202     16CB  2ECD               	goto	u2760
  7203     16CC                     u2761:
  7204     16CC  2F07               	goto	l2856
  7205     16CD                     u2760:
  7206     16CD                     l2832:
  7207     16CD  0864               	movf	___fladd@bexp,w
  7208     16CE  1D03               	btfss	3,2
  7209     16CF  2ED1               	goto	u2771
  7210     16D0  2ED2               	goto	u2770
  7211     16D1                     u2771:
  7212     16D1  2EDB               	goto	l2838
  7213     16D2                     u2770:
  7214     16D2                     l2834:
  7215     16D2  3000               	movlw	0
  7216     16D3  00D5               	movwf	?___fladd+3
  7217     16D4  3000               	movlw	0
  7218     16D5  00D4               	movwf	?___fladd+2
  7219     16D6  3000               	movlw	0
  7220     16D7  00D3               	movwf	?___fladd+1
  7221     16D8  3000               	movlw	0
  7222     16D9  00D2               	movwf	?___fladd
  7223     16DA  2FFF               	goto	l928
  7224     16DB                     l2838:
  7225     16DB  0856               	movf	___fladd@a,w
  7226     16DC  07D2               	addwf	___fladd@b,f
  7227     16DD  0857               	movf	___fladd@a+1,w
  7228     16DE  3DD3               	addwfc	___fladd@b+1,f
  7229     16DF  0858               	movf	___fladd@a+2,w
  7230     16E0  3DD4               	addwfc	___fladd@b+2,f
  7231     16E1  0859               	movf	___fladd@a+3,w
  7232     16E2  3DD5               	addwfc	___fladd@b+3,f
  7233     16E3                     l2840:
  7234     16E3  1C55               	btfss	___fladd@b+3,0
  7235     16E4  2EE6               	goto	u2781
  7236     16E5  2EE7               	goto	u2780
  7237     16E6                     u2781:
  7238     16E6  2F91               	goto	l2892
  7239     16E7                     u2780:
  7240     16E7                     l2842:
  7241     16E7  1C65               	btfss	___fladd@grs,0
  7242     16E8  2EEA               	goto	u2791
  7243     16E9  2EEB               	goto	u2790
  7244     16EA                     u2791:
  7245     16EA  2EF5               	goto	l2846
  7246     16EB                     u2790:
  7247     16EB                     l2844:
  7248     16EB  0865               	movf	___fladd@grs,w
  7249     16EC  00DA               	movwf	??___fladd
  7250     16ED  3001               	movlw	1
  7251     16EE                     u2805:
  7252     16EE  36DA               	lsrf	??___fladd,f
  7253     16EF  0B89               	decfsz	9,f
  7254     16F0  2EEE               	goto	u2805
  7255     16F1  085A               	movf	??___fladd,w
  7256     16F2  3801               	iorlw	1
  7257     16F3  00E5               	movwf	___fladd@grs
  7258     16F4  2EF7               	goto	l2848
  7259     16F5                     l2846:
  7260     16F5  1003               	clrc
  7261     16F6  0CE5               	rrf	___fladd@grs,f
  7262     16F7                     l2848:
  7263     16F7  1C52               	btfss	___fladd@b,0
  7264     16F8  2EFA               	goto	u2811
  7265     16F9  2EFB               	goto	u2810
  7266     16FA                     u2811:
  7267     16FA  2EFC               	goto	l2852
  7268     16FB                     u2810:
  7269     16FB                     l2850:
  7270     16FB  17E5               	bsf	___fladd@grs,7
  7271     16FC                     l2852:
  7272     16FC  3001               	movlw	1
  7273     16FD  00DA               	movwf	??___fladd
  7274     16FE                     u2825:
  7275     16FE  37D5               	asrf	___fladd@b+3,f
  7276     16FF  0CD4               	rrf	___fladd@b+2,f
  7277     1700  0CD3               	rrf	___fladd@b+1,f
  7278     1701  0CD2               	rrf	___fladd@b,f
  7279     1702  0BDA               	decfsz	??___fladd& (0+127),f
  7280     1703  2EFE               	goto	u2825
  7281     1704                     l2854:
  7282     1704  3001               	movlw	1
  7283     1705  07E4               	addwf	___fladd@bexp,f
  7284     1706  2F91               	goto	l2892
  7285     1707                     l2856:
  7286     1707  0855               	movf	___fladd@b+3,w
  7287     1708  3A80               	xorlw	128
  7288     1709  00DA               	movwf	??___fladd
  7289     170A  0859               	movf	___fladd@a+3,w
  7290     170B  3A80               	xorlw	128
  7291     170C  025A               	subwf	??___fladd,w
  7292     170D  1D03               	skipz
  7293     170E  2F19               	goto	u2833
  7294     170F  0858               	movf	___fladd@a+2,w
  7295     1710  0254               	subwf	___fladd@b+2,w
  7296     1711  1D03               	skipz
  7297     1712  2F19               	goto	u2833
  7298     1713  0857               	movf	___fladd@a+1,w
  7299     1714  0253               	subwf	___fladd@b+1,w
  7300     1715  1D03               	skipz
  7301     1716  2F19               	goto	u2833
  7302     1717  0856               	movf	___fladd@a,w
  7303     1718  0252               	subwf	___fladd@b,w
  7304     1719                     u2833:
  7305     1719  1803               	skipnc
  7306     171A  2F1C               	goto	u2831
  7307     171B  2F1D               	goto	u2830
  7308     171C                     u2831:
  7309     171C  2F52               	goto	l2868
  7310     171D                     u2830:
  7311     171D                     l2858:
  7312     171D  30FF               	movlw	255
  7313     171E  00DA               	movwf	??___fladd
  7314     171F  30FF               	movlw	255
  7315     1720  00DB               	movwf	??___fladd+1
  7316     1721  30FF               	movlw	255
  7317     1722  00DC               	movwf	??___fladd+2
  7318     1723  30FF               	movlw	255
  7319     1724  00DD               	movwf	??___fladd+3
  7320     1725  0852               	movf	___fladd@b,w
  7321     1726  0256               	subwf	___fladd@a,w
  7322     1727  00DE               	movwf	??___fladd+4
  7323     1728  0853               	movf	___fladd@b+1,w
  7324     1729  3B57               	subwfb	___fladd@a+1,w
  7325     172A  00DF               	movwf	??___fladd+5
  7326     172B  0854               	movf	___fladd@b+2,w
  7327     172C  3B58               	subwfb	___fladd@a+2,w
  7328     172D  00E0               	movwf	??___fladd+6
  7329     172E  0855               	movf	___fladd@b+3,w
  7330     172F  3B59               	subwfb	___fladd@a+3,w
  7331     1730  00E1               	movwf	??___fladd+7
  7332     1731  085E               	movf	??___fladd+4,w
  7333     1732  07DA               	addwf	??___fladd,f
  7334     1733  085F               	movf	??___fladd+5,w
  7335     1734  3DDB               	addwfc	??___fladd+1,f
  7336     1735  0860               	movf	??___fladd+6,w
  7337     1736  3DDC               	addwfc	??___fladd+2,f
  7338     1737  0861               	movf	??___fladd+7,w
  7339     1738  3DDD               	addwfc	??___fladd+3,f
  7340     1739  085D               	movf	??___fladd+3,w
  7341     173A  00D5               	movwf	___fladd@b+3
  7342     173B  085C               	movf	??___fladd+2,w
  7343     173C  00D4               	movwf	___fladd@b+2
  7344     173D  085B               	movf	??___fladd+1,w
  7345     173E  00D3               	movwf	___fladd@b+1
  7346     173F  085A               	movf	??___fladd,w
  7347     1740  00D2               	movwf	___fladd@b
  7348     1741                     l2860:
  7349     1741  3080               	movlw	128
  7350     1742  06E2               	xorwf	___fladd@signs,f
  7351     1743                     l2862:
  7352     1743  0365               	decf	___fladd@grs,w
  7353     1744  3AFF               	xorlw	255
  7354     1745  00E5               	movwf	___fladd@grs
  7355     1746                     l2864:
  7356     1746  0865               	movf	___fladd@grs,w
  7357     1747  1D03               	btfss	3,2
  7358     1748  2F4A               	goto	u2841
  7359     1749  2F4B               	goto	u2840
  7360     174A                     u2841:
  7361     174A  2F5A               	goto	l936
  7362     174B                     u2840:
  7363     174B                     l2866:
  7364     174B  3001               	movlw	1
  7365     174C  07D2               	addwf	___fladd@b,f
  7366     174D  3000               	movlw	0
  7367     174E  3DD3               	addwfc	___fladd@b+1,f
  7368     174F  3DD4               	addwfc	___fladd@b+2,f
  7369     1750  3DD5               	addwfc	___fladd@b+3,f
  7370     1751  2F5A               	goto	l936
  7371     1752                     l2868:
  7372     1752  0856               	movf	___fladd@a,w
  7373     1753  02D2               	subwf	___fladd@b,f
  7374     1754  0857               	movf	___fladd@a+1,w
  7375     1755  3BD3               	subwfb	___fladd@b+1,f
  7376     1756  0858               	movf	___fladd@a+2,w
  7377     1757  3BD4               	subwfb	___fladd@b+2,f
  7378     1758  0859               	movf	___fladd@a+3,w
  7379     1759  3BD5               	subwfb	___fladd@b+3,f
  7380     175A                     l936:
  7381     175A  0855               	movf	___fladd@b+3,w
  7382     175B  0454               	iorwf	___fladd@b+2,w
  7383     175C  0453               	iorwf	___fladd@b+1,w
  7384     175D  0452               	iorwf	___fladd@b,w
  7385     175E  1D03               	skipz
  7386     175F  2F61               	goto	u2851
  7387     1760  2F62               	goto	u2850
  7388     1761                     u2851:
  7389     1761  2F8D               	goto	l2890
  7390     1762                     u2850:
  7391     1762                     l2870:
  7392     1762  0865               	movf	___fladd@grs,w
  7393     1763  1D03               	btfss	3,2
  7394     1764  2F66               	goto	u2861
  7395     1765  2F67               	goto	u2860
  7396     1766                     u2861:
  7397     1766  2F8D               	goto	l2890
  7398     1767                     u2860:
  7399     1767                     l2872:
  7400     1767  3000               	movlw	0
  7401     1768  00D5               	movwf	?___fladd+3
  7402     1769  3000               	movlw	0
  7403     176A  00D4               	movwf	?___fladd+2
  7404     176B  3000               	movlw	0
  7405     176C  00D3               	movwf	?___fladd+1
  7406     176D  3000               	movlw	0
  7407     176E  00D2               	movwf	?___fladd
  7408     176F  2FFF               	goto	l928
  7409     1770                     l2876:
  7410     1770  3001               	movlw	1
  7411     1771                     u2875:
  7412     1771  35D2               	lslf	___fladd@b,f
  7413     1772  0DD3               	rlf	___fladd@b+1,f
  7414     1773  0DD4               	rlf	___fladd@b+2,f
  7415     1774  0DD5               	rlf	___fladd@b+3,f
  7416     1775  0B89               	decfsz	9,f
  7417     1776  2F71               	goto	u2875
  7418     1777                     l2878:
  7419     1777  1FE5               	btfss	___fladd@grs,7
  7420     1778  2F7A               	goto	u2881
  7421     1779  2F7B               	goto	u2880
  7422     177A                     u2881:
  7423     177A  2F7C               	goto	l940
  7424     177B                     u2880:
  7425     177B                     l2880:
  7426     177B  1452               	bsf	___fladd@b,0
  7427     177C                     l940:
  7428     177C  1C65               	btfss	___fladd@grs,0
  7429     177D  2F7F               	goto	u2891
  7430     177E  2F80               	goto	u2890
  7431     177F                     u2891:
  7432     177F  2F84               	goto	l2884
  7433     1780                     u2890:
  7434     1780                     l2882:
  7435     1780  1403               	setc
  7436     1781  0D65               	rlf	___fladd@grs,w
  7437     1782  00E5               	movwf	___fladd@grs
  7438     1783  2F86               	goto	l2886
  7439     1784                     l2884:
  7440     1784  1003               	clrc
  7441     1785  0DE5               	rlf	___fladd@grs,f
  7442     1786                     l2886:
  7443     1786  0864               	movf	___fladd@bexp,w
  7444     1787  1903               	btfsc	3,2
  7445     1788  2F8A               	goto	u2901
  7446     1789  2F8B               	goto	u2900
  7447     178A                     u2901:
  7448     178A  2F8D               	goto	l2890
  7449     178B                     u2900:
  7450     178B                     l2888:
  7451     178B  3001               	movlw	1
  7452     178C  02E4               	subwf	___fladd@bexp,f
  7453     178D                     l2890:
  7454     178D  1FD4               	btfss	___fladd@b+2,7
  7455     178E  2F90               	goto	u2911
  7456     178F  2F91               	goto	u2910
  7457     1790                     u2911:
  7458     1790  2F70               	goto	l2876
  7459     1791                     u2910:
  7460     1791                     l2892:
  7461     1791  01E3               	clrf	___fladd@aexp
  7462     1792                     l2894:
  7463     1792  1FE5               	btfss	___fladd@grs,7
  7464     1793  2F95               	goto	u2921
  7465     1794  2F96               	goto	u2920
  7466     1795                     u2921:
  7467     1795  2FA4               	goto	l2902
  7468     1796                     u2920:
  7469     1796                     l2896:
  7470     1796  0865               	movf	___fladd@grs,w
  7471     1797  397F               	andlw	127
  7472     1798  1903               	btfsc	3,2
  7473     1799  2F9B               	goto	u2931
  7474     179A  2F9C               	goto	u2930
  7475     179B                     u2931:
  7476     179B  2F9F               	goto	l946
  7477     179C                     u2930:
  7478     179C                     l2898:
  7479     179C  3001               	movlw	1
  7480     179D  00E3               	movwf	___fladd@aexp
  7481     179E  2FA4               	goto	l2902
  7482     179F                     l946:
  7483     179F  1C52               	btfss	___fladd@b,0
  7484     17A0  2FA2               	goto	u2941
  7485     17A1  2FA3               	goto	u2940
  7486     17A2                     u2941:
  7487     17A2  2FA4               	goto	l2902
  7488     17A3                     u2940:
  7489     17A3  2F9C               	goto	l2898
  7490     17A4                     l2902:
  7491     17A4  0863               	movf	___fladd@aexp,w
  7492     17A5  1903               	btfsc	3,2
  7493     17A6  2FA8               	goto	u2951
  7494     17A7  2FA9               	goto	u2950
  7495     17A8                     u2951:
  7496     17A8  2FD2               	goto	l949
  7497     17A9                     u2950:
  7498     17A9                     l2904:
  7499     17A9  3001               	movlw	1
  7500     17AA  07D2               	addwf	___fladd@b,f
  7501     17AB  3000               	movlw	0
  7502     17AC  3DD3               	addwfc	___fladd@b+1,f
  7503     17AD  3DD4               	addwfc	___fladd@b+2,f
  7504     17AE  3DD5               	addwfc	___fladd@b+3,f
  7505     17AF                     l2906:
  7506     17AF  1C55               	btfss	___fladd@b+3,0
  7507     17B0  2FB2               	goto	u2961
  7508     17B1  2FB3               	goto	u2960
  7509     17B2                     u2961:
  7510     17B2  2FD2               	goto	l949
  7511     17B3                     u2960:
  7512     17B3                     l2908:
  7513     17B3  0852               	movf	___fladd@b,w
  7514     17B4  00DA               	movwf	??___fladd
  7515     17B5  0853               	movf	___fladd@b+1,w
  7516     17B6  00DB               	movwf	??___fladd+1
  7517     17B7  0854               	movf	___fladd@b+2,w
  7518     17B8  00DC               	movwf	??___fladd+2
  7519     17B9  0855               	movf	___fladd@b+3,w
  7520     17BA  00DD               	movwf	??___fladd+3
  7521     17BB  3001               	movlw	1
  7522     17BC  00DE               	movwf	??___fladd+4
  7523     17BD                     u2975:
  7524     17BD  37DD               	asrf	??___fladd+3,f
  7525     17BE  0CDC               	rrf	??___fladd+2,f
  7526     17BF  0CDB               	rrf	??___fladd+1,f
  7527     17C0  0CDA               	rrf	??___fladd,f
  7528     17C1                     u2970:
  7529     17C1  0BDE               	decfsz	??___fladd+4,f
  7530     17C2  2FBD               	goto	u2975
  7531     17C3  085D               	movf	??___fladd+3,w
  7532     17C4  00D5               	movwf	___fladd@b+3
  7533     17C5  085C               	movf	??___fladd+2,w
  7534     17C6  00D4               	movwf	___fladd@b+2
  7535     17C7  085B               	movf	??___fladd+1,w
  7536     17C8  00D3               	movwf	___fladd@b+1
  7537     17C9  085A               	movf	??___fladd,w
  7538     17CA  00D2               	movwf	___fladd@b
  7539     17CB  0A64               	incf	___fladd@bexp,w
  7540     17CC  1903               	btfsc	3,2
  7541     17CD  2FCF               	goto	u2981
  7542     17CE  2FD0               	goto	u2980
  7543     17CF                     u2981:
  7544     17CF  2FD2               	goto	l949
  7545     17D0                     u2980:
  7546     17D0                     l2910:
  7547     17D0  3001               	movlw	1
  7548     17D1  07E4               	addwf	___fladd@bexp,f
  7549     17D2                     l949:
  7550     17D2  0A64               	incf	___fladd@bexp,w
  7551     17D3  1903               	btfsc	3,2
  7552     17D4  2FD6               	goto	u2991
  7553     17D5  2FD7               	goto	u2990
  7554     17D6                     u2991:
  7555     17D6  2FDC               	goto	l2914
  7556     17D7                     u2990:
  7557     17D7                     l2912:
  7558     17D7  0864               	movf	___fladd@bexp,w
  7559     17D8  1D03               	btfss	3,2
  7560     17D9  2FDB               	goto	u3001
  7561     17DA  2FDC               	goto	u3000
  7562     17DB                     u3001:
  7563     17DB  2FEA               	goto	l2920
  7564     17DC                     u3000:
  7565     17DC                     l2914:
  7566     17DC  3000               	movlw	0
  7567     17DD  00D5               	movwf	___fladd@b+3
  7568     17DE  3000               	movlw	0
  7569     17DF  00D4               	movwf	___fladd@b+2
  7570     17E0  3000               	movlw	0
  7571     17E1  00D3               	movwf	___fladd@b+1
  7572     17E2  3000               	movlw	0
  7573     17E3  00D2               	movwf	___fladd@b
  7574     17E4                     l2916:
  7575     17E4  0864               	movf	___fladd@bexp,w
  7576     17E5  1D03               	btfss	3,2
  7577     17E6  2FE8               	goto	u3011
  7578     17E7  2FE9               	goto	u3010
  7579     17E8                     u3011:
  7580     17E8  2FEA               	goto	l2920
  7581     17E9                     u3010:
  7582     17E9                     l2918:
  7583     17E9  01E2               	clrf	___fladd@signs
  7584     17EA                     l2920:
  7585     17EA  1C64               	btfss	___fladd@bexp,0
  7586     17EB  2FED               	goto	u3021
  7587     17EC  2FEE               	goto	u3020
  7588     17ED                     u3021:
  7589     17ED  2FF0               	goto	l2924
  7590     17EE                     u3020:
  7591     17EE                     l2922:
  7592     17EE  17D4               	bsf	___fladd@b+2,7
  7593     17EF  2FF2               	goto	l957
  7594     17F0                     l2924:
  7595     17F0  307F               	movlw	127
  7596     17F1  05D4               	andwf	___fladd@b+2,f
  7597     17F2                     l957:
  7598     17F2  0864               	movf	___fladd@bexp,w
  7599     17F3  00DA               	movwf	??___fladd
  7600     17F4  3001               	movlw	1
  7601     17F5                     u3035:
  7602     17F5  36DA               	lsrf	??___fladd,f
  7603     17F6  0B89               	decfsz	9,f
  7604     17F7  2FF5               	goto	u3035
  7605     17F8  085A               	movf	??___fladd,w
  7606     17F9  00D5               	movwf	___fladd@b+3
  7607     17FA                     l2926:
  7608     17FA  1FE2               	btfss	___fladd@signs,7
  7609     17FB  2FFD               	goto	u3041
  7610     17FC  2FFE               	goto	u3040
  7611     17FD                     u3041:
  7612     17FD  2FFF               	goto	l958
  7613     17FE                     u3040:
  7614     17FE                     l2928:
  7615     17FE  17D5               	bsf	___fladd@b+3,7
  7616     17FF                     l958:
  7617     17FF                     l928:
  7618     17FF  0008               	return
  7619     1800                     __end_of___fladd:
  7620                           
  7621                           	psect	text8
  7622     1BB4                     __ptext8:	
  7623 ;; *************** function ___flneg *****************
  7624 ;; Defined at:
  7625 ;;		line 15 in file "C:\Program Files\Microchip\xc8\v3.00\pic\sources\c99\common\flneg.c"
  7626 ;; Parameters:    Size  Location     Type
  7627 ;;  f1              4    1[COMMON] unsigned char 
  7628 ;; Auto vars:     Size  Location     Type
  7629 ;;		None
  7630 ;; Return value:  Size  Location     Type
  7631 ;;                  4    1[COMMON] unsigned char 
  7632 ;; Registers used:
  7633 ;;		wreg
  7634 ;; Tracked objects:
  7635 ;;		On entry : 0/0
  7636 ;;		On exit  : 0/0
  7637 ;;		Unchanged: 0/0
  7638 ;; Data sizes:     COMMON   BANK0   BANK1   BANK2   BANK3   BANK4   BANK5   BANK6   BANK7   BANK8   BANK9  BANK10  BANK1
      +1  BANK12
  7639 ;;      Params:         4       0       0       0       0       0       0       0       0       0       0       0       
      +0       0
  7640 ;;      Locals:         0       0       0       0       0       0       0       0       0       0       0       0       
      +0       0
  7641 ;;      Temps:          0       0       0       0       0       0       0       0       0       0       0       0       
      +0       0
  7642 ;;      Totals:         4       0       0       0       0       0       0       0       0       0       0       0       
      +0       0
  7643 ;;Total ram usage:        4 bytes
  7644 ;; Hardware stack levels used: 1
  7645 ;; Hardware stack levels required when called: 1
  7646 ;; This function calls:
  7647 ;;		Nothing
  7648 ;; This function is called by:
  7649 ;;		_atanf
  7650 ;; This function uses a non-reentrant model
  7651 ;;
  7652                           
  7653     1BB4                     ___flneg:	
  7654                           ;psect for function ___flneg
  7655                           
  7656     1BB4                     l2962:	
  7657                           ;incstack = 0
  7658                           ; Regs used in ___flneg: [wreg]
  7659                           
  7660     1BB4  0874               	movf	___flneg@f1+3,w
  7661     1BB5  0473               	iorwf	___flneg@f1+2,w
  7662     1BB6  0472               	iorwf	___flneg@f1+1,w
  7663     1BB7  0471               	iorwf	___flneg@f1,w
  7664     1BB8  1903               	skipnz
  7665     1BB9  2BBB               	goto	u3111
  7666     1BBA  2BBC               	goto	u3110
  7667     1BBB                     u3111:
  7668     1BBB  2BBE               	goto	l2966
  7669     1BBC                     u3110:
  7670     1BBC                     l2964:
  7671     1BBC  3080               	movlw	128
  7672     1BBD  06F4               	xorwf	___flneg@f1+3,f
  7673     1BBE                     l2966:
  7674     1BBE                     l804:
  7675     1BBE  0008               	return
  7676     1BBF                     __end_of___flneg:
  7677                           
  7678                           	psect	text9
  7679     0831                     __ptext9:	
  7680 ;; *************** function ___flmul *****************
  7681 ;; Defined at:
  7682 ;;		line 8 in file "C:\Program Files\Microchip\xc8\v3.00\pic\sources\c99\common\sprcmul.c"
  7683 ;; Parameters:    Size  Location     Type
  7684 ;;  b               4   70[BANK0 ] unsigned char 
  7685 ;;  a               4   74[BANK0 ] unsigned char 
  7686 ;; Auto vars:     Size  Location     Type
  7687 ;;  prod            4   12[BANK1 ] struct .
  7688 ;;  grs             4    6[BANK1 ] unsigned long 
  7689 ;;  temp            2   16[BANK1 ] struct .
  7690 ;;  bexp            1   11[BANK1 ] unsigned char 
  7691 ;;  aexp            1   10[BANK1 ] unsigned char 
  7692 ;;  sign            1    5[BANK1 ] unsigned char 
  7693 ;; Return value:  Size  Location     Type
  7694 ;;                  4   70[BANK0 ] unsigned char 
  7695 ;; Registers used:
  7696 ;;		wreg, status,2, status,0, pclath, cstack
  7697 ;; Tracked objects:
  7698 ;;		On entry : 0/0
  7699 ;;		On exit  : 0/0
  7700 ;;		Unchanged: 0/0
  7701 ;; Data sizes:     COMMON   BANK0   BANK1   BANK2   BANK3   BANK4   BANK5   BANK6   BANK7   BANK8   BANK9  BANK10  BANK1
      +1  BANK12
  7702 ;;      Params:         0       8       0       0       0       0       0       0       0       0       0       0       
      +0       0
  7703 ;;      Locals:         0       0      13       0       0       0       0       0       0       0       0       0       
      +0       0
  7704 ;;      Temps:          0       0       5       0       0       0       0       0       0       0       0       0       
      +0       0
  7705 ;;      Totals:         0       8      18       0       0       0       0       0       0       0       0       0       
      +0       0
  7706 ;;Total ram usage:       26 bytes
  7707 ;; Hardware stack levels used: 1
  7708 ;; Hardware stack levels required when called: 2
  7709 ;; This function calls:
  7710 ;;		__Umul8_16
  7711 ;; This function is called by:
  7712 ;;		_vectorCalculations
  7713 ;;		_atanf
  7714 ;; This function uses a non-reentrant model
  7715 ;;
  7716                           
  7717     0831                     ___flmul:	
  7718                           ;psect for function ___flmul
  7719                           
  7720     0831                     l3116:	
  7721                           ;incstack = 0
  7722                           ; Regs used in ___flmul: [wreg+status,2+status,0+pclath+cstack]
  7723                           
  7724     0831  0020               	movlb	0	; select bank0
  7725     0832  0869               	movf	___flmul@b+3,w
  7726     0833  3980               	andlw	128
  7727     0834  0021               	movlb	1	; select bank1
  7728     0835  00A5               	movwf	___flmul@sign^(0+128)
  7729     0836                     l3118:
  7730     0836  0020               	movlb	0	; select bank0
  7731     0837  3569               	lslf	___flmul@b+3,w
  7732     0838  0021               	movlb	1	; select bank1
  7733     0839  00AB               	movwf	___flmul@bexp^(0+128)
  7734     083A                     l3120:
  7735     083A  0020               	movlb	0	; select bank0
  7736     083B  1FE8               	btfss	___flmul@b+2,7
  7737     083C  283E               	goto	u3421
  7738     083D  283F               	goto	u3420
  7739     083E                     u3421:
  7740     083E  2841               	goto	l3124
  7741     083F                     u3420:
  7742     083F                     l3122:
  7743     083F  0021               	movlb	1	; select bank1
  7744     0840  142B               	bsf	___flmul@bexp^(0+128),0
  7745     0841                     l3124:
  7746     0841  0021               	movlb	1	; select bank1
  7747     0842  082B               	movf	___flmul@bexp^(0+128),w
  7748     0843  1903               	btfsc	3,2
  7749     0844  2846               	goto	u3431
  7750     0845  2847               	goto	u3430
  7751     0846                     u3431:
  7752     0846  2858               	goto	l3132
  7753     0847                     u3430:
  7754     0847                     l3126:
  7755     0847  0A2B               	incf	___flmul@bexp^(0+128),w
  7756     0848  1D03               	btfss	3,2
  7757     0849  284B               	goto	u3441
  7758     084A  284C               	goto	u3440
  7759     084B                     u3441:
  7760     084B  2855               	goto	l3130
  7761     084C                     u3440:
  7762     084C                     l3128:
  7763     084C  3000               	movlw	0
  7764     084D  0020               	movlb	0	; select bank0
  7765     084E  00E9               	movwf	___flmul@b+3
  7766     084F  3000               	movlw	0
  7767     0850  00E8               	movwf	___flmul@b+2
  7768     0851  3000               	movlw	0
  7769     0852  00E7               	movwf	___flmul@b+1
  7770     0853  3000               	movlw	0
  7771     0854  00E6               	movwf	___flmul@b
  7772     0855                     l3130:
  7773     0855  0020               	movlb	0	; select bank0
  7774     0856  17E8               	bsf	___flmul@b+2,7
  7775     0857  2861               	goto	l3134
  7776     0858                     l3132:
  7777     0858  3000               	movlw	0
  7778     0859  0020               	movlb	0	; select bank0
  7779     085A  00E9               	movwf	___flmul@b+3
  7780     085B  3000               	movlw	0
  7781     085C  00E8               	movwf	___flmul@b+2
  7782     085D  3000               	movlw	0
  7783     085E  00E7               	movwf	___flmul@b+1
  7784     085F  3000               	movlw	0
  7785     0860  00E6               	movwf	___flmul@b
  7786     0861                     l3134:
  7787     0861  086D               	movf	___flmul@a+3,w
  7788     0862  3980               	andlw	128
  7789     0863  0021               	movlb	1	; select bank1
  7790     0864  06A5               	xorwf	___flmul@sign^(0+128),f
  7791     0865                     l3136:
  7792     0865  0020               	movlb	0	; select bank0
  7793     0866  356D               	lslf	___flmul@a+3,w
  7794     0867  0021               	movlb	1	; select bank1
  7795     0868  00AA               	movwf	___flmul@aexp^(0+128)
  7796     0869                     l3138:
  7797     0869  0020               	movlb	0	; select bank0
  7798     086A  1FEC               	btfss	___flmul@a+2,7
  7799     086B  286D               	goto	u3451
  7800     086C  286E               	goto	u3450
  7801     086D                     u3451:
  7802     086D  2870               	goto	l3142
  7803     086E                     u3450:
  7804     086E                     l3140:
  7805     086E  0021               	movlb	1	; select bank1
  7806     086F  142A               	bsf	___flmul@aexp^(0+128),0
  7807     0870                     l3142:
  7808     0870  0021               	movlb	1	; select bank1
  7809     0871  082A               	movf	___flmul@aexp^(0+128),w
  7810     0872  1903               	btfsc	3,2
  7811     0873  2875               	goto	u3461
  7812     0874  2876               	goto	u3460
  7813     0875                     u3461:
  7814     0875  2887               	goto	l3150
  7815     0876                     u3460:
  7816     0876                     l3144:
  7817     0876  0A2A               	incf	___flmul@aexp^(0+128),w
  7818     0877  1D03               	btfss	3,2
  7819     0878  287A               	goto	u3471
  7820     0879  287B               	goto	u3470
  7821     087A                     u3471:
  7822     087A  2884               	goto	l3148
  7823     087B                     u3470:
  7824     087B                     l3146:
  7825     087B  3000               	movlw	0
  7826     087C  0020               	movlb	0	; select bank0
  7827     087D  00ED               	movwf	___flmul@a+3
  7828     087E  3000               	movlw	0
  7829     087F  00EC               	movwf	___flmul@a+2
  7830     0880  3000               	movlw	0
  7831     0881  00EB               	movwf	___flmul@a+1
  7832     0882  3000               	movlw	0
  7833     0883  00EA               	movwf	___flmul@a
  7834     0884                     l3148:
  7835     0884  0020               	movlb	0	; select bank0
  7836     0885  17EC               	bsf	___flmul@a+2,7
  7837     0886  2890               	goto	l3152
  7838     0887                     l3150:
  7839     0887  3000               	movlw	0
  7840     0888  0020               	movlb	0	; select bank0
  7841     0889  00ED               	movwf	___flmul@a+3
  7842     088A  3000               	movlw	0
  7843     088B  00EC               	movwf	___flmul@a+2
  7844     088C  3000               	movlw	0
  7845     088D  00EB               	movwf	___flmul@a+1
  7846     088E  3000               	movlw	0
  7847     088F  00EA               	movwf	___flmul@a
  7848     0890                     l3152:
  7849     0890  0021               	movlb	1	; select bank1
  7850     0891  082A               	movf	___flmul@aexp^(0+128),w
  7851     0892  1903               	btfsc	3,2
  7852     0893  2895               	goto	u3481
  7853     0894  2896               	goto	u3480
  7854     0895                     u3481:
  7855     0895  289B               	goto	l3156
  7856     0896                     u3480:
  7857     0896                     l3154:
  7858     0896  082B               	movf	___flmul@bexp^(0+128),w
  7859     0897  1D03               	btfss	3,2
  7860     0898  289A               	goto	u3491
  7861     0899  289B               	goto	u3490
  7862     089A                     u3491:
  7863     089A  28A5               	goto	l3160
  7864     089B                     u3490:
  7865     089B                     l3156:
  7866     089B  3000               	movlw	0
  7867     089C  0020               	movlb	0	; select bank0
  7868     089D  00E9               	movwf	?___flmul+3
  7869     089E  3000               	movlw	0
  7870     089F  00E8               	movwf	?___flmul+2
  7871     08A0  3000               	movlw	0
  7872     08A1  00E7               	movwf	?___flmul+1
  7873     08A2  3000               	movlw	0
  7874     08A3  00E6               	movwf	?___flmul
  7875     08A4  2A8F               	goto	l1011
  7876     08A5                     l3160:
  7877     08A5  0020               	movlb	0	; select bank0
  7878     08A6  0866               	movf	___flmul@b,w
  7879     08A7  00F1               	movwf	__Umul8_16@multiplicand
  7880     08A8  086C               	movf	___flmul@a+2,w
  7881     08A9  3187  27CC  3188   	fcall	__Umul8_16
  7882     08AC  0872               	movf	?__Umul8_16+1,w
  7883     08AD  0021               	movlb	1	; select bank1
  7884     08AE  00B1               	movwf	(___flmul@temp+1)^(0+128)
  7885     08AF  0871               	movf	?__Umul8_16,w
  7886     08B0  00B0               	movwf	___flmul@temp^(0+128)
  7887     08B1                     l3162:
  7888     08B1  0830               	movf	___flmul@temp^(0+128),w
  7889     08B2  00A0               	movwf	??___flmul^(0+128)
  7890     08B3  01A1               	clrf	(??___flmul^(0+128)+1)
  7891     08B4  01A2               	clrf	(??___flmul^(0+128)+2)
  7892     08B5  01A3               	clrf	(??___flmul^(0+128)+3)
  7893     08B6  0823               	movf	(??___flmul+3)^(0+128),w
  7894     08B7  00A9               	movwf	(___flmul@grs+3)^(0+128)
  7895     08B8  0822               	movf	(??___flmul+2)^(0+128),w
  7896     08B9  00A8               	movwf	(___flmul@grs+2)^(0+128)
  7897     08BA  0821               	movf	(??___flmul+1)^(0+128),w
  7898     08BB  00A7               	movwf	(___flmul@grs+1)^(0+128)
  7899     08BC  0820               	movf	??___flmul^(0+128),w
  7900     08BD  00A6               	movwf	___flmul@grs^(0+128)
  7901     08BE                     l3164:
  7902     08BE  0831               	movf	(___flmul@temp^(0+128)+1),w
  7903     08BF  00A0               	movwf	??___flmul^(0+128)
  7904     08C0  01A1               	clrf	(??___flmul^(0+128)+1)
  7905     08C1  01A2               	clrf	(??___flmul^(0+128)+2)
  7906     08C2  01A3               	clrf	(??___flmul^(0+128)+3)
  7907     08C3  0823               	movf	(??___flmul+3)^(0+128),w
  7908     08C4  00AF               	movwf	(___flmul@prod+3)^(0+128)
  7909     08C5  0822               	movf	(??___flmul+2)^(0+128),w
  7910     08C6  00AE               	movwf	(___flmul@prod+2)^(0+128)
  7911     08C7  0821               	movf	(??___flmul+1)^(0+128),w
  7912     08C8  00AD               	movwf	(___flmul@prod+1)^(0+128)
  7913     08C9  0820               	movf	??___flmul^(0+128),w
  7914     08CA  00AC               	movwf	___flmul@prod^(0+128)
  7915     08CB  0020               	movlb	0	; select bank0
  7916     08CC  0867               	movf	___flmul@b+1,w
  7917     08CD  00F1               	movwf	__Umul8_16@multiplicand
  7918     08CE  086B               	movf	___flmul@a+1,w
  7919     08CF  3187  27CC  3188   	fcall	__Umul8_16
  7920     08D2  0872               	movf	?__Umul8_16+1,w
  7921     08D3  0021               	movlb	1	; select bank1
  7922     08D4  00B1               	movwf	(___flmul@temp+1)^(0+128)
  7923     08D5  0871               	movf	?__Umul8_16,w
  7924     08D6  00B0               	movwf	___flmul@temp^(0+128)
  7925     08D7                     l3166:
  7926     08D7  0830               	movf	___flmul@temp^(0+128),w
  7927     08D8  00A0               	movwf	??___flmul^(0+128)
  7928     08D9  01A1               	clrf	(??___flmul^(0+128)+1)
  7929     08DA  01A2               	clrf	(??___flmul^(0+128)+2)
  7930     08DB  01A3               	clrf	(??___flmul^(0+128)+3)
  7931     08DC  0820               	movf	??___flmul^(0+128),w
  7932     08DD  07A6               	addwf	___flmul@grs^(0+128),f
  7933     08DE  0821               	movf	(??___flmul+1)^(0+128),w
  7934     08DF  3DA7               	addwfc	(___flmul@grs+1)^(0+128),f
  7935     08E0  0822               	movf	(??___flmul+2)^(0+128),w
  7936     08E1  3DA8               	addwfc	(___flmul@grs+2)^(0+128),f
  7937     08E2  0823               	movf	(??___flmul+3)^(0+128),w
  7938     08E3  3DA9               	addwfc	(___flmul@grs+3)^(0+128),f
  7939     08E4                     l3168:
  7940     08E4  0831               	movf	(___flmul@temp^(0+128)+1),w
  7941     08E5  00A0               	movwf	??___flmul^(0+128)
  7942     08E6  01A1               	clrf	(??___flmul^(0+128)+1)
  7943     08E7  01A2               	clrf	(??___flmul^(0+128)+2)
  7944     08E8  01A3               	clrf	(??___flmul^(0+128)+3)
  7945     08E9  0820               	movf	??___flmul^(0+128),w
  7946     08EA  07AC               	addwf	___flmul@prod^(0+128),f
  7947     08EB  0821               	movf	(??___flmul+1)^(0+128),w
  7948     08EC  3DAD               	addwfc	(___flmul@prod+1)^(0+128),f
  7949     08ED  0822               	movf	(??___flmul+2)^(0+128),w
  7950     08EE  3DAE               	addwfc	(___flmul@prod+2)^(0+128),f
  7951     08EF  0823               	movf	(??___flmul+3)^(0+128),w
  7952     08F0  3DAF               	addwfc	(___flmul@prod+3)^(0+128),f
  7953     08F1  0020               	movlb	0	; select bank0
  7954     08F2  0868               	movf	___flmul@b+2,w
  7955     08F3  00F1               	movwf	__Umul8_16@multiplicand
  7956     08F4  086A               	movf	___flmul@a,w
  7957     08F5  3187  27CC  3188   	fcall	__Umul8_16
  7958     08F8  0872               	movf	?__Umul8_16+1,w
  7959     08F9  0021               	movlb	1	; select bank1
  7960     08FA  00B1               	movwf	(___flmul@temp+1)^(0+128)
  7961     08FB  0871               	movf	?__Umul8_16,w
  7962     08FC  00B0               	movwf	___flmul@temp^(0+128)
  7963     08FD                     l3170:
  7964     08FD  0830               	movf	___flmul@temp^(0+128),w
  7965     08FE  00A0               	movwf	??___flmul^(0+128)
  7966     08FF  01A1               	clrf	(??___flmul^(0+128)+1)
  7967     0900  01A2               	clrf	(??___flmul^(0+128)+2)
  7968     0901  01A3               	clrf	(??___flmul^(0+128)+3)
  7969     0902  0820               	movf	??___flmul^(0+128),w
  7970     0903  07A6               	addwf	___flmul@grs^(0+128),f
  7971     0904  0821               	movf	(??___flmul+1)^(0+128),w
  7972     0905  3DA7               	addwfc	(___flmul@grs+1)^(0+128),f
  7973     0906  0822               	movf	(??___flmul+2)^(0+128),w
  7974     0907  3DA8               	addwfc	(___flmul@grs+2)^(0+128),f
  7975     0908  0823               	movf	(??___flmul+3)^(0+128),w
  7976     0909  3DA9               	addwfc	(___flmul@grs+3)^(0+128),f
  7977     090A                     l3172:
  7978     090A  0831               	movf	(___flmul@temp^(0+128)+1),w
  7979     090B  00A0               	movwf	??___flmul^(0+128)
  7980     090C  01A1               	clrf	(??___flmul^(0+128)+1)
  7981     090D  01A2               	clrf	(??___flmul^(0+128)+2)
  7982     090E  01A3               	clrf	(??___flmul^(0+128)+3)
  7983     090F  0820               	movf	??___flmul^(0+128),w
  7984     0910  07AC               	addwf	___flmul@prod^(0+128),f
  7985     0911  0821               	movf	(??___flmul+1)^(0+128),w
  7986     0912  3DAD               	addwfc	(___flmul@prod+1)^(0+128),f
  7987     0913  0822               	movf	(??___flmul+2)^(0+128),w
  7988     0914  3DAE               	addwfc	(___flmul@prod+2)^(0+128),f
  7989     0915  0823               	movf	(??___flmul+3)^(0+128),w
  7990     0916  3DAF               	addwfc	(___flmul@prod+3)^(0+128),f
  7991     0917                     l3174:
  7992     0917  3008               	movlw	8
  7993     0918                     u3505:
  7994     0918  35A6               	lslf	___flmul@grs^(0+128),f
  7995     0919  0DA7               	rlf	(___flmul@grs+1)^(0+128),f
  7996     091A  0DA8               	rlf	(___flmul@grs+2)^(0+128),f
  7997     091B  0DA9               	rlf	(___flmul@grs+3)^(0+128),f
  7998     091C  0B89               	decfsz	9,f
  7999     091D  2918               	goto	u3505
  8000     091E                     l3176:
  8001     091E  0020               	movlb	0	; select bank0
  8002     091F  0867               	movf	___flmul@b+1,w
  8003     0920  00F1               	movwf	__Umul8_16@multiplicand
  8004     0921  086A               	movf	___flmul@a,w
  8005     0922  3187  27CC  3188   	fcall	__Umul8_16
  8006     0925  0872               	movf	?__Umul8_16+1,w
  8007     0926  0021               	movlb	1	; select bank1
  8008     0927  00B1               	movwf	(___flmul@temp+1)^(0+128)
  8009     0928  0871               	movf	?__Umul8_16,w
  8010     0929  00B0               	movwf	___flmul@temp^(0+128)
  8011     092A                     l3178:
  8012     092A  0830               	movf	___flmul@temp^(0+128),w
  8013     092B  07A6               	addwf	___flmul@grs^(0+128),f
  8014     092C  0831               	movf	(___flmul@temp+1)^(0+128),w
  8015     092D  3DA7               	addwfc	(___flmul@grs+1)^(0+128),f
  8016     092E  3000               	movlw	0
  8017     092F  3DA8               	addwfc	(___flmul@grs+2)^(0+128),f
  8018     0930  3DA9               	addwfc	(___flmul@grs+3)^(0+128),f
  8019     0931                     l3180:
  8020     0931  0020               	movlb	0	; select bank0
  8021     0932  0866               	movf	___flmul@b,w
  8022     0933  00F1               	movwf	__Umul8_16@multiplicand
  8023     0934  086B               	movf	___flmul@a+1,w
  8024     0935  3187  27CC  3188   	fcall	__Umul8_16
  8025     0938  0872               	movf	?__Umul8_16+1,w
  8026     0939  0021               	movlb	1	; select bank1
  8027     093A  00B1               	movwf	(___flmul@temp+1)^(0+128)
  8028     093B  0871               	movf	?__Umul8_16,w
  8029     093C  00B0               	movwf	___flmul@temp^(0+128)
  8030     093D                     l3182:
  8031     093D  0830               	movf	___flmul@temp^(0+128),w
  8032     093E  07A6               	addwf	___flmul@grs^(0+128),f
  8033     093F  0831               	movf	(___flmul@temp+1)^(0+128),w
  8034     0940  3DA7               	addwfc	(___flmul@grs+1)^(0+128),f
  8035     0941  3000               	movlw	0
  8036     0942  3DA8               	addwfc	(___flmul@grs+2)^(0+128),f
  8037     0943  3DA9               	addwfc	(___flmul@grs+3)^(0+128),f
  8038     0944                     l3184:
  8039     0944  3008               	movlw	8
  8040     0945                     u3515:
  8041     0945  35A6               	lslf	___flmul@grs^(0+128),f
  8042     0946  0DA7               	rlf	(___flmul@grs+1)^(0+128),f
  8043     0947  0DA8               	rlf	(___flmul@grs+2)^(0+128),f
  8044     0948  0DA9               	rlf	(___flmul@grs+3)^(0+128),f
  8045     0949  0B89               	decfsz	9,f
  8046     094A  2945               	goto	u3515
  8047     094B  0020               	movlb	0	; select bank0
  8048     094C  0866               	movf	___flmul@b,w
  8049     094D  00F1               	movwf	__Umul8_16@multiplicand
  8050     094E  086A               	movf	___flmul@a,w
  8051     094F  3187  27CC  3188   	fcall	__Umul8_16
  8052     0952  0872               	movf	?__Umul8_16+1,w
  8053     0953  0021               	movlb	1	; select bank1
  8054     0954  00B1               	movwf	(___flmul@temp+1)^(0+128)
  8055     0955  0871               	movf	?__Umul8_16,w
  8056     0956  00B0               	movwf	___flmul@temp^(0+128)
  8057     0957                     l3186:
  8058     0957  0830               	movf	___flmul@temp^(0+128),w
  8059     0958  07A6               	addwf	___flmul@grs^(0+128),f
  8060     0959  0831               	movf	(___flmul@temp+1)^(0+128),w
  8061     095A  3DA7               	addwfc	(___flmul@grs+1)^(0+128),f
  8062     095B  3000               	movlw	0
  8063     095C  3DA8               	addwfc	(___flmul@grs+2)^(0+128),f
  8064     095D  3DA9               	addwfc	(___flmul@grs+3)^(0+128),f
  8065     095E                     l3188:
  8066     095E  0020               	movlb	0	; select bank0
  8067     095F  0867               	movf	___flmul@b+1,w
  8068     0960  00F1               	movwf	__Umul8_16@multiplicand
  8069     0961  086C               	movf	___flmul@a+2,w
  8070     0962  3187  27CC  3188   	fcall	__Umul8_16
  8071     0965  0872               	movf	?__Umul8_16+1,w
  8072     0966  0021               	movlb	1	; select bank1
  8073     0967  00B1               	movwf	(___flmul@temp+1)^(0+128)
  8074     0968  0871               	movf	?__Umul8_16,w
  8075     0969  00B0               	movwf	___flmul@temp^(0+128)
  8076     096A  0830               	movf	___flmul@temp^(0+128),w
  8077     096B  07AC               	addwf	___flmul@prod^(0+128),f
  8078     096C  0831               	movf	(___flmul@temp+1)^(0+128),w
  8079     096D  3DAD               	addwfc	(___flmul@prod+1)^(0+128),f
  8080     096E  3000               	movlw	0
  8081     096F  3DAE               	addwfc	(___flmul@prod+2)^(0+128),f
  8082     0970  3DAF               	addwfc	(___flmul@prod+3)^(0+128),f
  8083     0971                     l3190:
  8084     0971  0020               	movlb	0	; select bank0
  8085     0972  0868               	movf	___flmul@b+2,w
  8086     0973  00F1               	movwf	__Umul8_16@multiplicand
  8087     0974  086B               	movf	___flmul@a+1,w
  8088     0975  3187  27CC  3188   	fcall	__Umul8_16
  8089     0978  0872               	movf	?__Umul8_16+1,w
  8090     0979  0021               	movlb	1	; select bank1
  8091     097A  00B1               	movwf	(___flmul@temp+1)^(0+128)
  8092     097B  0871               	movf	?__Umul8_16,w
  8093     097C  00B0               	movwf	___flmul@temp^(0+128)
  8094     097D                     l3192:
  8095     097D  0830               	movf	___flmul@temp^(0+128),w
  8096     097E  07AC               	addwf	___flmul@prod^(0+128),f
  8097     097F  0831               	movf	(___flmul@temp+1)^(0+128),w
  8098     0980  3DAD               	addwfc	(___flmul@prod+1)^(0+128),f
  8099     0981  3000               	movlw	0
  8100     0982  3DAE               	addwfc	(___flmul@prod+2)^(0+128),f
  8101     0983  3DAF               	addwfc	(___flmul@prod+3)^(0+128),f
  8102     0984  0020               	movlb	0	; select bank0
  8103     0985  0868               	movf	___flmul@b+2,w
  8104     0986  00F1               	movwf	__Umul8_16@multiplicand
  8105     0987  086C               	movf	___flmul@a+2,w
  8106     0988  3187  27CC  3188   	fcall	__Umul8_16
  8107     098B  0872               	movf	?__Umul8_16+1,w
  8108     098C  0021               	movlb	1	; select bank1
  8109     098D  00B1               	movwf	(___flmul@temp+1)^(0+128)
  8110     098E  0871               	movf	?__Umul8_16,w
  8111     098F  00B0               	movwf	___flmul@temp^(0+128)
  8112     0990                     l3194:
  8113     0990  0830               	movf	___flmul@temp^(0+128),w
  8114     0991  00A0               	movwf	??___flmul^(0+128)
  8115     0992  0831               	movf	(___flmul@temp+1)^(0+128),w
  8116     0993  00A1               	movwf	(??___flmul^(0+128)+1)
  8117     0994  01A2               	clrf	(??___flmul^(0+128)+2)
  8118     0995  01A3               	clrf	(??___flmul^(0+128)+3)
  8119     0996  3008               	movlw	8
  8120     0997                     u3525:
  8121     0997  35A0               	lslf	??___flmul^(0+128),f
  8122     0998  0DA1               	rlf	(??___flmul^(0+128)+1),f
  8123     0999  0DA2               	rlf	(??___flmul^(0+128)+2),f
  8124     099A  0DA3               	rlf	(??___flmul^(0+128)+3),f
  8125     099B                     u3520:
  8126     099B  0B89               	decfsz	9,f
  8127     099C  2997               	goto	u3525
  8128     099D  0820               	movf	??___flmul^(0+128),w
  8129     099E  07AC               	addwf	___flmul@prod^(0+128),f
  8130     099F  0821               	movf	(??___flmul+1)^(0+128),w
  8131     09A0  3DAD               	addwfc	(___flmul@prod+1)^(0+128),f
  8132     09A1  0822               	movf	(??___flmul+2)^(0+128),w
  8133     09A2  3DAE               	addwfc	(___flmul@prod+2)^(0+128),f
  8134     09A3  0823               	movf	(??___flmul+3)^(0+128),w
  8135     09A4  3DAF               	addwfc	(___flmul@prod+3)^(0+128),f
  8136     09A5                     l3196:
  8137     09A5  0826               	movf	___flmul@grs^(0+128),w
  8138     09A6  00A0               	movwf	??___flmul^(0+128)
  8139     09A7  0827               	movf	(___flmul@grs+1)^(0+128),w
  8140     09A8  00A1               	movwf	(??___flmul^(0+128)+1)
  8141     09A9  0828               	movf	(___flmul@grs+2)^(0+128),w
  8142     09AA  00A2               	movwf	(??___flmul^(0+128)+2)
  8143     09AB  0829               	movf	(___flmul@grs+3)^(0+128),w
  8144     09AC  00A3               	movwf	(??___flmul^(0+128)+3)
  8145     09AD  3018               	movlw	24
  8146     09AE                     u3535:
  8147     09AE  36A3               	lsrf	(??___flmul^(0+128)+3),f
  8148     09AF  0CA2               	rrf	(??___flmul^(0+128)+2),f
  8149     09B0  0CA1               	rrf	(??___flmul^(0+128)+1),f
  8150     09B1  0CA0               	rrf	??___flmul^(0+128),f
  8151     09B2                     u3530:
  8152     09B2  0B89               	decfsz	9,f
  8153     09B3  29AE               	goto	u3535
  8154     09B4  0820               	movf	??___flmul^(0+128),w
  8155     09B5  07AC               	addwf	___flmul@prod^(0+128),f
  8156     09B6  0821               	movf	(??___flmul+1)^(0+128),w
  8157     09B7  3DAD               	addwfc	(___flmul@prod+1)^(0+128),f
  8158     09B8  0822               	movf	(??___flmul+2)^(0+128),w
  8159     09B9  3DAE               	addwfc	(___flmul@prod+2)^(0+128),f
  8160     09BA  0823               	movf	(??___flmul+3)^(0+128),w
  8161     09BB  3DAF               	addwfc	(___flmul@prod+3)^(0+128),f
  8162     09BC                     l3198:
  8163     09BC  3008               	movlw	8
  8164     09BD                     u3545:
  8165     09BD  35A6               	lslf	___flmul@grs^(0+128),f
  8166     09BE  0DA7               	rlf	(___flmul@grs+1)^(0+128),f
  8167     09BF  0DA8               	rlf	(___flmul@grs+2)^(0+128),f
  8168     09C0  0DA9               	rlf	(___flmul@grs+3)^(0+128),f
  8169     09C1  0B89               	decfsz	9,f
  8170     09C2  29BD               	goto	u3545
  8171     09C3                     l3200:
  8172     09C3  082B               	movf	___flmul@bexp^(0+128),w
  8173     09C4  072A               	addwf	___flmul@aexp^(0+128),w
  8174     09C5  00A0               	movwf	??___flmul^(0+128)
  8175     09C6  01A1               	clrf	(??___flmul^(0+128)+1)
  8176     09C7  0DA1               	rlf	(??___flmul+1)^(0+128),f
  8177     09C8  0820               	movf	??___flmul^(0+128),w
  8178     09C9  3E82               	addlw	130
  8179     09CA  00B0               	movwf	___flmul@temp^(0+128)
  8180     09CB  30FF               	movlw	255
  8181     09CC  3D21               	addwfc	(??___flmul+1)^(0+128),w
  8182     09CD  00B1               	movwf	(___flmul@temp+1)^(0+128)
  8183     09CE  29E6               	goto	l3212
  8184     09CF                     l3202:
  8185     09CF  3001               	movlw	1
  8186     09D0                     u3555:
  8187     09D0  35AC               	lslf	___flmul@prod^(0+128),f
  8188     09D1  0DAD               	rlf	(___flmul@prod+1)^(0+128),f
  8189     09D2  0DAE               	rlf	(___flmul@prod+2)^(0+128),f
  8190     09D3  0DAF               	rlf	(___flmul@prod+3)^(0+128),f
  8191     09D4  0B89               	decfsz	9,f
  8192     09D5  29D0               	goto	u3555
  8193     09D6                     l3204:
  8194     09D6  1FA9               	btfss	(___flmul@grs+3)^(0+128),7
  8195     09D7  29D9               	goto	u3561
  8196     09D8  29DA               	goto	u3560
  8197     09D9                     u3561:
  8198     09D9  29DB               	goto	l3208
  8199     09DA                     u3560:
  8200     09DA                     l3206:
  8201     09DA  142C               	bsf	___flmul@prod^(0+128),0
  8202     09DB                     l3208:
  8203     09DB  3001               	movlw	1
  8204     09DC                     u3575:
  8205     09DC  35A6               	lslf	___flmul@grs^(0+128),f
  8206     09DD  0DA7               	rlf	(___flmul@grs+1)^(0+128),f
  8207     09DE  0DA8               	rlf	(___flmul@grs+2)^(0+128),f
  8208     09DF  0DA9               	rlf	(___flmul@grs+3)^(0+128),f
  8209     09E0  0B89               	decfsz	9,f
  8210     09E1  29DC               	goto	u3575
  8211     09E2                     l3210:
  8212     09E2  30FF               	movlw	255
  8213     09E3  07B0               	addwf	___flmul@temp^(0+128),f
  8214     09E4  30FF               	movlw	255
  8215     09E5  3DB1               	addwfc	(___flmul@temp+1)^(0+128),f
  8216     09E6                     l3212:
  8217     09E6  1FAE               	btfss	(___flmul@prod+2)^(0+128),7
  8218     09E7  29E9               	goto	u3581
  8219     09E8  29EA               	goto	u3580
  8220     09E9                     u3581:
  8221     09E9  29CF               	goto	l3202
  8222     09EA                     u3580:
  8223     09EA                     l3214:
  8224     09EA  01AA               	clrf	___flmul@aexp^(0+128)
  8225     09EB                     l3216:
  8226     09EB  1FA9               	btfss	(___flmul@grs+3)^(0+128),7
  8227     09EC  29EE               	goto	u3591
  8228     09ED  29EF               	goto	u3590
  8229     09EE                     u3591:
  8230     09EE  2A0B               	goto	l3224
  8231     09EF                     u3590:
  8232     09EF                     l3218:
  8233     09EF  30FF               	movlw	255
  8234     09F0  0526               	andwf	___flmul@grs^(0+128),w
  8235     09F1  00A0               	movwf	??___flmul^(0+128)
  8236     09F2  30FF               	movlw	255
  8237     09F3  0527               	andwf	(___flmul@grs+1)^(0+128),w
  8238     09F4  00A1               	movwf	(??___flmul^(0+128)+1)
  8239     09F5  30FF               	movlw	255
  8240     09F6  0528               	andwf	(___flmul@grs+2)^(0+128),w
  8241     09F7  00A2               	movwf	(??___flmul^(0+128)+2)
  8242     09F8  307F               	movlw	127
  8243     09F9  0529               	andwf	(___flmul@grs+3)^(0+128),w
  8244     09FA  00A3               	movwf	(??___flmul^(0+128)+3)
  8245     09FB  0823               	movf	(??___flmul+3)^(0+128),w
  8246     09FC  0422               	iorwf	(??___flmul+2)^(0+128),w
  8247     09FD  0421               	iorwf	(??___flmul+1)^(0+128),w
  8248     09FE  0420               	iorwf	??___flmul^(0+128),w
  8249     09FF  1903               	skipnz
  8250     0A00  2A02               	goto	u3601
  8251     0A01  2A03               	goto	u3600
  8252     0A02                     u3601:
  8253     0A02  2A06               	goto	l1017
  8254     0A03                     u3600:
  8255     0A03                     l3220:
  8256     0A03  3001               	movlw	1
  8257     0A04  00AA               	movwf	___flmul@aexp^(0+128)
  8258     0A05  2A0B               	goto	l3224
  8259     0A06                     l1017:
  8260     0A06  1C2C               	btfss	___flmul@prod^(0+128),0
  8261     0A07  2A09               	goto	u3611
  8262     0A08  2A0A               	goto	u3610
  8263     0A09                     u3611:
  8264     0A09  2A0B               	goto	l3224
  8265     0A0A                     u3610:
  8266     0A0A  2A03               	goto	l3220
  8267     0A0B                     l3224:
  8268     0A0B  082A               	movf	___flmul@aexp^(0+128),w
  8269     0A0C  1903               	btfsc	3,2
  8270     0A0D  2A0F               	goto	u3621
  8271     0A0E  2A10               	goto	u3620
  8272     0A0F                     u3621:
  8273     0A0F  2A36               	goto	l3234
  8274     0A10                     u3620:
  8275     0A10                     l3226:
  8276     0A10  3001               	movlw	1
  8277     0A11  07AC               	addwf	___flmul@prod^(0+128),f
  8278     0A12  3000               	movlw	0
  8279     0A13  3DAD               	addwfc	(___flmul@prod+1)^(0+128),f
  8280     0A14  3DAE               	addwfc	(___flmul@prod+2)^(0+128),f
  8281     0A15  3DAF               	addwfc	(___flmul@prod+3)^(0+128),f
  8282     0A16                     l3228:
  8283     0A16  1C2F               	btfss	(___flmul@prod+3)^(0+128),0
  8284     0A17  2A19               	goto	u3631
  8285     0A18  2A1A               	goto	u3630
  8286     0A19                     u3631:
  8287     0A19  2A36               	goto	l3234
  8288     0A1A                     u3630:
  8289     0A1A                     l3230:
  8290     0A1A  082C               	movf	___flmul@prod^(0+128),w
  8291     0A1B  00A0               	movwf	??___flmul^(0+128)
  8292     0A1C  082D               	movf	(___flmul@prod+1)^(0+128),w
  8293     0A1D  00A1               	movwf	(??___flmul^(0+128)+1)
  8294     0A1E  082E               	movf	(___flmul@prod+2)^(0+128),w
  8295     0A1F  00A2               	movwf	(??___flmul^(0+128)+2)
  8296     0A20  082F               	movf	(___flmul@prod+3)^(0+128),w
  8297     0A21  00A3               	movwf	(??___flmul^(0+128)+3)
  8298     0A22  3001               	movlw	1
  8299     0A23  00A4               	movwf	(??___flmul+4)^(0+128)
  8300     0A24                     u3645:
  8301     0A24  37A3               	asrf	(??___flmul^(0+128)+3),f
  8302     0A25  0CA2               	rrf	(??___flmul^(0+128)+2),f
  8303     0A26  0CA1               	rrf	(??___flmul^(0+128)+1),f
  8304     0A27  0CA0               	rrf	??___flmul^(0+128),f
  8305     0A28                     u3640:
  8306     0A28  0BA4               	decfsz	(??___flmul+4)^(0+128),f
  8307     0A29  2A24               	goto	u3645
  8308     0A2A  0823               	movf	(??___flmul+3)^(0+128),w
  8309     0A2B  00AF               	movwf	(___flmul@prod+3)^(0+128)
  8310     0A2C  0822               	movf	(??___flmul+2)^(0+128),w
  8311     0A2D  00AE               	movwf	(___flmul@prod+2)^(0+128)
  8312     0A2E  0821               	movf	(??___flmul+1)^(0+128),w
  8313     0A2F  00AD               	movwf	(___flmul@prod+1)^(0+128)
  8314     0A30  0820               	movf	??___flmul^(0+128),w
  8315     0A31  00AC               	movwf	___flmul@prod^(0+128)
  8316     0A32                     l3232:
  8317     0A32  3001               	movlw	1
  8318     0A33  07B0               	addwf	___flmul@temp^(0+128),f
  8319     0A34  3000               	movlw	0
  8320     0A35  3DB1               	addwfc	(___flmul@temp+1)^(0+128),f
  8321     0A36                     l3234:
  8322     0A36  0831               	movf	(___flmul@temp+1)^(0+128),w
  8323     0A37  3A80               	xorlw	128
  8324     0A38  00A0               	movwf	??___flmul^(0+128)
  8325     0A39  3080               	movlw	128
  8326     0A3A  0220               	subwf	??___flmul^(0+128),w
  8327     0A3B  1D03               	skipz
  8328     0A3C  2A3F               	goto	u3655
  8329     0A3D  30FF               	movlw	255
  8330     0A3E  0230               	subwf	___flmul@temp^(0+128),w
  8331     0A3F                     u3655:
  8332     0A3F  1C03               	skipc
  8333     0A40  2A42               	goto	u3651
  8334     0A41  2A43               	goto	u3650
  8335     0A42                     u3651:
  8336     0A42  2A4D               	goto	l3238
  8337     0A43                     u3650:
  8338     0A43                     l3236:
  8339     0A43  307F               	movlw	127
  8340     0A44  0021               	movlb	1	; select bank1
  8341     0A45  00AF               	movwf	(___flmul@prod+3)^(0+128)
  8342     0A46  3080               	movlw	128
  8343     0A47  00AE               	movwf	(___flmul@prod+2)^(0+128)
  8344     0A48  3000               	movlw	0
  8345     0A49  00AD               	movwf	(___flmul@prod+1)^(0+128)
  8346     0A4A  3000               	movlw	0
  8347     0A4B  00AC               	movwf	___flmul@prod^(0+128)
  8348     0A4C  2A7E               	goto	l1023
  8349     0A4D                     l3238:
  8350     0A4D  0021               	movlb	1	; select bank1
  8351     0A4E  0831               	movf	(___flmul@temp+1)^(0+128),w
  8352     0A4F  3A80               	xorlw	128
  8353     0A50  00A0               	movwf	??___flmul^(0+128)
  8354     0A51  3080               	movlw	128
  8355     0A52  0220               	subwf	??___flmul^(0+128),w
  8356     0A53  1D03               	skipz
  8357     0A54  2A57               	goto	u3665
  8358     0A55  3001               	movlw	1
  8359     0A56  0230               	subwf	___flmul@temp^(0+128),w
  8360     0A57                     u3665:
  8361     0A57  1803               	skipnc
  8362     0A58  2A5A               	goto	u3661
  8363     0A59  2A5B               	goto	u3660
  8364     0A5A                     u3661:
  8365     0A5A  2A66               	goto	l3244
  8366     0A5B                     u3660:
  8367     0A5B                     l3240:
  8368     0A5B  3000               	movlw	0
  8369     0A5C  0021               	movlb	1	; select bank1
  8370     0A5D  00AF               	movwf	(___flmul@prod+3)^(0+128)
  8371     0A5E  3000               	movlw	0
  8372     0A5F  00AE               	movwf	(___flmul@prod+2)^(0+128)
  8373     0A60  3000               	movlw	0
  8374     0A61  00AD               	movwf	(___flmul@prod+1)^(0+128)
  8375     0A62  3000               	movlw	0
  8376     0A63  00AC               	movwf	___flmul@prod^(0+128)
  8377     0A64                     l3242:
  8378     0A64  01A5               	clrf	___flmul@sign^(0+128)
  8379     0A65  2A7E               	goto	l1023
  8380     0A66                     l3244:
  8381     0A66  0021               	movlb	1	; select bank1
  8382     0A67  0830               	movf	___flmul@temp^(0+128),w
  8383     0A68  00AB               	movwf	___flmul@bexp^(0+128)
  8384     0A69  30FF               	movlw	255
  8385     0A6A  05AC               	andwf	___flmul@prod^(0+128),f
  8386     0A6B  30FF               	movlw	255
  8387     0A6C  05AD               	andwf	(___flmul@prod+1)^(0+128),f
  8388     0A6D  307F               	movlw	127
  8389     0A6E  05AE               	andwf	(___flmul@prod+2)^(0+128),f
  8390     0A6F  3000               	movlw	0
  8391     0A70  05AF               	andwf	(___flmul@prod+3)^(0+128),f
  8392     0A71                     l3246:
  8393     0A71  1C2B               	btfss	___flmul@bexp^(0+128),0
  8394     0A72  2A74               	goto	u3671
  8395     0A73  2A75               	goto	u3670
  8396     0A74                     u3671:
  8397     0A74  2A76               	goto	l3250
  8398     0A75                     u3670:
  8399     0A75                     l3248:
  8400     0A75  17AE               	bsf	(___flmul@prod^(0+128)+2),7
  8401     0A76                     l3250:
  8402     0A76  082B               	movf	___flmul@bexp^(0+128),w
  8403     0A77  00A0               	movwf	??___flmul^(0+128)
  8404     0A78  3001               	movlw	1
  8405     0A79                     u3685:
  8406     0A79  36A0               	lsrf	??___flmul^(0+128),f
  8407     0A7A  0B89               	decfsz	9,f
  8408     0A7B  2A79               	goto	u3685
  8409     0A7C  0820               	movf	??___flmul^(0+128),w
  8410     0A7D  00AF               	movwf	(___flmul@prod^(0+128)+3)
  8411     0A7E                     l1023:
  8412     0A7E  0825               	movf	___flmul@sign^(0+128),w
  8413     0A7F  04AF               	iorwf	(___flmul@prod^(0+128)+3),f
  8414     0A80                     l3252:
  8415     0A80  082F               	movf	(___flmul@prod+3)^(0+128),w
  8416     0A81  0020               	movlb	0	; select bank0
  8417     0A82  00E9               	movwf	?___flmul+3
  8418     0A83  0021               	movlb	1	; select bank1
  8419     0A84  082E               	movf	(___flmul@prod+2)^(0+128),w
  8420     0A85  0020               	movlb	0	; select bank0
  8421     0A86  00E8               	movwf	?___flmul+2
  8422     0A87  0021               	movlb	1	; select bank1
  8423     0A88  082D               	movf	(___flmul@prod+1)^(0+128),w
  8424     0A89  0020               	movlb	0	; select bank0
  8425     0A8A  00E7               	movwf	?___flmul+1
  8426     0A8B  0021               	movlb	1	; select bank1
  8427     0A8C  082C               	movf	___flmul@prod^(0+128),w
  8428     0A8D  0020               	movlb	0	; select bank0
  8429     0A8E  00E6               	movwf	?___flmul
  8430     0A8F                     l1011:
  8431     0A8F  0008               	return
  8432     0A90                     __end_of___flmul:
  8433                           
  8434                           	psect	text10
  8435     07CC                     __ptext10:	
  8436 ;; *************** function __Umul8_16 *****************
  8437 ;; Defined at:
  8438 ;;		line 4 in file "C:\Program Files\Microchip\xc8\v3.00\pic\sources\c99\common\Umul8_16.c"
  8439 ;; Parameters:    Size  Location     Type
  8440 ;;  multiplier      1    wreg     unsigned char 
  8441 ;;  multiplicand    1    1[COMMON] unsigned char 
  8442 ;; Auto vars:     Size  Location     Type
  8443 ;;  multiplier      1    9[COMMON] unsigned char 
  8444 ;;  word_mpld       2    7[COMMON] unsigned short 
  8445 ;;  product         2    5[COMMON] unsigned short 
  8446 ;; Return value:  Size  Location     Type
  8447 ;;                  2    1[COMMON] unsigned int 
  8448 ;; Registers used:
  8449 ;;		wreg, status,2, status,0
  8450 ;; Tracked objects:
  8451 ;;		On entry : 0/0
  8452 ;;		On exit  : 0/0
  8453 ;;		Unchanged: 0/0
  8454 ;; Data sizes:     COMMON   BANK0   BANK1   BANK2   BANK3   BANK4   BANK5   BANK6   BANK7   BANK8   BANK9  BANK10  BANK1
      +1  BANK12
  8455 ;;      Params:         2       0       0       0       0       0       0       0       0       0       0       0       
      +0       0
  8456 ;;      Locals:         5       0       0       0       0       0       0       0       0       0       0       0       
      +0       0
  8457 ;;      Temps:          2       0       0       0       0       0       0       0       0       0       0       0       
      +0       0
  8458 ;;      Totals:         9       0       0       0       0       0       0       0       0       0       0       0       
      +0       0
  8459 ;;Total ram usage:        9 bytes
  8460 ;; Hardware stack levels used: 1
  8461 ;; Hardware stack levels required when called: 1
  8462 ;; This function calls:
  8463 ;;		Nothing
  8464 ;; This function is called by:
  8465 ;;		___flmul
  8466 ;; This function uses a non-reentrant model
  8467 ;;
  8468                           
  8469     07CC                     __Umul8_16:	
  8470                           ;psect for function __Umul8_16
  8471                           
  8472                           
  8473                           ;incstack = 0
  8474                           ; Regs used in __Umul8_16: [wreg+status,2+status,0]
  8475                           ;__Umul8_16@multiplier stored from wreg
  8476     07CC  00F9               	movwf	__Umul8_16@multiplier
  8477     07CD                     l2930:
  8478     07CD  01F5               	clrf	__Umul8_16@product
  8479     07CE  01F6               	clrf	__Umul8_16@product+1
  8480     07CF                     l2932:
  8481     07CF  0871               	movf	__Umul8_16@multiplicand,w
  8482     07D0  00F3               	movwf	??__Umul8_16
  8483     07D1  01F4               	clrf	??__Umul8_16+1
  8484     07D2  0873               	movf	??__Umul8_16,w
  8485     07D3  00F7               	movwf	__Umul8_16@word_mpld
  8486     07D4  0874               	movf	??__Umul8_16+1,w
  8487     07D5  00F8               	movwf	__Umul8_16@word_mpld+1
  8488     07D6                     l2934:
  8489     07D6  1C79               	btfss	__Umul8_16@multiplier,0
  8490     07D7  2FD9               	goto	u3051
  8491     07D8  2FDA               	goto	u3050
  8492     07D9                     u3051:
  8493     07D9  2FDE               	goto	l1030
  8494     07DA                     u3050:
  8495     07DA                     l2936:
  8496     07DA  0877               	movf	__Umul8_16@word_mpld,w
  8497     07DB  07F5               	addwf	__Umul8_16@product,f
  8498     07DC  0878               	movf	__Umul8_16@word_mpld+1,w
  8499     07DD  3DF6               	addwfc	__Umul8_16@product+1,f
  8500     07DE                     l1030:
  8501     07DE  3001               	movlw	1
  8502     07DF                     u3065:
  8503     07DF  35F7               	lslf	__Umul8_16@word_mpld,f
  8504     07E0  0DF8               	rlf	__Umul8_16@word_mpld+1,f
  8505     07E1  0B89               	decfsz	9,f
  8506     07E2  2FDF               	goto	u3065
  8507     07E3  1003               	clrc
  8508     07E4  0CF9               	rrf	__Umul8_16@multiplier,f
  8509     07E5                     l2938:
  8510     07E5  0879               	movf	__Umul8_16@multiplier,w
  8511     07E6  1D03               	btfss	3,2
  8512     07E7  2FE9               	goto	u3071
  8513     07E8  2FEA               	goto	u3070
  8514     07E9                     u3071:
  8515     07E9  2FD6               	goto	l2934
  8516     07EA                     u3070:
  8517     07EA                     l2940:
  8518     07EA  0876               	movf	__Umul8_16@product+1,w
  8519     07EB  00F2               	movwf	?__Umul8_16+1
  8520     07EC  0875               	movf	__Umul8_16@product,w
  8521     07ED  00F1               	movwf	?__Umul8_16
  8522     07EE                     l1032:
  8523     07EE  0008               	return
  8524     07EF                     __end_of__Umul8_16:
  8525                           
  8526                           	psect	text11
  8527     124A                     __ptext11:	
  8528 ;; *************** function ___fldiv *****************
  8529 ;; Defined at:
  8530 ;;		line 8 in file "C:\Program Files\Microchip\xc8\v3.00\pic\sources\c99\common\sprcdiv.c"
  8531 ;; Parameters:    Size  Location     Type
  8532 ;;  a               4   18[BANK1 ] unsigned int 
  8533 ;;  b               4   22[BANK1 ] unsigned int 
  8534 ;; Auto vars:     Size  Location     Type
  8535 ;;  grs             4   38[BANK1 ] unsigned long 
  8536 ;;  rem             4   31[BANK1 ] unsigned long 
  8537 ;;  new_exp         2   36[BANK1 ] short 
  8538 ;;  aexp            1   43[BANK1 ] unsigned char 
  8539 ;;  bexp            1   42[BANK1 ] unsigned char 
  8540 ;;  sign            1   35[BANK1 ] unsigned char 
  8541 ;; Return value:  Size  Location     Type
  8542 ;;                  4   18[BANK1 ] unsigned char 
  8543 ;; Registers used:
  8544 ;;		wreg, status,2, status,0
  8545 ;; Tracked objects:
  8546 ;;		On entry : 0/0
  8547 ;;		On exit  : 0/0
  8548 ;;		Unchanged: 0/0
  8549 ;; Data sizes:     COMMON   BANK0   BANK1   BANK2   BANK3   BANK4   BANK5   BANK6   BANK7   BANK8   BANK9  BANK10  BANK1
      +1  BANK12
  8550 ;;      Params:         0       0       8       0       0       0       0       0       0       0       0       0       
      +0       0
  8551 ;;      Locals:         0       0      13       0       0       0       0       0       0       0       0       0       
      +0       0
  8552 ;;      Temps:          0       0       5       0       0       0       0       0       0       0       0       0       
      +0       0
  8553 ;;      Totals:         0       0      26       0       0       0       0       0       0       0       0       0       
      +0       0
  8554 ;;Total ram usage:       26 bytes
  8555 ;; Hardware stack levels used: 1
  8556 ;; Hardware stack levels required when called: 1
  8557 ;; This function calls:
  8558 ;;		Nothing
  8559 ;; This function is called by:
  8560 ;;		_vectorCalculations
  8561 ;;		_atanf
  8562 ;; This function uses a non-reentrant model
  8563 ;;
  8564                           
  8565     124A                     ___fldiv:	
  8566                           ;psect for function ___fldiv
  8567                           
  8568     124A                     l2976:	
  8569                           ;incstack = 0
  8570                           ; Regs used in ___fldiv: [wreg+status,2+status,0]
  8571                           
  8572     124A  0021               	movlb	1	; select bank1
  8573     124B  0839               	movf	(___fldiv@b^(0+128)+3),w
  8574     124C  3980               	andlw	128
  8575     124D  00C3               	movwf	___fldiv@sign^(0+128)
  8576     124E                     l2978:
  8577     124E  3539               	lslf	(___fldiv@b^(0+128)+3),w
  8578     124F  00CA               	movwf	___fldiv@bexp^(0+128)
  8579     1250                     l2980:
  8580     1250  1FB8               	btfss	(___fldiv@b^(0+128)+2),7
  8581     1251  2A53               	goto	u3121
  8582     1252  2A54               	goto	u3120
  8583     1253                     u3121:
  8584     1253  2A55               	goto	l2984
  8585     1254                     u3120:
  8586     1254                     l2982:
  8587     1254  144A               	bsf	___fldiv@bexp^(0+128),0
  8588     1255                     l2984:
  8589     1255  084A               	movf	___fldiv@bexp^(0+128),w
  8590     1256  1903               	btfsc	3,2
  8591     1257  2A59               	goto	u3131
  8592     1258  2A5A               	goto	u3130
  8593     1259                     u3131:
  8594     1259  2A6A               	goto	l2994
  8595     125A                     u3130:
  8596     125A                     l2986:
  8597     125A  0A4A               	incf	___fldiv@bexp^(0+128),w
  8598     125B  1D03               	btfss	3,2
  8599     125C  2A5E               	goto	u3141
  8600     125D  2A5F               	goto	u3140
  8601     125E                     u3141:
  8602     125E  2A67               	goto	l2990
  8603     125F                     u3140:
  8604     125F                     l2988:
  8605     125F  3000               	movlw	0
  8606     1260  00B9               	movwf	(___fldiv@b+3)^(0+128)
  8607     1261  3000               	movlw	0
  8608     1262  00B8               	movwf	(___fldiv@b+2)^(0+128)
  8609     1263  3000               	movlw	0
  8610     1264  00B7               	movwf	(___fldiv@b+1)^(0+128)
  8611     1265  3000               	movlw	0
  8612     1266  00B6               	movwf	___fldiv@b^(0+128)
  8613     1267                     l2990:
  8614     1267  17B8               	bsf	(___fldiv@b^(0+128)+2),7
  8615     1268                     l2992:
  8616     1268  01B9               	clrf	(___fldiv@b^(0+128)+3)
  8617     1269  2A72               	goto	l2996
  8618     126A                     l2994:
  8619     126A  3000               	movlw	0
  8620     126B  00B9               	movwf	(___fldiv@b+3)^(0+128)
  8621     126C  3000               	movlw	0
  8622     126D  00B8               	movwf	(___fldiv@b+2)^(0+128)
  8623     126E  3000               	movlw	0
  8624     126F  00B7               	movwf	(___fldiv@b+1)^(0+128)
  8625     1270  3000               	movlw	0
  8626     1271  00B6               	movwf	___fldiv@b^(0+128)
  8627     1272                     l2996:
  8628     1272  0835               	movf	(___fldiv@a^(0+128)+3),w
  8629     1273  3980               	andlw	128
  8630     1274  06C3               	xorwf	___fldiv@sign^(0+128),f
  8631     1275                     l2998:
  8632     1275  3535               	lslf	(___fldiv@a^(0+128)+3),w
  8633     1276  00CB               	movwf	___fldiv@aexp^(0+128)
  8634     1277                     l3000:
  8635     1277  1FB4               	btfss	(___fldiv@a^(0+128)+2),7
  8636     1278  2A7A               	goto	u3151
  8637     1279  2A7B               	goto	u3150
  8638     127A                     u3151:
  8639     127A  2A7C               	goto	l3004
  8640     127B                     u3150:
  8641     127B                     l3002:
  8642     127B  144B               	bsf	___fldiv@aexp^(0+128),0
  8643     127C                     l3004:
  8644     127C  084B               	movf	___fldiv@aexp^(0+128),w
  8645     127D  1903               	btfsc	3,2
  8646     127E  2A80               	goto	u3161
  8647     127F  2A81               	goto	u3160
  8648     1280                     u3161:
  8649     1280  2A91               	goto	l3014
  8650     1281                     u3160:
  8651     1281                     l3006:
  8652     1281  0A4B               	incf	___fldiv@aexp^(0+128),w
  8653     1282  1D03               	btfss	3,2
  8654     1283  2A85               	goto	u3171
  8655     1284  2A86               	goto	u3170
  8656     1285                     u3171:
  8657     1285  2A8E               	goto	l3010
  8658     1286                     u3170:
  8659     1286                     l3008:
  8660     1286  3000               	movlw	0
  8661     1287  00B5               	movwf	(___fldiv@a+3)^(0+128)
  8662     1288  3000               	movlw	0
  8663     1289  00B4               	movwf	(___fldiv@a+2)^(0+128)
  8664     128A  3000               	movlw	0
  8665     128B  00B3               	movwf	(___fldiv@a+1)^(0+128)
  8666     128C  3000               	movlw	0
  8667     128D  00B2               	movwf	___fldiv@a^(0+128)
  8668     128E                     l3010:
  8669     128E  17B4               	bsf	(___fldiv@a^(0+128)+2),7
  8670     128F                     l3012:
  8671     128F  01B5               	clrf	(___fldiv@a^(0+128)+3)
  8672     1290  2A99               	goto	l971
  8673     1291                     l3014:
  8674     1291  3000               	movlw	0
  8675     1292  00B5               	movwf	(___fldiv@a+3)^(0+128)
  8676     1293  3000               	movlw	0
  8677     1294  00B4               	movwf	(___fldiv@a+2)^(0+128)
  8678     1295  3000               	movlw	0
  8679     1296  00B3               	movwf	(___fldiv@a+1)^(0+128)
  8680     1297  3000               	movlw	0
  8681     1298  00B2               	movwf	___fldiv@a^(0+128)
  8682     1299                     l971:
  8683     1299  0835               	movf	(___fldiv@a+3)^(0+128),w
  8684     129A  0434               	iorwf	(___fldiv@a+2)^(0+128),w
  8685     129B  0433               	iorwf	(___fldiv@a+1)^(0+128),w
  8686     129C  0432               	iorwf	___fldiv@a^(0+128),w
  8687     129D  1D03               	skipz
  8688     129E  2AA0               	goto	u3181
  8689     129F  2AA1               	goto	u3180
  8690     12A0                     u3181:
  8691     12A0  2AB8               	goto	l3024
  8692     12A1                     u3180:
  8693     12A1                     l3016:
  8694     12A1  3000               	movlw	0
  8695     12A2  00B9               	movwf	(___fldiv@b+3)^(0+128)
  8696     12A3  3000               	movlw	0
  8697     12A4  00B8               	movwf	(___fldiv@b+2)^(0+128)
  8698     12A5  3000               	movlw	0
  8699     12A6  00B7               	movwf	(___fldiv@b+1)^(0+128)
  8700     12A7  3000               	movlw	0
  8701     12A8  00B6               	movwf	___fldiv@b^(0+128)
  8702     12A9  3080               	movlw	128
  8703     12AA  04B8               	iorwf	(___fldiv@b^(0+128)+2),f
  8704     12AB  307F               	movlw	127
  8705     12AC  04B9               	iorwf	((___fldiv@b+1)^(0+128)+2),f
  8706     12AD                     l3018:
  8707     12AD  0843               	movf	___fldiv@sign^(0+128),w
  8708     12AE  04B9               	iorwf	(___fldiv@b^(0+128)+3),f
  8709     12AF                     l3020:
  8710     12AF  0839               	movf	(___fldiv@b+3)^(0+128),w
  8711     12B0  00B5               	movwf	(?___fldiv+3)^(0+128)
  8712     12B1  0838               	movf	(___fldiv@b+2)^(0+128),w
  8713     12B2  00B4               	movwf	(?___fldiv+2)^(0+128)
  8714     12B3  0837               	movf	(___fldiv@b+1)^(0+128),w
  8715     12B4  00B3               	movwf	(?___fldiv+1)^(0+128)
  8716     12B5  0836               	movf	___fldiv@b^(0+128),w
  8717     12B6  00B2               	movwf	?___fldiv^(0+128)
  8718     12B7  2BED               	goto	l973
  8719     12B8                     l3024:
  8720     12B8  084A               	movf	___fldiv@bexp^(0+128),w
  8721     12B9  1D03               	btfss	3,2
  8722     12BA  2ABC               	goto	u3191
  8723     12BB  2ABD               	goto	u3190
  8724     12BC                     u3191:
  8725     12BC  2AC6               	goto	l3030
  8726     12BD                     u3190:
  8727     12BD                     l3026:
  8728     12BD  3000               	movlw	0
  8729     12BE  00B5               	movwf	(?___fldiv+3)^(0+128)
  8730     12BF  3000               	movlw	0
  8731     12C0  00B4               	movwf	(?___fldiv+2)^(0+128)
  8732     12C1  3000               	movlw	0
  8733     12C2  00B3               	movwf	(?___fldiv+1)^(0+128)
  8734     12C3  3000               	movlw	0
  8735     12C4  00B2               	movwf	?___fldiv^(0+128)
  8736     12C5  2BED               	goto	l973
  8737     12C6                     l3030:
  8738     12C6  084A               	movf	___fldiv@bexp^(0+128),w
  8739     12C7  00BA               	movwf	??___fldiv^(0+128)
  8740     12C8  01BB               	clrf	(??___fldiv^(0+128)+1)
  8741     12C9  083B               	movf	(??___fldiv+1)^(0+128),w
  8742     12CA  00BD               	movwf	((??___fldiv+2)^(0+128)+1)
  8743     12CB  084B               	movf	___fldiv@aexp^(0+128),w
  8744     12CC  023A               	subwf	??___fldiv^(0+128),w
  8745     12CD  00BC               	movwf	(??___fldiv+2)^(0+128)
  8746     12CE  1C03               	skipc
  8747     12CF  03BD               	decf	((??___fldiv+2)^(0+128)+1),f
  8748     12D0  083C               	movf	(??___fldiv+2)^(0+128),w
  8749     12D1  3E7F               	addlw	127
  8750     12D2  00C4               	movwf	___fldiv@new_exp^(0+128)
  8751     12D3  3000               	movlw	0
  8752     12D4  3D3D               	addwfc	(??___fldiv+3)^(0+128),w
  8753     12D5  00C5               	movwf	(___fldiv@new_exp+1)^(0+128)
  8754     12D6                     l3032:
  8755     12D6  0839               	movf	(___fldiv@b+3)^(0+128),w
  8756     12D7  00C2               	movwf	(___fldiv@rem+3)^(0+128)
  8757     12D8  0838               	movf	(___fldiv@b+2)^(0+128),w
  8758     12D9  00C1               	movwf	(___fldiv@rem+2)^(0+128)
  8759     12DA  0837               	movf	(___fldiv@b+1)^(0+128),w
  8760     12DB  00C0               	movwf	(___fldiv@rem+1)^(0+128)
  8761     12DC  0836               	movf	___fldiv@b^(0+128),w
  8762     12DD  00BF               	movwf	___fldiv@rem^(0+128)
  8763     12DE                     l3034:
  8764     12DE  3000               	movlw	0
  8765     12DF  00B9               	movwf	(___fldiv@b+3)^(0+128)
  8766     12E0  3000               	movlw	0
  8767     12E1  00B8               	movwf	(___fldiv@b+2)^(0+128)
  8768     12E2  3000               	movlw	0
  8769     12E3  00B7               	movwf	(___fldiv@b+1)^(0+128)
  8770     12E4  3000               	movlw	0
  8771     12E5  00B6               	movwf	___fldiv@b^(0+128)
  8772     12E6                     l3036:
  8773     12E6  3000               	movlw	0
  8774     12E7  00C9               	movwf	(___fldiv@grs+3)^(0+128)
  8775     12E8  3000               	movlw	0
  8776     12E9  00C8               	movwf	(___fldiv@grs+2)^(0+128)
  8777     12EA  3000               	movlw	0
  8778     12EB  00C7               	movwf	(___fldiv@grs+1)^(0+128)
  8779     12EC  3000               	movlw	0
  8780     12ED  00C6               	movwf	___fldiv@grs^(0+128)
  8781     12EE                     l3038:
  8782     12EE  01CB               	clrf	___fldiv@aexp^(0+128)
  8783     12EF  2B2C               	goto	l3058
  8784     12F0                     l3040:
  8785     12F0  084B               	movf	___fldiv@aexp^(0+128),w
  8786     12F1  1903               	btfsc	3,2
  8787     12F2  2AF4               	goto	u3201
  8788     12F3  2AF5               	goto	u3200
  8789     12F4                     u3201:
  8790     12F4  2B0F               	goto	l3050
  8791     12F5                     u3200:
  8792     12F5                     l3042:
  8793     12F5  3001               	movlw	1
  8794     12F6                     u3215:
  8795     12F6  35BF               	lslf	___fldiv@rem^(0+128),f
  8796     12F7  0DC0               	rlf	(___fldiv@rem+1)^(0+128),f
  8797     12F8  0DC1               	rlf	(___fldiv@rem+2)^(0+128),f
  8798     12F9  0DC2               	rlf	(___fldiv@rem+3)^(0+128),f
  8799     12FA  0B89               	decfsz	9,f
  8800     12FB  2AF6               	goto	u3215
  8801     12FC  3001               	movlw	1
  8802     12FD                     u3225:
  8803     12FD  35B6               	lslf	___fldiv@b^(0+128),f
  8804     12FE  0DB7               	rlf	(___fldiv@b+1)^(0+128),f
  8805     12FF  0DB8               	rlf	(___fldiv@b+2)^(0+128),f
  8806     1300  0DB9               	rlf	(___fldiv@b+3)^(0+128),f
  8807     1301  0B89               	decfsz	9,f
  8808     1302  2AFD               	goto	u3225
  8809     1303                     l3044:
  8810     1303  1FC9               	btfss	(___fldiv@grs+3)^(0+128),7
  8811     1304  2B06               	goto	u3231
  8812     1305  2B07               	goto	u3230
  8813     1306                     u3231:
  8814     1306  2B08               	goto	l3048
  8815     1307                     u3230:
  8816     1307                     l3046:
  8817     1307  1436               	bsf	___fldiv@b^(0+128),0
  8818     1308                     l3048:
  8819     1308  3001               	movlw	1
  8820     1309                     u3245:
  8821     1309  35C6               	lslf	___fldiv@grs^(0+128),f
  8822     130A  0DC7               	rlf	(___fldiv@grs+1)^(0+128),f
  8823     130B  0DC8               	rlf	(___fldiv@grs+2)^(0+128),f
  8824     130C  0DC9               	rlf	(___fldiv@grs+3)^(0+128),f
  8825     130D  0B89               	decfsz	9,f
  8826     130E  2B09               	goto	u3245
  8827     130F                     l3050:
  8828     130F  0835               	movf	(___fldiv@a+3)^(0+128),w
  8829     1310  0242               	subwf	(___fldiv@rem+3)^(0+128),w
  8830     1311  1D03               	skipz
  8831     1312  2B1D               	goto	u3255
  8832     1313  0834               	movf	(___fldiv@a+2)^(0+128),w
  8833     1314  0241               	subwf	(___fldiv@rem+2)^(0+128),w
  8834     1315  1D03               	skipz
  8835     1316  2B1D               	goto	u3255
  8836     1317  0833               	movf	(___fldiv@a+1)^(0+128),w
  8837     1318  0240               	subwf	(___fldiv@rem+1)^(0+128),w
  8838     1319  1D03               	skipz
  8839     131A  2B1D               	goto	u3255
  8840     131B  0832               	movf	___fldiv@a^(0+128),w
  8841     131C  023F               	subwf	___fldiv@rem^(0+128),w
  8842     131D                     u3255:
  8843     131D  1C03               	skipc
  8844     131E  2B20               	goto	u3251
  8845     131F  2B21               	goto	u3250
  8846     1320                     u3251:
  8847     1320  2B2A               	goto	l3056
  8848     1321                     u3250:
  8849     1321                     l3052:
  8850     1321  1749               	bsf	(___fldiv@grs^(0+128)+3),6
  8851     1322                     l3054:
  8852     1322  0832               	movf	___fldiv@a^(0+128),w
  8853     1323  02BF               	subwf	___fldiv@rem^(0+128),f
  8854     1324  0833               	movf	(___fldiv@a+1)^(0+128),w
  8855     1325  3BC0               	subwfb	(___fldiv@rem+1)^(0+128),f
  8856     1326  0834               	movf	(___fldiv@a+2)^(0+128),w
  8857     1327  3BC1               	subwfb	(___fldiv@rem+2)^(0+128),f
  8858     1328  0835               	movf	(___fldiv@a+3)^(0+128),w
  8859     1329  3BC2               	subwfb	(___fldiv@rem+3)^(0+128),f
  8860     132A                     l3056:
  8861     132A  3001               	movlw	1
  8862     132B  07CB               	addwf	___fldiv@aexp^(0+128),f
  8863     132C                     l3058:
  8864     132C  301A               	movlw	26
  8865     132D  024B               	subwf	___fldiv@aexp^(0+128),w
  8866     132E  1C03               	skipc
  8867     132F  2B31               	goto	u3261
  8868     1330  2B32               	goto	u3260
  8869     1331                     u3261:
  8870     1331  2AF0               	goto	l3040
  8871     1332                     u3260:
  8872     1332                     l3060:
  8873     1332  0842               	movf	(___fldiv@rem+3)^(0+128),w
  8874     1333  0441               	iorwf	(___fldiv@rem+2)^(0+128),w
  8875     1334  0440               	iorwf	(___fldiv@rem+1)^(0+128),w
  8876     1335  043F               	iorwf	___fldiv@rem^(0+128),w
  8877     1336  1903               	skipnz
  8878     1337  2B39               	goto	u3271
  8879     1338  2B3A               	goto	u3270
  8880     1339                     u3271:
  8881     1339  2B53               	goto	l3074
  8882     133A                     u3270:
  8883     133A                     l3062:
  8884     133A  1446               	bsf	___fldiv@grs^(0+128),0
  8885     133B  2B53               	goto	l3074
  8886     133C                     l3064:
  8887     133C  3001               	movlw	1
  8888     133D                     u3285:
  8889     133D  35B6               	lslf	___fldiv@b^(0+128),f
  8890     133E  0DB7               	rlf	(___fldiv@b+1)^(0+128),f
  8891     133F  0DB8               	rlf	(___fldiv@b+2)^(0+128),f
  8892     1340  0DB9               	rlf	(___fldiv@b+3)^(0+128),f
  8893     1341  0B89               	decfsz	9,f
  8894     1342  2B3D               	goto	u3285
  8895     1343                     l3066:
  8896     1343  1FC9               	btfss	(___fldiv@grs+3)^(0+128),7
  8897     1344  2B46               	goto	u3291
  8898     1345  2B47               	goto	u3290
  8899     1346                     u3291:
  8900     1346  2B48               	goto	l3070
  8901     1347                     u3290:
  8902     1347                     l3068:
  8903     1347  1436               	bsf	___fldiv@b^(0+128),0
  8904     1348                     l3070:
  8905     1348  3001               	movlw	1
  8906     1349                     u3305:
  8907     1349  35C6               	lslf	___fldiv@grs^(0+128),f
  8908     134A  0DC7               	rlf	(___fldiv@grs+1)^(0+128),f
  8909     134B  0DC8               	rlf	(___fldiv@grs+2)^(0+128),f
  8910     134C  0DC9               	rlf	(___fldiv@grs+3)^(0+128),f
  8911     134D  0B89               	decfsz	9,f
  8912     134E  2B49               	goto	u3305
  8913     134F                     l3072:
  8914     134F  30FF               	movlw	255
  8915     1350  07C4               	addwf	___fldiv@new_exp^(0+128),f
  8916     1351  30FF               	movlw	255
  8917     1352  3DC5               	addwfc	(___fldiv@new_exp+1)^(0+128),f
  8918     1353                     l3074:
  8919     1353  1FB8               	btfss	(___fldiv@b+2)^(0+128),7
  8920     1354  2B56               	goto	u3311
  8921     1355  2B57               	goto	u3310
  8922     1356                     u3311:
  8923     1356  2B3C               	goto	l3064
  8924     1357                     u3310:
  8925     1357                     l3076:
  8926     1357  01CB               	clrf	___fldiv@aexp^(0+128)
  8927     1358                     l3078:
  8928     1358  1FC9               	btfss	(___fldiv@grs+3)^(0+128),7
  8929     1359  2B5B               	goto	u3321
  8930     135A  2B5C               	goto	u3320
  8931     135B                     u3321:
  8932     135B  2B78               	goto	l3086
  8933     135C                     u3320:
  8934     135C                     l3080:
  8935     135C  30FF               	movlw	255
  8936     135D  0546               	andwf	___fldiv@grs^(0+128),w
  8937     135E  00BA               	movwf	??___fldiv^(0+128)
  8938     135F  30FF               	movlw	255
  8939     1360  0547               	andwf	(___fldiv@grs+1)^(0+128),w
  8940     1361  00BB               	movwf	(??___fldiv^(0+128)+1)
  8941     1362  30FF               	movlw	255
  8942     1363  0548               	andwf	(___fldiv@grs+2)^(0+128),w
  8943     1364  00BC               	movwf	(??___fldiv^(0+128)+2)
  8944     1365  307F               	movlw	127
  8945     1366  0549               	andwf	(___fldiv@grs+3)^(0+128),w
  8946     1367  00BD               	movwf	(??___fldiv^(0+128)+3)
  8947     1368  083D               	movf	(??___fldiv+3)^(0+128),w
  8948     1369  043C               	iorwf	(??___fldiv+2)^(0+128),w
  8949     136A  043B               	iorwf	(??___fldiv+1)^(0+128),w
  8950     136B  043A               	iorwf	??___fldiv^(0+128),w
  8951     136C  1903               	skipnz
  8952     136D  2B6F               	goto	u3331
  8953     136E  2B70               	goto	u3330
  8954     136F                     u3331:
  8955     136F  2B73               	goto	l987
  8956     1370                     u3330:
  8957     1370                     l3082:
  8958     1370  3001               	movlw	1
  8959     1371  00CB               	movwf	___fldiv@aexp^(0+128)
  8960     1372  2B78               	goto	l3086
  8961     1373                     l987:
  8962     1373  1C36               	btfss	___fldiv@b^(0+128),0
  8963     1374  2B76               	goto	u3341
  8964     1375  2B77               	goto	u3340
  8965     1376                     u3341:
  8966     1376  2B78               	goto	l3086
  8967     1377                     u3340:
  8968     1377  2B70               	goto	l3082
  8969     1378                     l3086:
  8970     1378  084B               	movf	___fldiv@aexp^(0+128),w
  8971     1379  1903               	btfsc	3,2
  8972     137A  2B7C               	goto	u3351
  8973     137B  2B7D               	goto	u3350
  8974     137C                     u3351:
  8975     137C  2BA3               	goto	l3096
  8976     137D                     u3350:
  8977     137D                     l3088:
  8978     137D  3001               	movlw	1
  8979     137E  07B6               	addwf	___fldiv@b^(0+128),f
  8980     137F  3000               	movlw	0
  8981     1380  3DB7               	addwfc	(___fldiv@b+1)^(0+128),f
  8982     1381  3DB8               	addwfc	(___fldiv@b+2)^(0+128),f
  8983     1382  3DB9               	addwfc	(___fldiv@b+3)^(0+128),f
  8984     1383                     l3090:
  8985     1383  1C39               	btfss	(___fldiv@b+3)^(0+128),0
  8986     1384  2B86               	goto	u3361
  8987     1385  2B87               	goto	u3360
  8988     1386                     u3361:
  8989     1386  2BA3               	goto	l3096
  8990     1387                     u3360:
  8991     1387                     l3092:
  8992     1387  0836               	movf	___fldiv@b^(0+128),w
  8993     1388  00BA               	movwf	??___fldiv^(0+128)
  8994     1389  0837               	movf	(___fldiv@b+1)^(0+128),w
  8995     138A  00BB               	movwf	(??___fldiv^(0+128)+1)
  8996     138B  0838               	movf	(___fldiv@b+2)^(0+128),w
  8997     138C  00BC               	movwf	(??___fldiv^(0+128)+2)
  8998     138D  0839               	movf	(___fldiv@b+3)^(0+128),w
  8999     138E  00BD               	movwf	(??___fldiv^(0+128)+3)
  9000     138F  3001               	movlw	1
  9001     1390  00BE               	movwf	(??___fldiv+4)^(0+128)
  9002     1391                     u3375:
  9003     1391  37BD               	asrf	(??___fldiv^(0+128)+3),f
  9004     1392  0CBC               	rrf	(??___fldiv^(0+128)+2),f
  9005     1393  0CBB               	rrf	(??___fldiv^(0+128)+1),f
  9006     1394  0CBA               	rrf	??___fldiv^(0+128),f
  9007     1395                     u3370:
  9008     1395  0BBE               	decfsz	(??___fldiv+4)^(0+128),f
  9009     1396  2B91               	goto	u3375
  9010     1397  083D               	movf	(??___fldiv+3)^(0+128),w
  9011     1398  00B9               	movwf	(___fldiv@b+3)^(0+128)
  9012     1399  083C               	movf	(??___fldiv+2)^(0+128),w
  9013     139A  00B8               	movwf	(___fldiv@b+2)^(0+128)
  9014     139B  083B               	movf	(??___fldiv+1)^(0+128),w
  9015     139C  00B7               	movwf	(___fldiv@b+1)^(0+128)
  9016     139D  083A               	movf	??___fldiv^(0+128),w
  9017     139E  00B6               	movwf	___fldiv@b^(0+128)
  9018     139F                     l3094:
  9019     139F  3001               	movlw	1
  9020     13A0  07C4               	addwf	___fldiv@new_exp^(0+128),f
  9021     13A1  3000               	movlw	0
  9022     13A2  3DC5               	addwfc	(___fldiv@new_exp+1)^(0+128),f
  9023     13A3                     l3096:
  9024     13A3  0845               	movf	(___fldiv@new_exp+1)^(0+128),w
  9025     13A4  3A80               	xorlw	128
  9026     13A5  00BA               	movwf	??___fldiv^(0+128)
  9027     13A6  3080               	movlw	128
  9028     13A7  023A               	subwf	??___fldiv^(0+128),w
  9029     13A8  1D03               	skipz
  9030     13A9  2BAC               	goto	u3385
  9031     13AA  30FF               	movlw	255
  9032     13AB  0244               	subwf	___fldiv@new_exp^(0+128),w
  9033     13AC                     u3385:
  9034     13AC  1C03               	skipc
  9035     13AD  2BAF               	goto	u3381
  9036     13AE  2BB0               	goto	u3380
  9037     13AF                     u3381:
  9038     13AF  2BBD               	goto	l992
  9039     13B0                     u3380:
  9040     13B0                     l3098:
  9041     13B0  30FF               	movlw	255
  9042     13B1  0021               	movlb	1	; select bank1
  9043     13B2  00C4               	movwf	___fldiv@new_exp^(0+128)
  9044     13B3  3000               	movlw	0
  9045     13B4  00C5               	movwf	(___fldiv@new_exp^(0+128)+1)
  9046     13B5  3000               	movlw	0
  9047     13B6  00B9               	movwf	(___fldiv@b+3)^(0+128)
  9048     13B7  3000               	movlw	0
  9049     13B8  00B8               	movwf	(___fldiv@b+2)^(0+128)
  9050     13B9  3000               	movlw	0
  9051     13BA  00B7               	movwf	(___fldiv@b+1)^(0+128)
  9052     13BB  3000               	movlw	0
  9053     13BC  00B6               	movwf	___fldiv@b^(0+128)
  9054     13BD                     l992:
  9055     13BD  0021               	movlb	1	; select bank1
  9056     13BE  0845               	movf	(___fldiv@new_exp+1)^(0+128),w
  9057     13BF  3A80               	xorlw	128
  9058     13C0  00BA               	movwf	??___fldiv^(0+128)
  9059     13C1  3080               	movlw	128
  9060     13C2  023A               	subwf	??___fldiv^(0+128),w
  9061     13C3  1D03               	skipz
  9062     13C4  2BC7               	goto	u3395
  9063     13C5  3001               	movlw	1
  9064     13C6  0244               	subwf	___fldiv@new_exp^(0+128),w
  9065     13C7                     u3395:
  9066     13C7  1803               	skipnc
  9067     13C8  2BCA               	goto	u3391
  9068     13C9  2BCB               	goto	u3390
  9069     13CA                     u3391:
  9070     13CA  2BD7               	goto	l993
  9071     13CB                     u3390:
  9072     13CB                     l3100:
  9073     13CB  0021               	movlb	1	; select bank1
  9074     13CC  01C4               	clrf	___fldiv@new_exp^(0+128)
  9075     13CD  01C5               	clrf	(___fldiv@new_exp+1)^(0+128)
  9076     13CE                     l3102:
  9077     13CE  3000               	movlw	0
  9078     13CF  00B9               	movwf	(___fldiv@b+3)^(0+128)
  9079     13D0  3000               	movlw	0
  9080     13D1  00B8               	movwf	(___fldiv@b+2)^(0+128)
  9081     13D2  3000               	movlw	0
  9082     13D3  00B7               	movwf	(___fldiv@b+1)^(0+128)
  9083     13D4  3000               	movlw	0
  9084     13D5  00B6               	movwf	___fldiv@b^(0+128)
  9085     13D6                     l3104:
  9086     13D6  01C3               	clrf	___fldiv@sign^(0+128)
  9087     13D7                     l993:
  9088     13D7  0021               	movlb	1	; select bank1
  9089     13D8  0844               	movf	___fldiv@new_exp^(0+128),w
  9090     13D9  00CA               	movwf	___fldiv@bexp^(0+128)
  9091     13DA                     l3106:
  9092     13DA  1C4A               	btfss	___fldiv@bexp^(0+128),0
  9093     13DB  2BDD               	goto	u3401
  9094     13DC  2BDE               	goto	u3400
  9095     13DD                     u3401:
  9096     13DD  2BE0               	goto	l3110
  9097     13DE                     u3400:
  9098     13DE                     l3108:
  9099     13DE  17B8               	bsf	(___fldiv@b^(0+128)+2),7
  9100     13DF  2BE2               	goto	l995
  9101     13E0                     l3110:
  9102     13E0  307F               	movlw	127
  9103     13E1  05B8               	andwf	(___fldiv@b^(0+128)+2),f
  9104     13E2                     l995:
  9105     13E2  084A               	movf	___fldiv@bexp^(0+128),w
  9106     13E3  00BA               	movwf	??___fldiv^(0+128)
  9107     13E4  3001               	movlw	1
  9108     13E5                     u3415:
  9109     13E5  36BA               	lsrf	??___fldiv^(0+128),f
  9110     13E6  0B89               	decfsz	9,f
  9111     13E7  2BE5               	goto	u3415
  9112     13E8  083A               	movf	??___fldiv^(0+128),w
  9113     13E9  00B9               	movwf	(___fldiv@b^(0+128)+3)
  9114     13EA  0843               	movf	___fldiv@sign^(0+128),w
  9115     13EB  04B9               	iorwf	(___fldiv@b^(0+128)+3),f
  9116     13EC  2AAF               	goto	l3020
  9117     13ED                     l973:
  9118     13ED  0008               	return
  9119     13EE                     __end_of___fldiv:
  9120                           
  9121                           	psect	text12
  9122     10C0                     __ptext12:	
  9123 ;; *************** function ___xxtofl *****************
  9124 ;; Defined at:
  9125 ;;		line 10 in file "C:\Program Files\Microchip\xc8\v3.00\pic\sources\c99\common\xxtofl.c"
  9126 ;; Parameters:    Size  Location     Type
  9127 ;;  sign            1    wreg     unsigned char 
  9128 ;;  val             4    7[COMMON] long 
  9129 ;; Auto vars:     Size  Location     Type
  9130 ;;  sign            1    4[BANK0 ] unsigned char 
  9131 ;;  arg             4    6[BANK0 ] unsigned long 
  9132 ;;  exp             1    5[BANK0 ] unsigned char 
  9133 ;; Return value:  Size  Location     Type
  9134 ;;                  4    7[COMMON] unsigned char 
  9135 ;; Registers used:
  9136 ;;		wreg, status,2, status,0
  9137 ;; Tracked objects:
  9138 ;;		On entry : 0/0
  9139 ;;		On exit  : 0/0
  9140 ;;		Unchanged: 0/0
  9141 ;; Data sizes:     COMMON   BANK0   BANK1   BANK2   BANK3   BANK4   BANK5   BANK6   BANK7   BANK8   BANK9  BANK10  BANK1
      +1  BANK12
  9142 ;;      Params:         4       0       0       0       0       0       0       0       0       0       0       0       
      +0       0
  9143 ;;      Locals:         0       6       0       0       0       0       0       0       0       0       0       0       
      +0       0
  9144 ;;      Temps:          0       4       0       0       0       0       0       0       0       0       0       0       
      +0       0
  9145 ;;      Totals:         4      10       0       0       0       0       0       0       0       0       0       0       
      +0       0
  9146 ;;Total ram usage:       14 bytes
  9147 ;; Hardware stack levels used: 1
  9148 ;; Hardware stack levels required when called: 1
  9149 ;; This function calls:
  9150 ;;		Nothing
  9151 ;; This function is called by:
  9152 ;;		_vectorCalculations
  9153 ;; This function uses a non-reentrant model
  9154 ;;
  9155                           
  9156     10C0                     ___xxtofl:	
  9157                           ;psect for function ___xxtofl
  9158                           
  9159                           
  9160                           ;incstack = 0
  9161                           ; Regs used in ___xxtofl: [wreg+status,2+status,0]
  9162                           ;___xxtofl@sign stored from wreg
  9163     10C0  0020               	movlb	0	; select bank0
  9164     10C1  00A4               	movwf	___xxtofl@sign
  9165     10C2                     l3608:
  9166     10C2  0824               	movf	___xxtofl@sign,w
  9167     10C3  1903               	btfsc	3,2
  9168     10C4  28C6               	goto	u4371
  9169     10C5  28C7               	goto	u4370
  9170     10C6                     u4371:
  9171     10C6  28DB               	goto	l3614
  9172     10C7                     u4370:
  9173     10C7                     l3610:
  9174     10C7  1FFA               	btfss	___xxtofl@val+3,7
  9175     10C8  28CA               	goto	u4381
  9176     10C9  28CB               	goto	u4380
  9177     10CA                     u4381:
  9178     10CA  28DB               	goto	l3614
  9179     10CB                     u4380:
  9180     10CB                     l3612:
  9181     10CB  0977               	comf	___xxtofl@val,w
  9182     10CC  00A6               	movwf	___xxtofl@arg
  9183     10CD  0978               	comf	___xxtofl@val+1,w
  9184     10CE  00A7               	movwf	___xxtofl@arg+1
  9185     10CF  0979               	comf	___xxtofl@val+2,w
  9186     10D0  00A8               	movwf	___xxtofl@arg+2
  9187     10D1  097A               	comf	___xxtofl@val+3,w
  9188     10D2  00A9               	movwf	___xxtofl@arg+3
  9189     10D3  0AA6               	incf	___xxtofl@arg,f
  9190     10D4  1903               	skipnz
  9191     10D5  0AA7               	incf	___xxtofl@arg+1,f
  9192     10D6  1903               	skipnz
  9193     10D7  0AA8               	incf	___xxtofl@arg+2,f
  9194     10D8  1903               	skipnz
  9195     10D9  0AA9               	incf	___xxtofl@arg+3,f
  9196     10DA  28E3               	goto	l1055
  9197     10DB                     l3614:
  9198     10DB  087A               	movf	___xxtofl@val+3,w
  9199     10DC  00A9               	movwf	___xxtofl@arg+3
  9200     10DD  0879               	movf	___xxtofl@val+2,w
  9201     10DE  00A8               	movwf	___xxtofl@arg+2
  9202     10DF  0878               	movf	___xxtofl@val+1,w
  9203     10E0  00A7               	movwf	___xxtofl@arg+1
  9204     10E1  0877               	movf	___xxtofl@val,w
  9205     10E2  00A6               	movwf	___xxtofl@arg
  9206     10E3                     l1055:
  9207     10E3  087A               	movf	___xxtofl@val+3,w
  9208     10E4  0479               	iorwf	___xxtofl@val+2,w
  9209     10E5  0478               	iorwf	___xxtofl@val+1,w
  9210     10E6  0477               	iorwf	___xxtofl@val,w
  9211     10E7  1D03               	skipz
  9212     10E8  28EA               	goto	u4391
  9213     10E9  28EB               	goto	u4390
  9214     10EA                     u4391:
  9215     10EA  28F4               	goto	l1056
  9216     10EB                     u4390:
  9217     10EB                     l3616:
  9218     10EB  3000               	movlw	0
  9219     10EC  00FA               	movwf	?___xxtofl+3
  9220     10ED  3000               	movlw	0
  9221     10EE  00F9               	movwf	?___xxtofl+2
  9222     10EF  3000               	movlw	0
  9223     10F0  00F8               	movwf	?___xxtofl+1
  9224     10F1  3000               	movlw	0
  9225     10F2  00F7               	movwf	?___xxtofl
  9226     10F3  2964               	goto	l1057
  9227     10F4                     l1056:
  9228     10F4  3096               	movlw	150
  9229     10F5  00A5               	movwf	___xxtofl@exp
  9230     10F6  2900               	goto	l3622
  9231     10F7                     l3620:
  9232     10F7  3001               	movlw	1
  9233     10F8  07A5               	addwf	___xxtofl@exp,f
  9234     10F9  3001               	movlw	1
  9235     10FA                     u4405:
  9236     10FA  36A9               	lsrf	___xxtofl@arg+3,f
  9237     10FB  0CA8               	rrf	___xxtofl@arg+2,f
  9238     10FC  0CA7               	rrf	___xxtofl@arg+1,f
  9239     10FD  0CA6               	rrf	___xxtofl@arg,f
  9240     10FE  0B89               	decfsz	9,f
  9241     10FF  28FA               	goto	u4405
  9242     1100                     l3622:
  9243     1100  30FE               	movlw	254
  9244     1101  0529               	andwf	___xxtofl@arg+3,w
  9245     1102  1D03               	btfss	3,2
  9246     1103  2905               	goto	u4411
  9247     1104  2906               	goto	u4410
  9248     1105                     u4411:
  9249     1105  28F7               	goto	l3620
  9250     1106                     u4410:
  9251     1106  2916               	goto	l3626
  9252     1107                     l3624:
  9253     1107  3001               	movlw	1
  9254     1108  07A5               	addwf	___xxtofl@exp,f
  9255     1109  3001               	movlw	1
  9256     110A  07A6               	addwf	___xxtofl@arg,f
  9257     110B  3000               	movlw	0
  9258     110C  3DA7               	addwfc	___xxtofl@arg+1,f
  9259     110D  3DA8               	addwfc	___xxtofl@arg+2,f
  9260     110E  3DA9               	addwfc	___xxtofl@arg+3,f
  9261     110F  3001               	movlw	1
  9262     1110                     u4425:
  9263     1110  36A9               	lsrf	___xxtofl@arg+3,f
  9264     1111  0CA8               	rrf	___xxtofl@arg+2,f
  9265     1112  0CA7               	rrf	___xxtofl@arg+1,f
  9266     1113  0CA6               	rrf	___xxtofl@arg,f
  9267     1114  0B89               	decfsz	9,f
  9268     1115  2910               	goto	u4425
  9269     1116                     l3626:
  9270     1116  30FF               	movlw	255
  9271     1117  0529               	andwf	___xxtofl@arg+3,w
  9272     1118  1D03               	btfss	3,2
  9273     1119  291B               	goto	u4431
  9274     111A  291C               	goto	u4430
  9275     111B                     u4431:
  9276     111B  2907               	goto	l3624
  9277     111C                     u4430:
  9278     111C  2926               	goto	l3630
  9279     111D                     l3628:
  9280     111D  3001               	movlw	1
  9281     111E  02A5               	subwf	___xxtofl@exp,f
  9282     111F  3001               	movlw	1
  9283     1120                     u4445:
  9284     1120  35A6               	lslf	___xxtofl@arg,f
  9285     1121  0DA7               	rlf	___xxtofl@arg+1,f
  9286     1122  0DA8               	rlf	___xxtofl@arg+2,f
  9287     1123  0DA9               	rlf	___xxtofl@arg+3,f
  9288     1124  0B89               	decfsz	9,f
  9289     1125  2920               	goto	u4445
  9290     1126                     l3630:
  9291     1126  1BA8               	btfsc	___xxtofl@arg+2,7
  9292     1127  2929               	goto	u4451
  9293     1128  292A               	goto	u4450
  9294     1129                     u4451:
  9295     1129  2930               	goto	l1068
  9296     112A                     u4450:
  9297     112A                     l3632:
  9298     112A  3002               	movlw	2
  9299     112B  0225               	subwf	___xxtofl@exp,w
  9300     112C  1803               	skipnc
  9301     112D  292F               	goto	u4461
  9302     112E  2930               	goto	u4460
  9303     112F                     u4461:
  9304     112F  291D               	goto	l3628
  9305     1130                     u4460:
  9306     1130                     l1068:
  9307     1130  1825               	btfsc	___xxtofl@exp,0
  9308     1131  2933               	goto	u4471
  9309     1132  2934               	goto	u4470
  9310     1133                     u4471:
  9311     1133  293C               	goto	l1069
  9312     1134                     u4470:
  9313     1134                     l3634:
  9314     1134  30FF               	movlw	255
  9315     1135  05A6               	andwf	___xxtofl@arg,f
  9316     1136  30FF               	movlw	255
  9317     1137  05A7               	andwf	___xxtofl@arg+1,f
  9318     1138  307F               	movlw	127
  9319     1139  05A8               	andwf	___xxtofl@arg+2,f
  9320     113A  30FF               	movlw	255
  9321     113B  05A9               	andwf	___xxtofl@arg+3,f
  9322     113C                     l1069:
  9323     113C  1003               	clrc
  9324     113D  0CA5               	rrf	___xxtofl@exp,f
  9325     113E                     l3636:
  9326     113E  0825               	movf	___xxtofl@exp,w
  9327     113F  00A0               	movwf	??___xxtofl
  9328     1140  01A1               	clrf	??___xxtofl+1
  9329     1141  01A2               	clrf	??___xxtofl+2
  9330     1142  01A3               	clrf	??___xxtofl+3
  9331     1143  3018               	movlw	24
  9332     1144                     u4485:
  9333     1144  35A0               	lslf	??___xxtofl,f
  9334     1145  0DA1               	rlf	??___xxtofl+1,f
  9335     1146  0DA2               	rlf	??___xxtofl+2,f
  9336     1147  0DA3               	rlf	??___xxtofl+3,f
  9337     1148                     u4480:
  9338     1148  0B89               	decfsz	9,f
  9339     1149  2944               	goto	u4485
  9340     114A  0820               	movf	??___xxtofl,w
  9341     114B  04A6               	iorwf	___xxtofl@arg,f
  9342     114C  0821               	movf	??___xxtofl+1,w
  9343     114D  04A7               	iorwf	___xxtofl@arg+1,f
  9344     114E  0822               	movf	??___xxtofl+2,w
  9345     114F  04A8               	iorwf	___xxtofl@arg+2,f
  9346     1150  0823               	movf	??___xxtofl+3,w
  9347     1151  04A9               	iorwf	___xxtofl@arg+3,f
  9348     1152                     l3638:
  9349     1152  0824               	movf	___xxtofl@sign,w
  9350     1153  1903               	btfsc	3,2
  9351     1154  2956               	goto	u4491
  9352     1155  2957               	goto	u4490
  9353     1156                     u4491:
  9354     1156  295C               	goto	l3644
  9355     1157                     u4490:
  9356     1157                     l3640:
  9357     1157  1FFA               	btfss	___xxtofl@val+3,7
  9358     1158  295A               	goto	u4501
  9359     1159  295B               	goto	u4500
  9360     115A                     u4501:
  9361     115A  295C               	goto	l3644
  9362     115B                     u4500:
  9363     115B                     l3642:
  9364     115B  17A9               	bsf	___xxtofl@arg+3,7
  9365     115C                     l3644:
  9366     115C  0829               	movf	___xxtofl@arg+3,w
  9367     115D  00FA               	movwf	?___xxtofl+3
  9368     115E  0828               	movf	___xxtofl@arg+2,w
  9369     115F  00F9               	movwf	?___xxtofl+2
  9370     1160  0827               	movf	___xxtofl@arg+1,w
  9371     1161  00F8               	movwf	?___xxtofl+1
  9372     1162  0826               	movf	___xxtofl@arg,w
  9373     1163  00F7               	movwf	?___xxtofl
  9374     1164                     l1057:
  9375     1164  0008               	return
  9376     1165                     __end_of___xxtofl:
  9377                           
  9378                           	psect	text13
  9379     1CA1                     __ptext13:	
  9380 ;; *************** function ___wmul *****************
  9381 ;; Defined at:
  9382 ;;		line 15 in file "C:\Program Files\Microchip\xc8\v3.00\pic\sources\c99\common\Umul16.c"
  9383 ;; Parameters:    Size  Location     Type
  9384 ;;  multiplier      2    1[COMMON] unsigned int 
  9385 ;;  multiplicand    2    3[COMMON] unsigned int 
  9386 ;; Auto vars:     Size  Location     Type
  9387 ;;  product         2    5[COMMON] unsigned int 
  9388 ;; Return value:  Size  Location     Type
  9389 ;;                  2    1[COMMON] unsigned int 
  9390 ;; Registers used:
  9391 ;;		wreg, status,2, status,0
  9392 ;; Tracked objects:
  9393 ;;		On entry : 0/0
  9394 ;;		On exit  : 0/0
  9395 ;;		Unchanged: 0/0
  9396 ;; Data sizes:     COMMON   BANK0   BANK1   BANK2   BANK3   BANK4   BANK5   BANK6   BANK7   BANK8   BANK9  BANK10  BANK1
      +1  BANK12
  9397 ;;      Params:         4       0       0       0       0       0       0       0       0       0       0       0       
      +0       0
  9398 ;;      Locals:         2       0       0       0       0       0       0       0       0       0       0       0       
      +0       0
  9399 ;;      Temps:          0       0       0       0       0       0       0       0       0       0       0       0       
      +0       0
  9400 ;;      Totals:         6       0       0       0       0       0       0       0       0       0       0       0       
      +0       0
  9401 ;;Total ram usage:        6 bytes
  9402 ;; Hardware stack levels used: 1
  9403 ;; Hardware stack levels required when called: 1
  9404 ;; This function calls:
  9405 ;;		Nothing
  9406 ;; This function is called by:
  9407 ;;		_vectorCalculations
  9408 ;; This function uses a non-reentrant model
  9409 ;;
  9410                           
  9411     1CA1                     ___wmul:	
  9412                           ;psect for function ___wmul
  9413                           
  9414     1CA1                     l3494:	
  9415                           ;incstack = 0
  9416                           ; Regs used in ___wmul: [wreg+status,2+status,0]
  9417                           
  9418     1CA1  01F5               	clrf	___wmul@product
  9419     1CA2  01F6               	clrf	___wmul@product+1
  9420     1CA3                     l3496:
  9421     1CA3  1C71               	btfss	___wmul@multiplier,0
  9422     1CA4  2CA6               	goto	u4081
  9423     1CA5  2CA7               	goto	u4080
  9424     1CA6                     u4081:
  9425     1CA6  2CAB               	goto	l614
  9426     1CA7                     u4080:
  9427     1CA7                     l3498:
  9428     1CA7  0873               	movf	___wmul@multiplicand,w
  9429     1CA8  07F5               	addwf	___wmul@product,f
  9430     1CA9  0874               	movf	___wmul@multiplicand+1,w
  9431     1CAA  3DF6               	addwfc	___wmul@product+1,f
  9432     1CAB                     l614:
  9433     1CAB  3001               	movlw	1
  9434     1CAC                     u4095:
  9435     1CAC  35F3               	lslf	___wmul@multiplicand,f
  9436     1CAD  0DF4               	rlf	___wmul@multiplicand+1,f
  9437     1CAE  0B89               	decfsz	9,f
  9438     1CAF  2CAC               	goto	u4095
  9439     1CB0                     l3500:
  9440     1CB0  3001               	movlw	1
  9441     1CB1                     u4105:
  9442     1CB1  36F2               	lsrf	___wmul@multiplier+1,f
  9443     1CB2  0CF1               	rrf	___wmul@multiplier,f
  9444     1CB3  0B89               	decfsz	9,f
  9445     1CB4  2CB1               	goto	u4105
  9446     1CB5                     l3502:
  9447     1CB5  0871               	movf	___wmul@multiplier,w
  9448     1CB6  0472               	iorwf	___wmul@multiplier+1,w
  9449     1CB7  1D03               	btfss	3,2
  9450     1CB8  2CBA               	goto	u4111
  9451     1CB9  2CBB               	goto	u4110
  9452     1CBA                     u4111:
  9453     1CBA  2CA3               	goto	l3496
  9454     1CBB                     u4110:
  9455     1CBB                     l3504:
  9456     1CBB  0876               	movf	___wmul@product+1,w
  9457     1CBC  00F2               	movwf	?___wmul+1
  9458     1CBD  0875               	movf	___wmul@product,w
  9459     1CBE  00F1               	movwf	?___wmul
  9460     1CBF                     l616:
  9461     1CBF  0008               	return
  9462     1CC0                     __end_of___wmul:
  9463                           
  9464                           	psect	text14
  9465     1F12                     __ptext14:	
  9466 ;; *************** function ___fltol *****************
  9467 ;; Defined at:
  9468 ;;		line 43 in file "C:\Program Files\Microchip\xc8\v3.00\pic\sources\c99\common\fltol.c"
  9469 ;; Parameters:    Size  Location     Type
  9470 ;;  f1              4   70[BANK0 ] unsigned int 
  9471 ;; Auto vars:     Size  Location     Type
  9472 ;;  exp1            1   79[BANK0 ] unsigned char 
  9473 ;;  sign1           1   78[BANK0 ] unsigned char 
  9474 ;; Return value:  Size  Location     Type
  9475 ;;                  4   70[BANK0 ] long 
  9476 ;; Registers used:
  9477 ;;		wreg, status,2, status,0
  9478 ;; Tracked objects:
  9479 ;;		On entry : 0/0
  9480 ;;		On exit  : 0/0
  9481 ;;		Unchanged: 0/0
  9482 ;; Data sizes:     COMMON   BANK0   BANK1   BANK2   BANK3   BANK4   BANK5   BANK6   BANK7   BANK8   BANK9  BANK10  BANK1
      +1  BANK12
  9483 ;;      Params:         0       4       0       0       0       0       0       0       0       0       0       0       
      +0       0
  9484 ;;      Locals:         0       2       0       0       0       0       0       0       0       0       0       0       
      +0       0
  9485 ;;      Temps:          0       4       0       0       0       0       0       0       0       0       0       0       
      +0       0
  9486 ;;      Totals:         0      10       0       0       0       0       0       0       0       0       0       0       
      +0       0
  9487 ;;Total ram usage:       10 bytes
  9488 ;; Hardware stack levels used: 1
  9489 ;; Hardware stack levels required when called: 1
  9490 ;; This function calls:
  9491 ;;		Nothing
  9492 ;; This function is called by:
  9493 ;;		_vectorCalculations
  9494 ;; This function uses a non-reentrant model
  9495 ;;
  9496                           
  9497     1F12                     ___fltol:	
  9498                           ;psect for function ___fltol
  9499                           
  9500     1F12                     l4320:	
  9501                           ;incstack = 0
  9502                           ; Regs used in ___fltol: [wreg+status,2+status,0]
  9503                           
  9504     1F12  1003               	clrc
  9505     1F13  0020               	movlb	0	; select bank0
  9506     1F14  0D68               	rlf	___fltol@f1+2,w
  9507     1F15  0D69               	rlf	___fltol@f1+3,w
  9508     1F16  00EF               	movwf	___fltol@exp1
  9509     1F17  086F               	movf	___fltol@exp1,w
  9510     1F18  1D03               	btfss	3,2
  9511     1F19  2F1B               	goto	u5171
  9512     1F1A  2F1C               	goto	u5170
  9513     1F1B                     u5171:
  9514     1F1B  2F25               	goto	l4326
  9515     1F1C                     u5170:
  9516     1F1C                     l4322:
  9517     1F1C  3000               	movlw	0
  9518     1F1D  00E9               	movwf	?___fltol+3
  9519     1F1E  3000               	movlw	0
  9520     1F1F  00E8               	movwf	?___fltol+2
  9521     1F20  3000               	movlw	0
  9522     1F21  00E7               	movwf	?___fltol+1
  9523     1F22  3000               	movlw	0
  9524     1F23  00E6               	movwf	?___fltol
  9525     1F24  2F80               	goto	l808
  9526     1F25                     l4326:
  9527     1F25  0866               	movf	___fltol@f1,w
  9528     1F26  00EA               	movwf	??___fltol
  9529     1F27  0867               	movf	___fltol@f1+1,w
  9530     1F28  00EB               	movwf	??___fltol+1
  9531     1F29  0868               	movf	___fltol@f1+2,w
  9532     1F2A  00EC               	movwf	??___fltol+2
  9533     1F2B  0869               	movf	___fltol@f1+3,w
  9534     1F2C  00ED               	movwf	??___fltol+3
  9535     1F2D  301F               	movlw	31
  9536     1F2E                     u5185:
  9537     1F2E  36ED               	lsrf	??___fltol+3,f
  9538     1F2F  0CEC               	rrf	??___fltol+2,f
  9539     1F30  0CEB               	rrf	??___fltol+1,f
  9540     1F31  0CEA               	rrf	??___fltol,f
  9541     1F32                     u5180:
  9542     1F32  0B89               	decfsz	9,f
  9543     1F33  2F2E               	goto	u5185
  9544     1F34  086A               	movf	??___fltol,w
  9545     1F35  00EE               	movwf	___fltol@sign1
  9546     1F36                     l4328:
  9547     1F36  17E8               	bsf	___fltol@f1+2,7
  9548     1F37                     l4330:
  9549     1F37  30FF               	movlw	255
  9550     1F38  05E6               	andwf	___fltol@f1,f
  9551     1F39  30FF               	movlw	255
  9552     1F3A  05E7               	andwf	___fltol@f1+1,f
  9553     1F3B  30FF               	movlw	255
  9554     1F3C  05E8               	andwf	___fltol@f1+2,f
  9555     1F3D  3000               	movlw	0
  9556     1F3E  05E9               	andwf	___fltol@f1+3,f
  9557     1F3F                     l4332:
  9558     1F3F  3096               	movlw	150
  9559     1F40  02EF               	subwf	___fltol@exp1,f
  9560     1F41                     l4334:
  9561     1F41  1FEF               	btfss	___fltol@exp1,7
  9562     1F42  2F44               	goto	u5191
  9563     1F43  2F45               	goto	u5190
  9564     1F44                     u5191:
  9565     1F44  2F5B               	goto	l4344
  9566     1F45                     u5190:
  9567     1F45                     l4336:
  9568     1F45  086F               	movf	___fltol@exp1,w
  9569     1F46  3A80               	xorlw	128
  9570     1F47  3E97               	addlw	151
  9571     1F48  1803               	skipnc
  9572     1F49  2F4B               	goto	u5201
  9573     1F4A  2F4C               	goto	u5200
  9574     1F4B                     u5201:
  9575     1F4B  2F4D               	goto	l4342
  9576     1F4C                     u5200:
  9577     1F4C  2F1C               	goto	l4322
  9578     1F4D                     l4342:
  9579     1F4D  3001               	movlw	1
  9580     1F4E                     u5215:
  9581     1F4E  36E9               	lsrf	___fltol@f1+3,f
  9582     1F4F  0CE8               	rrf	___fltol@f1+2,f
  9583     1F50  0CE7               	rrf	___fltol@f1+1,f
  9584     1F51  0CE6               	rrf	___fltol@f1,f
  9585     1F52  0B89               	decfsz	9,f
  9586     1F53  2F4E               	goto	u5215
  9587     1F54  3001               	movlw	1
  9588     1F55  07EF               	addwf	___fltol@exp1,f
  9589     1F56  1D03               	btfss	3,2
  9590     1F57  2F59               	goto	u5221
  9591     1F58  2F5A               	goto	u5220
  9592     1F59                     u5221:
  9593     1F59  2F4D               	goto	l4342
  9594     1F5A                     u5220:
  9595     1F5A  2F70               	goto	l4352
  9596     1F5B                     l4344:
  9597     1F5B  3020               	movlw	32
  9598     1F5C  026F               	subwf	___fltol@exp1,w
  9599     1F5D  1C03               	skipc
  9600     1F5E  2F60               	goto	u5231
  9601     1F5F  2F61               	goto	u5230
  9602     1F60                     u5231:
  9603     1F60  2F6B               	goto	l815
  9604     1F61                     u5230:
  9605     1F61  2F1C               	goto	l4322
  9606     1F62                     l4350:
  9607     1F62  3001               	movlw	1
  9608     1F63                     u5245:
  9609     1F63  35E6               	lslf	___fltol@f1,f
  9610     1F64  0DE7               	rlf	___fltol@f1+1,f
  9611     1F65  0DE8               	rlf	___fltol@f1+2,f
  9612     1F66  0DE9               	rlf	___fltol@f1+3,f
  9613     1F67  0B89               	decfsz	9,f
  9614     1F68  2F63               	goto	u5245
  9615     1F69  3001               	movlw	1
  9616     1F6A  02EF               	subwf	___fltol@exp1,f
  9617     1F6B                     l815:
  9618     1F6B  086F               	movf	___fltol@exp1,w
  9619     1F6C  1D03               	btfss	3,2
  9620     1F6D  2F6F               	goto	u5251
  9621     1F6E  2F70               	goto	u5250
  9622     1F6F                     u5251:
  9623     1F6F  2F62               	goto	l4350
  9624     1F70                     u5250:
  9625     1F70                     l4352:
  9626     1F70  086E               	movf	___fltol@sign1,w
  9627     1F71  1903               	btfsc	3,2
  9628     1F72  2F74               	goto	u5261
  9629     1F73  2F75               	goto	u5260
  9630     1F74                     u5261:
  9631     1F74  2F80               	goto	l818
  9632     1F75                     u5260:
  9633     1F75                     l4354:
  9634     1F75  09E6               	comf	___fltol@f1,f
  9635     1F76  09E7               	comf	___fltol@f1+1,f
  9636     1F77  09E8               	comf	___fltol@f1+2,f
  9637     1F78  09E9               	comf	___fltol@f1+3,f
  9638     1F79  0AE6               	incf	___fltol@f1,f
  9639     1F7A  1903               	skipnz
  9640     1F7B  0AE7               	incf	___fltol@f1+1,f
  9641     1F7C  1903               	skipnz
  9642     1F7D  0AE8               	incf	___fltol@f1+2,f
  9643     1F7E  1903               	skipnz
  9644     1F7F  0AE9               	incf	___fltol@f1+3,f
  9645     1F80                     l818:
  9646     1F80                     l808:
  9647     1F80  0008               	return
  9648     1F81                     __end_of___fltol:
  9649                           
  9650                           	psect	text15
  9651     1035                     __ptext15:	
  9652 ;; *************** function ___flge *****************
  9653 ;; Defined at:
  9654 ;;		line 4 in file "C:\Program Files\Microchip\xc8\v3.00\pic\sources\c99\common\flge.c"
  9655 ;; Parameters:    Size  Location     Type
  9656 ;;  ff1             4    1[COMMON] long 
  9657 ;;  ff2             4    5[COMMON] long 
  9658 ;; Auto vars:     Size  Location     Type
  9659 ;;		None
  9660 ;; Return value:  Size  Location     Type
  9661 ;;		None               void
  9662 ;; Registers used:
  9663 ;;		wreg, status,2, status,0
  9664 ;; Tracked objects:
  9665 ;;		On entry : 0/0
  9666 ;;		On exit  : 0/0
  9667 ;;		Unchanged: 0/0
  9668 ;; Data sizes:     COMMON   BANK0   BANK1   BANK2   BANK3   BANK4   BANK5   BANK6   BANK7   BANK8   BANK9  BANK10  BANK1
      +1  BANK12
  9669 ;;      Params:         8       0       0       0       0       0       0       0       0       0       0       0       
      +0       0
  9670 ;;      Locals:         0       0       0       0       0       0       0       0       0       0       0       0       
      +0       0
  9671 ;;      Temps:          0       4       0       0       0       0       0       0       0       0       0       0       
      +0       0
  9672 ;;      Totals:         8       4       0       0       0       0       0       0       0       0       0       0       
      +0       0
  9673 ;;Total ram usage:       12 bytes
  9674 ;; Hardware stack levels used: 1
  9675 ;; Hardware stack levels required when called: 1
  9676 ;; This function calls:
  9677 ;;		Nothing
  9678 ;; This function is called by:
  9679 ;;		_vectorCalculations
  9680 ;; This function uses a non-reentrant model
  9681 ;;
  9682                           
  9683     1035                     ___flge:	
  9684                           ;psect for function ___flge
  9685                           
  9686     1035                     l4300:	
  9687                           ;incstack = 0
  9688                           ; Regs used in ___flge: [wreg+status,2+status,0]
  9689                           
  9690     1035  3000               	movlw	0
  9691     1036  0571               	andwf	___flge@ff1,w
  9692     1037  0020               	movlb	0	; select bank0
  9693     1038  00A0               	movwf	??___flge
  9694     1039  3000               	movlw	0
  9695     103A  0572               	andwf	___flge@ff1+1,w
  9696     103B  00A1               	movwf	??___flge+1
  9697     103C  3080               	movlw	128
  9698     103D  0573               	andwf	___flge@ff1+2,w
  9699     103E  00A2               	movwf	??___flge+2
  9700     103F  307F               	movlw	127
  9701     1040  0574               	andwf	___flge@ff1+3,w
  9702     1041  00A3               	movwf	??___flge+3
  9703     1042  0823               	movf	??___flge+3,w
  9704     1043  0422               	iorwf	??___flge+2,w
  9705     1044  0421               	iorwf	??___flge+1,w
  9706     1045  0420               	iorwf	??___flge,w
  9707     1046  1D03               	skipz
  9708     1047  2849               	goto	u5121
  9709     1048  284A               	goto	u5120
  9710     1049                     u5121:
  9711     1049  2852               	goto	l792
  9712     104A                     u5120:
  9713     104A                     l4302:
  9714     104A  3000               	movlw	0
  9715     104B  00F4               	movwf	___flge@ff1+3
  9716     104C  3000               	movlw	0
  9717     104D  00F3               	movwf	___flge@ff1+2
  9718     104E  3000               	movlw	0
  9719     104F  00F2               	movwf	___flge@ff1+1
  9720     1050  3000               	movlw	0
  9721     1051  00F1               	movwf	___flge@ff1
  9722     1052                     l792:
  9723     1052  3000               	movlw	0
  9724     1053  0575               	andwf	___flge@ff2,w
  9725     1054  00A0               	movwf	??___flge
  9726     1055  3000               	movlw	0
  9727     1056  0576               	andwf	___flge@ff2+1,w
  9728     1057  00A1               	movwf	??___flge+1
  9729     1058  3080               	movlw	128
  9730     1059  0577               	andwf	___flge@ff2+2,w
  9731     105A  00A2               	movwf	??___flge+2
  9732     105B  307F               	movlw	127
  9733     105C  0578               	andwf	___flge@ff2+3,w
  9734     105D  00A3               	movwf	??___flge+3
  9735     105E  0823               	movf	??___flge+3,w
  9736     105F  0422               	iorwf	??___flge+2,w
  9737     1060  0421               	iorwf	??___flge+1,w
  9738     1061  0420               	iorwf	??___flge,w
  9739     1062  1D03               	skipz
  9740     1063  2865               	goto	u5131
  9741     1064  2866               	goto	u5130
  9742     1065                     u5131:
  9743     1065  286E               	goto	l4306
  9744     1066                     u5130:
  9745     1066                     l4304:
  9746     1066  3000               	movlw	0
  9747     1067  00F8               	movwf	___flge@ff2+3
  9748     1068  3000               	movlw	0
  9749     1069  00F7               	movwf	___flge@ff2+2
  9750     106A  3000               	movlw	0
  9751     106B  00F6               	movwf	___flge@ff2+1
  9752     106C  3000               	movlw	0
  9753     106D  00F5               	movwf	___flge@ff2
  9754     106E                     l4306:
  9755     106E  1FF4               	btfss	___flge@ff1+3,7
  9756     106F  2871               	goto	u5141
  9757     1070  2872               	goto	u5140
  9758     1071                     u5141:
  9759     1071  288A               	goto	l4310
  9760     1072                     u5140:
  9761     1072                     l4308:
  9762     1072  3000               	movlw	0
  9763     1073  00A0               	movwf	??___flge
  9764     1074  3000               	movlw	0
  9765     1075  00A1               	movwf	??___flge+1
  9766     1076  3000               	movlw	0
  9767     1077  00A2               	movwf	??___flge+2
  9768     1078  3080               	movlw	128
  9769     1079  00A3               	movwf	??___flge+3
  9770     107A  0871               	movf	___flge@ff1,w
  9771     107B  02A0               	subwf	??___flge,f
  9772     107C  0872               	movf	___flge@ff1+1,w
  9773     107D  3BA1               	subwfb	??___flge+1,f
  9774     107E  0873               	movf	___flge@ff1+2,w
  9775     107F  3BA2               	subwfb	??___flge+2,f
  9776     1080  0874               	movf	___flge@ff1+3,w
  9777     1081  3BA3               	subwfb	??___flge+3,f
  9778     1082  0823               	movf	??___flge+3,w
  9779     1083  00F4               	movwf	___flge@ff1+3
  9780     1084  0822               	movf	??___flge+2,w
  9781     1085  00F3               	movwf	___flge@ff1+2
  9782     1086  0821               	movf	??___flge+1,w
  9783     1087  00F2               	movwf	___flge@ff1+1
  9784     1088  0820               	movf	??___flge,w
  9785     1089  00F1               	movwf	___flge@ff1
  9786     108A                     l4310:
  9787     108A  1FF8               	btfss	___flge@ff2+3,7
  9788     108B  288D               	goto	u5151
  9789     108C  288E               	goto	u5150
  9790     108D                     u5151:
  9791     108D  28A6               	goto	l795
  9792     108E                     u5150:
  9793     108E                     l4312:
  9794     108E  3000               	movlw	0
  9795     108F  00A0               	movwf	??___flge
  9796     1090  3000               	movlw	0
  9797     1091  00A1               	movwf	??___flge+1
  9798     1092  3000               	movlw	0
  9799     1093  00A2               	movwf	??___flge+2
  9800     1094  3080               	movlw	128
  9801     1095  00A3               	movwf	??___flge+3
  9802     1096  0875               	movf	___flge@ff2,w
  9803     1097  02A0               	subwf	??___flge,f
  9804     1098  0876               	movf	___flge@ff2+1,w
  9805     1099  3BA1               	subwfb	??___flge+1,f
  9806     109A  0877               	movf	___flge@ff2+2,w
  9807     109B  3BA2               	subwfb	??___flge+2,f
  9808     109C  0878               	movf	___flge@ff2+3,w
  9809     109D  3BA3               	subwfb	??___flge+3,f
  9810     109E  0823               	movf	??___flge+3,w
  9811     109F  00F8               	movwf	___flge@ff2+3
  9812     10A0  0822               	movf	??___flge+2,w
  9813     10A1  00F7               	movwf	___flge@ff2+2
  9814     10A2  0821               	movf	??___flge+1,w
  9815     10A3  00F6               	movwf	___flge@ff2+1
  9816     10A4  0820               	movf	??___flge,w
  9817     10A5  00F5               	movwf	___flge@ff2
  9818     10A6                     l795:
  9819     10A6  3080               	movlw	128
  9820     10A7  06F4               	xorwf	___flge@ff1+3,f
  9821     10A8  3080               	movlw	128
  9822     10A9  06F8               	xorwf	___flge@ff2+3,f
  9823     10AA  0878               	movf	___flge@ff2+3,w
  9824     10AB  0274               	subwf	___flge@ff1+3,w
  9825     10AC  1D03               	skipz
  9826     10AD  28B8               	goto	u5165
  9827     10AE  0877               	movf	___flge@ff2+2,w
  9828     10AF  0273               	subwf	___flge@ff1+2,w
  9829     10B0  1D03               	skipz
  9830     10B1  28B8               	goto	u5165
  9831     10B2  0876               	movf	___flge@ff2+1,w
  9832     10B3  0272               	subwf	___flge@ff1+1,w
  9833     10B4  1D03               	skipz
  9834     10B5  28B8               	goto	u5165
  9835     10B6  0875               	movf	___flge@ff2,w
  9836     10B7  0271               	subwf	___flge@ff1,w
  9837     10B8                     u5165:
  9838     10B8  1803               	skipnc
  9839     10B9  28BB               	goto	u5161
  9840     10BA  28BC               	goto	u5160
  9841     10BB                     u5161:
  9842     10BB  28BE               	goto	l4316
  9843     10BC                     u5160:
  9844     10BC                     l4314:
  9845     10BC  1003               	clrc
  9846     10BD  28BF               	goto	l800
  9847     10BE                     l4316:
  9848     10BE  1403               	setc
  9849     10BF                     l800:
  9850     10BF  0008               	return
  9851     10C0                     __end_of___flge:
  9852                           
  9853                           	psect	text16
  9854     1C65                     __ptext16:	
  9855 ;; *************** function _MotorSettings *****************
  9856 ;; Defined at:
  9857 ;;		line 319 in file "Rover_Main_Ver01.c"
  9858 ;; Parameters:    Size  Location     Type
  9859 ;;  motorA          1    wreg     unsigned char 
  9860 ;;  motorA_pwm      1    0[BANK1 ] unsigned char 
  9861 ;;  motorB          1    1[BANK1 ] unsigned char 
  9862 ;;  motorB_pwm      1    2[BANK1 ] unsigned char 
  9863 ;; Auto vars:     Size  Location     Type
  9864 ;;  motorA          1   13[BANK1 ] unsigned char 
  9865 ;;  message        10    3[BANK1 ] unsigned char [10]
  9866 ;; Return value:  Size  Location     Type
  9867 ;;                  1    wreg      void 
  9868 ;; Registers used:
  9869 ;;		wreg, fsr1l, fsr1h, status,2, status,0, pclath, cstack
  9870 ;; Tracked objects:
  9871 ;;		On entry : 0/0
  9872 ;;		On exit  : 0/0
  9873 ;;		Unchanged: 0/0
  9874 ;; Data sizes:     COMMON   BANK0   BANK1   BANK2   BANK3   BANK4   BANK5   BANK6   BANK7   BANK8   BANK9  BANK10  BANK1
      +1  BANK12
  9875 ;;      Params:         0       0       3       0       0       0       0       0       0       0       0       0       
      +0       0
  9876 ;;      Locals:         0       0      11       0       0       0       0       0       0       0       0       0       
      +0       0
  9877 ;;      Temps:          0       0       0       0       0       0       0       0       0       0       0       0       
      +0       0
  9878 ;;      Totals:         0       0      14       0       0       0       0       0       0       0       0       0       
      +0       0
  9879 ;;Total ram usage:       14 bytes
  9880 ;; Hardware stack levels used: 1
  9881 ;; Hardware stack levels required when called: 3
  9882 ;; This function calls:
  9883 ;;		_UART_SendBuffer
  9884 ;; This function is called by:
  9885 ;;		_vectorCalculations
  9886 ;; This function uses a non-reentrant model
  9887 ;;
  9888                           
  9889     1C65                     _MotorSettings:	
  9890                           ;psect for function _MotorSettings
  9891                           
  9892                           
  9893                           ;incstack = 0
  9894                           ; Regs used in _MotorSettings: [wreg+fsr1l+fsr1h+status,2+status,0+pclath+cstack]
  9895                           ;MotorSettings@motorA stored from wreg
  9896     1C65  0021               	movlb	1	; select bank1
  9897     1C66  00AD               	movwf	MotorSettings@motorA^(0+128)
  9898     1C67                     l3358:
  9899                           
  9900                           ;Rover_Main_Ver01.c: 320:     uint8_t message[10];;Rover_Main_Ver01.c: 321:     message[
      +                          0] = 0xFE;
  9901     1C67  30FE               	movlw	254
  9902     1C68  00A3               	movwf	MotorSettings@message^(0+128)
  9903                           
  9904                           ;Rover_Main_Ver01.c: 322:     message[1] = 0x19;
  9905     1C69  3019               	movlw	25
  9906     1C6A  00A4               	movwf	(MotorSettings@message^(0+128)+1)
  9907                           
  9908                           ;Rover_Main_Ver01.c: 323:     message[2] = 0x01;
  9909     1C6B  3001               	movlw	1
  9910     1C6C  00A5               	movwf	(MotorSettings@message^(0+128)+2)
  9911                           
  9912                           ;Rover_Main_Ver01.c: 324:     message[3] = 0x06;
  9913     1C6D  3006               	movlw	6
  9914     1C6E  00A6               	movwf	(MotorSettings@message^(0+128)+3)
  9915                           
  9916                           ;Rover_Main_Ver01.c: 325:     message[4] = 0x04;
  9917     1C6F  3004               	movlw	4
  9918     1C70  00A7               	movwf	(MotorSettings@message^(0+128)+4)
  9919     1C71                     l3360:
  9920                           
  9921                           ;Rover_Main_Ver01.c: 326:     message[5] = 0x00;
  9922     1C71  01A8               	clrf	(MotorSettings@message^(0+128)+5)
  9923     1C72                     l3362:
  9924                           
  9925                           ;Rover_Main_Ver01.c: 327:     message[6] = motorA;
  9926     1C72  082D               	movf	MotorSettings@motorA^(0+128),w
  9927     1C73  00A9               	movwf	(MotorSettings@message^(0+128)+6)
  9928     1C74                     l3364:
  9929                           
  9930                           ;Rover_Main_Ver01.c: 328:     message[7] = motorA_pwm;
  9931     1C74  0820               	movf	MotorSettings@motorA_pwm^(0+128),w
  9932     1C75  00AA               	movwf	(MotorSettings@message^(0+128)+7)
  9933     1C76                     l3366:
  9934                           
  9935                           ;Rover_Main_Ver01.c: 329:     message[8] = motorB;
  9936     1C76  0821               	movf	MotorSettings@motorB^(0+128),w
  9937     1C77  00AB               	movwf	(MotorSettings@message^(0+128)+8)
  9938     1C78                     l3368:
  9939                           
  9940                           ;Rover_Main_Ver01.c: 330:     message[9] = motorB_pwm;
  9941     1C78  0822               	movf	MotorSettings@motorB_pwm^(0+128),w
  9942     1C79  00AC               	movwf	(MotorSettings@message^(0+128)+9)
  9943     1C7A                     l3370:
  9944                           
  9945                           ;Rover_Main_Ver01.c: 331:     UART_SendBuffer(message,10);
  9946     1C7A  30A3               	movlw	(low (MotorSettings@message| 0))& (0+255)
  9947     1C7B  00F2               	movwf	UART_SendBuffer@buffer
  9948     1C7C  300A               	movlw	10
  9949     1C7D  00F3               	movwf	UART_SendBuffer@length
  9950     1C7E  319C  241A  319C   	fcall	_UART_SendBuffer
  9951     1C81                     l353:
  9952     1C81  0008               	return
  9953     1C82                     __end_of_MotorSettings:
  9954                           
  9955                           	psect	text17
  9956     1014                     __ptext17:	
  9957 ;; *************** function _HAL_LED_ON *****************
  9958 ;; Defined at:
  9959 ;;		line 137 in file "Rover_Main_Ver01.c"
  9960 ;; Parameters:    Size  Location     Type
  9961 ;;  LED             2    1[COMMON] int 
  9962 ;; Auto vars:     Size  Location     Type
  9963 ;;		None
  9964 ;; Return value:  Size  Location     Type
  9965 ;;                  1    wreg      void 
  9966 ;; Registers used:
  9967 ;;		wreg, fsr0l, fsr0h, status,2, status,0
  9968 ;; Tracked objects:
  9969 ;;		On entry : 0/0
  9970 ;;		On exit  : 0/0
  9971 ;;		Unchanged: 0/0
  9972 ;; Data sizes:     COMMON   BANK0   BANK1   BANK2   BANK3   BANK4   BANK5   BANK6   BANK7   BANK8   BANK9  BANK10  BANK1
      +1  BANK12
  9973 ;;      Params:         2       0       0       0       0       0       0       0       0       0       0       0       
      +0       0
  9974 ;;      Locals:         0       0       0       0       0       0       0       0       0       0       0       0       
      +0       0
  9975 ;;      Temps:          0       0       0       0       0       0       0       0       0       0       0       0       
      +0       0
  9976 ;;      Totals:         2       0       0       0       0       0       0       0       0       0       0       0       
      +0       0
  9977 ;;Total ram usage:        2 bytes
  9978 ;; Hardware stack levels used: 1
  9979 ;; Hardware stack levels required when called: 1
  9980 ;; This function calls:
  9981 ;;		Nothing
  9982 ;; This function is called by:
  9983 ;;		_vectorCalculations
  9984 ;; This function uses a non-reentrant model
  9985 ;;
  9986                           
  9987     1014                     _HAL_LED_ON:	
  9988                           ;psect for function _HAL_LED_ON
  9989                           
  9990     1014                     l3328:	
  9991                           ;incstack = 0
  9992                           ; Regs used in _HAL_LED_ON: [wreg-fsr0h+status,2+status,0]
  9993                           
  9994                           
  9995                           ;Rover_Main_Ver01.c: 138:  switch(LED){
  9996     1014  2821               	goto	l3332
  9997     1015                     l306:	
  9998                           ;Rover_Main_Ver01.c: 139:   case 1:
  9999                           
 10000                           
 10001                           ;Rover_Main_Ver01.c: 140:    LATAbits.LATA0 = 1;
 10002     1015  0020               	movlb	0	; select bank0
 10003     1016  1416               	bsf	22,0	;volatile
 10004                           
 10005                           ;Rover_Main_Ver01.c: 141:    break;
 10006     1017  2834               	goto	l311
 10007     1018                     l308:	
 10008                           ;Rover_Main_Ver01.c: 142:   case 2:
 10009                           
 10010                           
 10011                           ;Rover_Main_Ver01.c: 143:    LATAbits.LATA1 = 1;
 10012     1018  0020               	movlb	0	; select bank0
 10013     1019  1496               	bsf	22,1	;volatile
 10014                           
 10015                           ;Rover_Main_Ver01.c: 144:    break;
 10016     101A  2834               	goto	l311
 10017     101B                     l309:	
 10018                           ;Rover_Main_Ver01.c: 145:   case 3:
 10019                           
 10020                           
 10021                           ;Rover_Main_Ver01.c: 146:    LATAbits.LATA2 = 1;
 10022     101B  0020               	movlb	0	; select bank0
 10023     101C  1516               	bsf	22,2	;volatile
 10024                           
 10025                           ;Rover_Main_Ver01.c: 147:    break;
 10026     101D  2834               	goto	l311
 10027     101E                     l310:	
 10028                           ;Rover_Main_Ver01.c: 148:         case 4:
 10029                           
 10030                           
 10031                           ;Rover_Main_Ver01.c: 149:             LATAbits.LATA3 = 1;
 10032     101E  0020               	movlb	0	; select bank0
 10033     101F  1596               	bsf	22,3	;volatile
 10034                           
 10035                           ;Rover_Main_Ver01.c: 150:             break;
 10036     1020  2834               	goto	l311
 10037     1021                     l3332:
 10038                           
 10039                           ; Switch on 2 bytes has been partitioned into a top level switch of size 1, and 1 sub-sw
      +                          itches
 10040                           ; Switch size 1, requested type "simple"
 10041                           ; Number of cases is 1, Range of values is 0 to 0
 10042                           ; switch strategies available:
 10043                           ; Name         Instructions Cycles
 10044                           ; simple_byte            4     3 (average)
 10045                           ; direct_byte            8     6 (fixed)
 10046                           ; jumptable            260     6 (fixed)
 10047                           ;	Chosen strategy is simple_byte
 10048     1021  0872               	movf	HAL_LED_ON@LED+1,w
 10049     1022  3A00               	xorlw	0	; case 0
 10050     1023  1903               	skipnz
 10051     1024  2826               	goto	l4704
 10052     1025  2834               	goto	l311
 10053     1026                     l4704:
 10054                           
 10055                           ; Switch size 1, requested type "simple"
 10056                           ; Number of cases is 4, Range of values is 1 to 4
 10057                           ; switch strategies available:
 10058                           ; Name         Instructions Cycles
 10059                           ; simple_byte           13     7 (average)
 10060                           ; direct_byte           17     9 (fixed)
 10061                           ; jumptable            263     9 (fixed)
 10062                           ;	Chosen strategy is simple_byte
 10063     1026  0871               	movf	HAL_LED_ON@LED,w
 10064     1027  3A01               	xorlw	1	; case 1
 10065     1028  1903               	skipnz
 10066     1029  2815               	goto	l306
 10067     102A  3A03               	xorlw	3	; case 2
 10068     102B  1903               	skipnz
 10069     102C  2818               	goto	l308
 10070     102D  3A01               	xorlw	1	; case 3
 10071     102E  1903               	skipnz
 10072     102F  281B               	goto	l309
 10073     1030  3A07               	xorlw	7	; case 4
 10074     1031  1903               	skipnz
 10075     1032  281E               	goto	l310
 10076     1033  2834               	goto	l311
 10077     1034                     l311:
 10078     1034  0008               	return
 10079     1035                     __end_of_HAL_LED_ON:
 10080                           
 10081                           	psect	text18
 10082     1165                     __ptext18:	
 10083 ;; *************** function _mergeVariables *****************
 10084 ;; Defined at:
 10085 ;;		line 261 in file "Rover_Main_Ver01.c"
 10086 ;; Parameters:    Size  Location     Type
 10087 ;;		None
 10088 ;; Auto vars:     Size  Location     Type
 10089 ;;		None
 10090 ;; Return value:  Size  Location     Type
 10091 ;;                  1    wreg      void 
 10092 ;; Registers used:
 10093 ;;		wreg, status,2, status,0, pclath, cstack
 10094 ;; Tracked objects:
 10095 ;;		On entry : 0/0
 10096 ;;		On exit  : 0/0
 10097 ;;		Unchanged: 0/0
 10098 ;; Data sizes:     COMMON   BANK0   BANK1   BANK2   BANK3   BANK4   BANK5   BANK6   BANK7   BANK8   BANK9  BANK10  BANK1
      +1  BANK12
 10099 ;;      Params:         0       0       0       0       0       0       0       0       0       0       0       0       
      +0       0
 10100 ;;      Locals:         0       0       0       0       0       0       0       0       0       0       0       0       
      +0       0
 10101 ;;      Temps:          0       5       0       0       0       0       0       0       0       0       0       0       
      +0       0
 10102 ;;      Totals:         0       5       0       0       0       0       0       0       0       0       0       0       
      +0       0
 10103 ;;Total ram usage:        5 bytes
 10104 ;; Hardware stack levels used: 1
 10105 ;; Hardware stack levels required when called: 2
 10106 ;; This function calls:
 10107 ;;		___awdiv
 10108 ;; This function is called by:
 10109 ;;		_main
 10110 ;; This function uses a non-reentrant model
 10111 ;;
 10112                           
 10113     1165                     _mergeVariables:	
 10114                           ;psect for function _mergeVariables
 10115                           
 10116     1165                     l3760:	
 10117                           ;incstack = 0
 10118                           ; Regs used in _mergeVariables: [wreg+status,2+status,0+pclath+cstack]
 10119                           
 10120                           
 10121                           ;Rover_Main_Ver01.c: 262:     right_Joystick_X = (arr[7]<<8) | arr[6];
 10122     1165  0023               	movlb	3	; select bank3
 10123     1166  0826               	movf	(_arr^(0+384)+6),w
 10124     1167  0020               	movlb	0	; select bank0
 10125     1168  00A0               	movwf	??_mergeVariables
 10126     1169  01A1               	clrf	??_mergeVariables+1
 10127     116A  0023               	movlb	3	; select bank3
 10128     116B  0827               	movf	(_arr^(0+384)+7),w
 10129     116C  0020               	movlb	0	; select bank0
 10130     116D  00A2               	movwf	??_mergeVariables+2
 10131     116E  01A3               	clrf	??_mergeVariables+3
 10132     116F  0822               	movf	??_mergeVariables+2,w
 10133     1170  00A3               	movwf	??_mergeVariables+3
 10134     1171  01A2               	clrf	??_mergeVariables+2
 10135     1172  0820               	movf	??_mergeVariables,w
 10136     1173  0422               	iorwf	??_mergeVariables+2,w
 10137     1174  0021               	movlb	1	; select bank1
 10138     1175  00EE               	movwf	_right_Joystick_X^(0+128)
 10139     1176  0020               	movlb	0	; select bank0
 10140     1177  0821               	movf	??_mergeVariables+1,w
 10141     1178  0423               	iorwf	??_mergeVariables+3,w
 10142     1179  0021               	movlb	1	; select bank1
 10143     117A  00EF               	movwf	(_right_Joystick_X+1)^(0+128)
 10144                           
 10145                           ;Rover_Main_Ver01.c: 263:     left_Joystick_X = (arr[13]<<8) | arr[12];
 10146     117B  0023               	movlb	3	; select bank3
 10147     117C  082C               	movf	(_arr^(0+384)+12),w
 10148     117D  0020               	movlb	0	; select bank0
 10149     117E  00A0               	movwf	??_mergeVariables
 10150     117F  01A1               	clrf	??_mergeVariables+1
 10151     1180  0023               	movlb	3	; select bank3
 10152     1181  082D               	movf	(_arr^(0+384)+13),w
 10153     1182  0020               	movlb	0	; select bank0
 10154     1183  00A2               	movwf	??_mergeVariables+2
 10155     1184  01A3               	clrf	??_mergeVariables+3
 10156     1185  0822               	movf	??_mergeVariables+2,w
 10157     1186  00A3               	movwf	??_mergeVariables+3
 10158     1187  01A2               	clrf	??_mergeVariables+2
 10159     1188  0820               	movf	??_mergeVariables,w
 10160     1189  0422               	iorwf	??_mergeVariables+2,w
 10161     118A  0022               	movlb	2	; select bank2
 10162     118B  00E4               	movwf	_left_Joystick_X^(0+256)
 10163     118C  0020               	movlb	0	; select bank0
 10164     118D  0821               	movf	??_mergeVariables+1,w
 10165     118E  0423               	iorwf	??_mergeVariables+3,w
 10166     118F  0022               	movlb	2	; select bank2
 10167     1190  00E5               	movwf	(_left_Joystick_X+1)^(0+256)
 10168                           
 10169                           ;Rover_Main_Ver01.c: 264:     right_Joystick_Y = (arr[9]<<8) | arr[8];
 10170     1191  0023               	movlb	3	; select bank3
 10171     1192  0828               	movf	(_arr^(0+384)+8),w
 10172     1193  0020               	movlb	0	; select bank0
 10173     1194  00A0               	movwf	??_mergeVariables
 10174     1195  01A1               	clrf	??_mergeVariables+1
 10175     1196  0023               	movlb	3	; select bank3
 10176     1197  0829               	movf	(_arr^(0+384)+9),w
 10177     1198  0020               	movlb	0	; select bank0
 10178     1199  00A2               	movwf	??_mergeVariables+2
 10179     119A  01A3               	clrf	??_mergeVariables+3
 10180     119B  0822               	movf	??_mergeVariables+2,w
 10181     119C  00A3               	movwf	??_mergeVariables+3
 10182     119D  01A2               	clrf	??_mergeVariables+2
 10183     119E  0820               	movf	??_mergeVariables,w
 10184     119F  0422               	iorwf	??_mergeVariables+2,w
 10185     11A0  0021               	movlb	1	; select bank1
 10186     11A1  00EC               	movwf	_right_Joystick_Y^(0+128)
 10187     11A2  0020               	movlb	0	; select bank0
 10188     11A3  0821               	movf	??_mergeVariables+1,w
 10189     11A4  0423               	iorwf	??_mergeVariables+3,w
 10190     11A5  0021               	movlb	1	; select bank1
 10191     11A6  00ED               	movwf	(_right_Joystick_Y+1)^(0+128)
 10192                           
 10193                           ;Rover_Main_Ver01.c: 265:     left_Joystick_Y = (arr[11]<<8) | arr[10];
 10194     11A7  0023               	movlb	3	; select bank3
 10195     11A8  082A               	movf	(_arr^(0+384)+10),w
 10196     11A9  0020               	movlb	0	; select bank0
 10197     11AA  00A0               	movwf	??_mergeVariables
 10198     11AB  01A1               	clrf	??_mergeVariables+1
 10199     11AC  0023               	movlb	3	; select bank3
 10200     11AD  082B               	movf	(_arr^(0+384)+11),w
 10201     11AE  0020               	movlb	0	; select bank0
 10202     11AF  00A2               	movwf	??_mergeVariables+2
 10203     11B0  01A3               	clrf	??_mergeVariables+3
 10204     11B1  0822               	movf	??_mergeVariables+2,w
 10205     11B2  00A3               	movwf	??_mergeVariables+3
 10206     11B3  01A2               	clrf	??_mergeVariables+2
 10207     11B4  0820               	movf	??_mergeVariables,w
 10208     11B5  0422               	iorwf	??_mergeVariables+2,w
 10209     11B6  0022               	movlb	2	; select bank2
 10210     11B7  00E2               	movwf	_left_Joystick_Y^(0+256)
 10211     11B8  0020               	movlb	0	; select bank0
 10212     11B9  0821               	movf	??_mergeVariables+1,w
 10213     11BA  0423               	iorwf	??_mergeVariables+3,w
 10214     11BB  0022               	movlb	2	; select bank2
 10215     11BC  00E3               	movwf	(_left_Joystick_Y+1)^(0+256)
 10216                           
 10217                           ;Rover_Main_Ver01.c: 266:     left_Pot = (arr[23]<<8) | arr[22];
 10218     11BD  0023               	movlb	3	; select bank3
 10219     11BE  0836               	movf	(_arr^(0+384)+22),w
 10220     11BF  0020               	movlb	0	; select bank0
 10221     11C0  00A0               	movwf	??_mergeVariables
 10222     11C1  01A1               	clrf	??_mergeVariables+1
 10223     11C2  0023               	movlb	3	; select bank3
 10224     11C3  0837               	movf	(_arr^(0+384)+23),w
 10225     11C4  0020               	movlb	0	; select bank0
 10226     11C5  00A2               	movwf	??_mergeVariables+2
 10227     11C6  01A3               	clrf	??_mergeVariables+3
 10228     11C7  0822               	movf	??_mergeVariables+2,w
 10229     11C8  00A3               	movwf	??_mergeVariables+3
 10230     11C9  01A2               	clrf	??_mergeVariables+2
 10231     11CA  0820               	movf	??_mergeVariables,w
 10232     11CB  0422               	iorwf	??_mergeVariables+2,w
 10233     11CC  0022               	movlb	2	; select bank2
 10234     11CD  00E0               	movwf	_left_Pot^(0+256)
 10235     11CE  0020               	movlb	0	; select bank0
 10236     11CF  0821               	movf	??_mergeVariables+1,w
 10237     11D0  0423               	iorwf	??_mergeVariables+3,w
 10238     11D1  0022               	movlb	2	; select bank2
 10239     11D2  00E1               	movwf	(_left_Pot+1)^(0+256)
 10240                           
 10241                           ;Rover_Main_Ver01.c: 267:     left_Pot = (arr[25]<<8) | arr[24];
 10242     11D3  0023               	movlb	3	; select bank3
 10243     11D4  0838               	movf	(_arr^(0+384)+24),w
 10244     11D5  0020               	movlb	0	; select bank0
 10245     11D6  00A0               	movwf	??_mergeVariables
 10246     11D7  01A1               	clrf	??_mergeVariables+1
 10247     11D8  0023               	movlb	3	; select bank3
 10248     11D9  0839               	movf	(_arr^(0+384)+25),w
 10249     11DA  0020               	movlb	0	; select bank0
 10250     11DB  00A2               	movwf	??_mergeVariables+2
 10251     11DC  01A3               	clrf	??_mergeVariables+3
 10252     11DD  0822               	movf	??_mergeVariables+2,w
 10253     11DE  00A3               	movwf	??_mergeVariables+3
 10254     11DF  01A2               	clrf	??_mergeVariables+2
 10255     11E0  0820               	movf	??_mergeVariables,w
 10256     11E1  0422               	iorwf	??_mergeVariables+2,w
 10257     11E2  0022               	movlb	2	; select bank2
 10258     11E3  00E0               	movwf	_left_Pot^(0+256)
 10259     11E4  0020               	movlb	0	; select bank0
 10260     11E5  0821               	movf	??_mergeVariables+1,w
 10261     11E6  0423               	iorwf	??_mergeVariables+3,w
 10262     11E7  0022               	movlb	2	; select bank2
 10263     11E8  00E1               	movwf	(_left_Pot+1)^(0+256)
 10264                           
 10265                           ;Rover_Main_Ver01.c: 268:     left_Pot -= 1000;
 10266     11E9  3018               	movlw	24
 10267     11EA  07E0               	addwf	_left_Pot^(0+256),f
 10268     11EB  30FC               	movlw	252
 10269     11EC  3DE1               	addwfc	(_left_Pot+1)^(0+256),f
 10270     11ED                     l3762:
 10271                           
 10272                           ;Rover_Main_Ver01.c: 269:     left_Pot /= 250;
 10273     11ED  30FA               	movlw	250
 10274     11EE  00F1               	movwf	___awdiv@divisor
 10275     11EF  3000               	movlw	0
 10276     11F0  00F2               	movwf	___awdiv@divisor+1
 10277     11F1  0861               	movf	(_left_Pot+1)^(0+256),w
 10278     11F2  00F4               	movwf	___awdiv@dividend+1
 10279     11F3  0860               	movf	_left_Pot^(0+256),w
 10280     11F4  00F3               	movwf	___awdiv@dividend
 10281     11F5  319E  26B7  3191   	fcall	___awdiv
 10282     11F8  0872               	movf	?___awdiv+1,w
 10283     11F9  0022               	movlb	2	; select bank2
 10284     11FA  00E1               	movwf	(_left_Pot+1)^(0+256)
 10285     11FB  0871               	movf	?___awdiv,w
 10286     11FC  00E0               	movwf	_left_Pot^(0+256)
 10287     11FD                     l3764:
 10288                           
 10289                           ;Rover_Main_Ver01.c: 272:     right_Joystick_X = (right_Joystick_X - 1500)/8;
 10290     11FD  3008               	movlw	8
 10291     11FE  00F1               	movwf	___awdiv@divisor
 10292     11FF  3000               	movlw	0
 10293     1200  00F2               	movwf	___awdiv@divisor+1
 10294     1201  0021               	movlb	1	; select bank1
 10295     1202  086E               	movf	_right_Joystick_X^(0+128),w
 10296     1203  3E24               	addlw	36
 10297     1204  00F3               	movwf	___awdiv@dividend
 10298     1205  30FA               	movlw	250
 10299     1206  3D6F               	addwfc	(_right_Joystick_X+1)^(0+128),w
 10300     1207  00F4               	movwf	___awdiv@dividend+1
 10301     1208  319E  26B7  3191   	fcall	___awdiv
 10302     120B  0872               	movf	?___awdiv+1,w
 10303     120C  0021               	movlb	1	; select bank1
 10304     120D  00EF               	movwf	(_right_Joystick_X+1)^(0+128)
 10305     120E  0871               	movf	?___awdiv,w
 10306     120F  00EE               	movwf	_right_Joystick_X^(0+128)
 10307     1210                     l3766:
 10308                           
 10309                           ;Rover_Main_Ver01.c: 273:     left_Joystick_X = (left_Joystick_X - 1500)/8;
 10310     1210  3008               	movlw	8
 10311     1211  00F1               	movwf	___awdiv@divisor
 10312     1212  3000               	movlw	0
 10313     1213  00F2               	movwf	___awdiv@divisor+1
 10314     1214  0022               	movlb	2	; select bank2
 10315     1215  0864               	movf	_left_Joystick_X^(0+256),w
 10316     1216  3E24               	addlw	36
 10317     1217  00F3               	movwf	___awdiv@dividend
 10318     1218  30FA               	movlw	250
 10319     1219  3D65               	addwfc	(_left_Joystick_X+1)^(0+256),w
 10320     121A  00F4               	movwf	___awdiv@dividend+1
 10321     121B  319E  26B7  3191   	fcall	___awdiv
 10322     121E  0872               	movf	?___awdiv+1,w
 10323     121F  0022               	movlb	2	; select bank2
 10324     1220  00E5               	movwf	(_left_Joystick_X+1)^(0+256)
 10325     1221  0871               	movf	?___awdiv,w
 10326     1222  00E4               	movwf	_left_Joystick_X^(0+256)
 10327     1223                     l3768:
 10328                           
 10329                           ;Rover_Main_Ver01.c: 274:     right_Joystick_Y = (right_Joystick_Y - 1500)/8;
 10330     1223  3008               	movlw	8
 10331     1224  00F1               	movwf	___awdiv@divisor
 10332     1225  3000               	movlw	0
 10333     1226  00F2               	movwf	___awdiv@divisor+1
 10334     1227  0021               	movlb	1	; select bank1
 10335     1228  086C               	movf	_right_Joystick_Y^(0+128),w
 10336     1229  3E24               	addlw	36
 10337     122A  00F3               	movwf	___awdiv@dividend
 10338     122B  30FA               	movlw	250
 10339     122C  3D6D               	addwfc	(_right_Joystick_Y+1)^(0+128),w
 10340     122D  00F4               	movwf	___awdiv@dividend+1
 10341     122E  319E  26B7  3191   	fcall	___awdiv
 10342     1231  0872               	movf	?___awdiv+1,w
 10343     1232  0021               	movlb	1	; select bank1
 10344     1233  00ED               	movwf	(_right_Joystick_Y+1)^(0+128)
 10345     1234  0871               	movf	?___awdiv,w
 10346     1235  00EC               	movwf	_right_Joystick_Y^(0+128)
 10347     1236                     l3770:
 10348                           
 10349                           ;Rover_Main_Ver01.c: 275:     left_Joystick_Y = (left_Joystick_Y - 1500)/8;
 10350     1236  3008               	movlw	8
 10351     1237  00F1               	movwf	___awdiv@divisor
 10352     1238  3000               	movlw	0
 10353     1239  00F2               	movwf	___awdiv@divisor+1
 10354     123A  0022               	movlb	2	; select bank2
 10355     123B  0862               	movf	_left_Joystick_Y^(0+256),w
 10356     123C  3E24               	addlw	36
 10357     123D  00F3               	movwf	___awdiv@dividend
 10358     123E  30FA               	movlw	250
 10359     123F  3D63               	addwfc	(_left_Joystick_Y+1)^(0+256),w
 10360     1240  00F4               	movwf	___awdiv@dividend+1
 10361     1241  319E  26B7  3191   	fcall	___awdiv
 10362     1244  0872               	movf	?___awdiv+1,w
 10363     1245  0022               	movlb	2	; select bank2
 10364     1246  00E3               	movwf	(_left_Joystick_Y+1)^(0+256)
 10365     1247  0871               	movf	?___awdiv,w
 10366     1248  00E2               	movwf	_left_Joystick_Y^(0+256)
 10367     1249                     l341:
 10368     1249  0008               	return
 10369     124A                     __end_of_mergeVariables:
 10370                           
 10371                           	psect	text19
 10372     1EB7                     __ptext19:	
 10373 ;; *************** function ___awdiv *****************
 10374 ;; Defined at:
 10375 ;;		line 5 in file "C:\Program Files\Microchip\xc8\v3.00\pic\sources\c99\common\awdiv.c"
 10376 ;; Parameters:    Size  Location     Type
 10377 ;;  divisor         2    1[COMMON] int 
 10378 ;;  dividend        2    3[COMMON] int 
 10379 ;; Auto vars:     Size  Location     Type
 10380 ;;  quotient        2    7[COMMON] int 
 10381 ;;  sign            1    6[COMMON] unsigned char 
 10382 ;;  counter         1    5[COMMON] unsigned char 
 10383 ;; Return value:  Size  Location     Type
 10384 ;;                  2    1[COMMON] int 
 10385 ;; Registers used:
 10386 ;;		wreg, status,2, status,0
 10387 ;; Tracked objects:
 10388 ;;		On entry : 0/0
 10389 ;;		On exit  : 0/0
 10390 ;;		Unchanged: 0/0
 10391 ;; Data sizes:     COMMON   BANK0   BANK1   BANK2   BANK3   BANK4   BANK5   BANK6   BANK7   BANK8   BANK9  BANK10  BANK1
      +1  BANK12
 10392 ;;      Params:         4       0       0       0       0       0       0       0       0       0       0       0       
      +0       0
 10393 ;;      Locals:         4       0       0       0       0       0       0       0       0       0       0       0       
      +0       0
 10394 ;;      Temps:          0       0       0       0       0       0       0       0       0       0       0       0       
      +0       0
 10395 ;;      Totals:         8       0       0       0       0       0       0       0       0       0       0       0       
      +0       0
 10396 ;;Total ram usage:        8 bytes
 10397 ;; Hardware stack levels used: 1
 10398 ;; Hardware stack levels required when called: 1
 10399 ;; This function calls:
 10400 ;;		Nothing
 10401 ;; This function is called by:
 10402 ;;		_mergeVariables
 10403 ;; This function uses a non-reentrant model
 10404 ;;
 10405                           
 10406     1EB7                     ___awdiv:	
 10407                           ;psect for function ___awdiv
 10408                           
 10409     1EB7                     l3508:	
 10410                           ;incstack = 0
 10411                           ; Regs used in ___awdiv: [wreg+status,2+status,0]
 10412                           
 10413     1EB7  01F6               	clrf	___awdiv@sign
 10414     1EB8                     l3510:
 10415     1EB8  1FF2               	btfss	___awdiv@divisor+1,7
 10416     1EB9  2EBB               	goto	u4121
 10417     1EBA  2EBC               	goto	u4120
 10418     1EBB                     u4121:
 10419     1EBB  2EC3               	goto	l3516
 10420     1EBC                     u4120:
 10421     1EBC                     l3512:
 10422     1EBC  09F1               	comf	___awdiv@divisor,f
 10423     1EBD  09F2               	comf	___awdiv@divisor+1,f
 10424     1EBE  0AF1               	incf	___awdiv@divisor,f
 10425     1EBF  1903               	skipnz
 10426     1EC0  0AF2               	incf	___awdiv@divisor+1,f
 10427     1EC1                     l3514:
 10428     1EC1  3001               	movlw	1
 10429     1EC2  00F6               	movwf	___awdiv@sign
 10430     1EC3                     l3516:
 10431     1EC3  1FF4               	btfss	___awdiv@dividend+1,7
 10432     1EC4  2EC6               	goto	u4131
 10433     1EC5  2EC7               	goto	u4130
 10434     1EC6                     u4131:
 10435     1EC6  2ECE               	goto	l3522
 10436     1EC7                     u4130:
 10437     1EC7                     l3518:
 10438     1EC7  09F3               	comf	___awdiv@dividend,f
 10439     1EC8  09F4               	comf	___awdiv@dividend+1,f
 10440     1EC9  0AF3               	incf	___awdiv@dividend,f
 10441     1ECA  1903               	skipnz
 10442     1ECB  0AF4               	incf	___awdiv@dividend+1,f
 10443     1ECC                     l3520:
 10444     1ECC  3001               	movlw	1
 10445     1ECD  06F6               	xorwf	___awdiv@sign,f
 10446     1ECE                     l3522:
 10447     1ECE  01F7               	clrf	___awdiv@quotient
 10448     1ECF  01F8               	clrf	___awdiv@quotient+1
 10449     1ED0                     l3524:
 10450     1ED0  0871               	movf	___awdiv@divisor,w
 10451     1ED1  0472               	iorwf	___awdiv@divisor+1,w
 10452     1ED2  1903               	btfsc	3,2
 10453     1ED3  2ED5               	goto	u4141
 10454     1ED4  2ED6               	goto	u4140
 10455     1ED5                     u4141:
 10456     1ED5  2F03               	goto	l3544
 10457     1ED6                     u4140:
 10458     1ED6                     l3526:
 10459     1ED6  3001               	movlw	1
 10460     1ED7  00F5               	movwf	___awdiv@counter
 10461     1ED8  2EE0               	goto	l3532
 10462     1ED9                     l3528:
 10463     1ED9  3001               	movlw	1
 10464     1EDA                     u4155:
 10465     1EDA  35F1               	lslf	___awdiv@divisor,f
 10466     1EDB  0DF2               	rlf	___awdiv@divisor+1,f
 10467     1EDC  0B89               	decfsz	9,f
 10468     1EDD  2EDA               	goto	u4155
 10469     1EDE                     l3530:
 10470     1EDE  3001               	movlw	1
 10471     1EDF  07F5               	addwf	___awdiv@counter,f
 10472     1EE0                     l3532:
 10473     1EE0  1FF2               	btfss	___awdiv@divisor+1,7
 10474     1EE1  2EE3               	goto	u4161
 10475     1EE2  2EE4               	goto	u4160
 10476     1EE3                     u4161:
 10477     1EE3  2ED9               	goto	l3528
 10478     1EE4                     u4160:
 10479     1EE4                     l3534:
 10480     1EE4  3001               	movlw	1
 10481     1EE5                     u4175:
 10482     1EE5  35F7               	lslf	___awdiv@quotient,f
 10483     1EE6  0DF8               	rlf	___awdiv@quotient+1,f
 10484     1EE7  0B89               	decfsz	9,f
 10485     1EE8  2EE5               	goto	u4175
 10486     1EE9  0872               	movf	___awdiv@divisor+1,w
 10487     1EEA  0274               	subwf	___awdiv@dividend+1,w
 10488     1EEB  1D03               	skipz
 10489     1EEC  2EEF               	goto	u4185
 10490     1EED  0871               	movf	___awdiv@divisor,w
 10491     1EEE  0273               	subwf	___awdiv@dividend,w
 10492     1EEF                     u4185:
 10493     1EEF  1C03               	skipc
 10494     1EF0  2EF2               	goto	u4181
 10495     1EF1  2EF3               	goto	u4180
 10496     1EF2                     u4181:
 10497     1EF2  2EF8               	goto	l3540
 10498     1EF3                     u4180:
 10499     1EF3                     l3536:
 10500     1EF3  0871               	movf	___awdiv@divisor,w
 10501     1EF4  02F3               	subwf	___awdiv@dividend,f
 10502     1EF5  0872               	movf	___awdiv@divisor+1,w
 10503     1EF6  3BF4               	subwfb	___awdiv@dividend+1,f
 10504     1EF7                     l3538:
 10505     1EF7  1477               	bsf	___awdiv@quotient,0
 10506     1EF8                     l3540:
 10507     1EF8  3001               	movlw	1
 10508     1EF9                     u4195:
 10509     1EF9  36F2               	lsrf	___awdiv@divisor+1,f
 10510     1EFA  0CF1               	rrf	___awdiv@divisor,f
 10511     1EFB  0B89               	decfsz	9,f
 10512     1EFC  2EF9               	goto	u4195
 10513     1EFD                     l3542:
 10514     1EFD  3001               	movlw	1
 10515     1EFE  02F5               	subwf	___awdiv@counter,f
 10516     1EFF  1D03               	btfss	3,2
 10517     1F00  2F02               	goto	u4201
 10518     1F01  2F03               	goto	u4200
 10519     1F02                     u4201:
 10520     1F02  2EE4               	goto	l3534
 10521     1F03                     u4200:
 10522     1F03                     l3544:
 10523     1F03  0876               	movf	___awdiv@sign,w
 10524     1F04  1903               	btfsc	3,2
 10525     1F05  2F07               	goto	u4211
 10526     1F06  2F08               	goto	u4210
 10527     1F07                     u4211:
 10528     1F07  2F0D               	goto	l3548
 10529     1F08                     u4210:
 10530     1F08                     l3546:
 10531     1F08  09F7               	comf	___awdiv@quotient,f
 10532     1F09  09F8               	comf	___awdiv@quotient+1,f
 10533     1F0A  0AF7               	incf	___awdiv@quotient,f
 10534     1F0B  1903               	skipnz
 10535     1F0C  0AF8               	incf	___awdiv@quotient+1,f
 10536     1F0D                     l3548:
 10537     1F0D  0878               	movf	___awdiv@quotient+1,w
 10538     1F0E  00F2               	movwf	?___awdiv+1
 10539     1F0F  0877               	movf	___awdiv@quotient,w
 10540     1F10  00F1               	movwf	?___awdiv
 10541     1F11                     l767:
 10542     1F11  0008               	return
 10543     1F12                     __end_of___awdiv:
 10544                           
 10545                           	psect	text20
 10546     1E20                     __ptext20:	
 10547 ;; *************** function _initialize_all *****************
 10548 ;; Defined at:
 10549 ;;		line 608 in file "Rover_Main_Ver01.c"
 10550 ;; Parameters:    Size  Location     Type
 10551 ;;		None
 10552 ;; Auto vars:     Size  Location     Type
 10553 ;;		None
 10554 ;; Return value:  Size  Location     Type
 10555 ;;                  1    wreg      void 
 10556 ;; Registers used:
 10557 ;;		wreg, fsr0l, fsr0h, fsr1l, fsr1h, status,2, status,0, pclath, cstack
 10558 ;; Tracked objects:
 10559 ;;		On entry : 0/0
 10560 ;;		On exit  : 0/0
 10561 ;;		Unchanged: 0/0
 10562 ;; Data sizes:     COMMON   BANK0   BANK1   BANK2   BANK3   BANK4   BANK5   BANK6   BANK7   BANK8   BANK9  BANK10  BANK1
      +1  BANK12
 10563 ;;      Params:         0       0       0       0       0       0       0       0       0       0       0       0       
      +0       0
 10564 ;;      Locals:         0       0       0       0       0       0       0       0       0       0       0       0       
      +0       0
 10565 ;;      Temps:          0       0       0       0       0       0       0       0       0       0       0       0       
      +0       0
 10566 ;;      Totals:         0       0       0       0       0       0       0       0       0       0       0       0       
      +0       0
 10567 ;;Total ram usage:        0 bytes
 10568 ;; Hardware stack levels used: 1
 10569 ;; Hardware stack levels required when called: 9
 10570 ;; This function calls:
 10571 ;;		_HAL_LED_OFF
 10572 ;;		_configI2C
 10573 ;;		_configISR
 10574 ;;		_configPins
 10575 ;;		_configUART1
 10576 ;;		_init_LCD
 10577 ;;		_initinit
 10578 ;; This function is called by:
 10579 ;;		_main
 10580 ;; This function uses a non-reentrant model
 10581 ;;
 10582                           
 10583     1E20                     _initialize_all:	
 10584                           ;psect for function _initialize_all
 10585                           
 10586     1E20                     l4480:	
 10587                           ;incstack = 0
 10588                           ; Regs used in _initialize_all: [wreg-fsr1h+status,2+status,0+pclath+cstack]
 10589                           
 10590                           
 10591                           ;Rover_Main_Ver01.c: 609:     LCD._backlight = 0x8;
 10592     1E20  3008               	movlw	8
 10593     1E21  0022               	movlb	2	; select bank2
 10594     1E22  00D6               	movwf	(_LCD^(0+256)+10)
 10595     1E23  3000               	movlw	0
 10596     1E24  00D7               	movwf	(_LCD^(0+256)+11)
 10597     1E25                     l4482:
 10598                           
 10599                           ;Rover_Main_Ver01.c: 610:     LCD._current_state = 0x0;
 10600     1E25  01D4               	clrf	(_LCD^(0+256)+8)
 10601     1E26  01D5               	clrf	((_LCD+1)^(0+256)+8)
 10602     1E27                     l4484:
 10603                           
 10604                           ;Rover_Main_Ver01.c: 611:     LCD.i2c = 1;
 10605     1E27  3001               	movlw	1
 10606     1E28  00CE               	movwf	(_LCD^(0+256)+2)
 10607     1E29  3000               	movlw	0
 10608     1E2A  00CF               	movwf	(_LCD^(0+256)+3)
 10609     1E2B                     l4486:
 10610                           
 10611                           ;Rover_Main_Ver01.c: 612:     LCD.i2c_addr = 39<<1;
 10612     1E2B  304E               	movlw	78
 10613     1E2C  00CC               	movwf	_LCD^(0+256)
 10614     1E2D  3000               	movlw	0
 10615     1E2E  00CD               	movwf	(_LCD^(0+256)+1)
 10616     1E2F                     l4488:
 10617                           
 10618                           ;Rover_Main_Ver01.c: 613:     LCD.num_columns = 16;
 10619     1E2F  3010               	movlw	16
 10620     1E30  00D2               	movwf	(_LCD^(0+256)+6)
 10621     1E31  3000               	movlw	0
 10622     1E32  00D3               	movwf	(_LCD^(0+256)+7)
 10623     1E33                     l4490:
 10624                           
 10625                           ;Rover_Main_Ver01.c: 614:     LCD.num_lines = 2;
 10626     1E33  3002               	movlw	2
 10627     1E34  00D0               	movwf	(_LCD^(0+256)+4)
 10628     1E35  3000               	movlw	0
 10629     1E36  00D1               	movwf	(_LCD^(0+256)+5)
 10630     1E37                     l4492:
 10631                           
 10632                           ;Rover_Main_Ver01.c: 615:     configPins();
 10633     1E37  319D  2592  319E   	fcall	_configPins
 10634     1E3A                     l4494:
 10635                           
 10636                           ;Rover_Main_Ver01.c: 616:     configI2C();
 10637     1E3A  319B  23AA  319E   	fcall	_configI2C
 10638     1E3D                     l4496:
 10639                           
 10640                           ;Rover_Main_Ver01.c: 617:     configUART1();
 10641     1E3D  319B  23D1  319E   	fcall	_configUART1
 10642     1E40                     l4498:
 10643                           
 10644                           ;Rover_Main_Ver01.c: 618:     initinit();
 10645     1E40  319D  2558  319E   	fcall	_initinit
 10646     1E43                     l4500:
 10647                           
 10648                           ;Rover_Main_Ver01.c: 619:     init_LCD();
 10649     1E43  319B  23F5  319E   	fcall	_init_LCD
 10650     1E46                     l4502:
 10651                           
 10652                           ;Rover_Main_Ver01.c: 620:     configISR();
 10653     1E46  319B  237D  319E   	fcall	_configISR
 10654     1E49                     l4504:
 10655                           
 10656                           ;Rover_Main_Ver01.c: 622:     HAL_LED_OFF(1);
 10657     1E49  3001               	movlw	1
 10658     1E4A  00F1               	movwf	HAL_LED_OFF@LED
 10659     1E4B  3000               	movlw	0
 10660     1E4C  00F2               	movwf	HAL_LED_OFF@LED+1
 10661     1E4D  319C  24E0  319E   	fcall	_HAL_LED_OFF
 10662     1E50                     l4506:
 10663                           
 10664                           ;Rover_Main_Ver01.c: 623:     HAL_LED_OFF(2);
 10665     1E50  3002               	movlw	2
 10666     1E51  00F1               	movwf	HAL_LED_OFF@LED
 10667     1E52  3000               	movlw	0
 10668     1E53  00F2               	movwf	HAL_LED_OFF@LED+1
 10669     1E54  319C  24E0  319E   	fcall	_HAL_LED_OFF
 10670     1E57                     l4508:
 10671                           
 10672                           ;Rover_Main_Ver01.c: 624:     HAL_LED_OFF(3);
 10673     1E57  3003               	movlw	3
 10674     1E58  00F1               	movwf	HAL_LED_OFF@LED
 10675     1E59  3000               	movlw	0
 10676     1E5A  00F2               	movwf	HAL_LED_OFF@LED+1
 10677     1E5B  319C  24E0  319E   	fcall	_HAL_LED_OFF
 10678     1E5E                     l4510:
 10679                           
 10680                           ;Rover_Main_Ver01.c: 625:     HAL_LED_OFF(4);
 10681     1E5E  3004               	movlw	4
 10682     1E5F  00F1               	movwf	HAL_LED_OFF@LED
 10683     1E60  3000               	movlw	0
 10684     1E61  00F2               	movwf	HAL_LED_OFF@LED+1
 10685     1E62  319C  24E0  319E   	fcall	_HAL_LED_OFF
 10686     1E65                     l4512:
 10687                           
 10688                           ;Rover_Main_Ver01.c: 627:     LATBbits.LATB0 = 1;
 10689     1E65  0020               	movlb	0	; select bank0
 10690     1E66  1417               	bsf	23,0	;volatile
 10691     1E67                     l4514:
 10692                           
 10693                           ;Rover_Main_Ver01.c: 628:     LATBbits.LATB1 = 1;
 10694     1E67  1497               	bsf	23,1	;volatile
 10695     1E68                     l434:
 10696     1E68  0008               	return
 10697     1E69                     __end_of_initialize_all:
 10698                           
 10699                           	psect	text21
 10700     1D58                     __ptext21:	
 10701 ;; *************** function _initinit *****************
 10702 ;; Defined at:
 10703 ;;		line 264 in file "./PIC16_LCD_API.h"
 10704 ;; Parameters:    Size  Location     Type
 10705 ;;		None
 10706 ;; Auto vars:     Size  Location     Type
 10707 ;;		None
 10708 ;; Return value:  Size  Location     Type
 10709 ;;                  1    wreg      void 
 10710 ;; Registers used:
 10711 ;;		wreg, fsr1l, fsr1h, status,2, status,0, pclath, cstack
 10712 ;; Tracked objects:
 10713 ;;		On entry : 0/0
 10714 ;;		On exit  : 0/0
 10715 ;;		Unchanged: 0/0
 10716 ;; Data sizes:     COMMON   BANK0   BANK1   BANK2   BANK3   BANK4   BANK5   BANK6   BANK7   BANK8   BANK9  BANK10  BANK1
      +1  BANK12
 10717 ;;      Params:         0       0       0       0       0       0       0       0       0       0       0       0       
      +0       0
 10718 ;;      Locals:         0       0       0       0       0       0       0       0       0       0       0       0       
      +0       0
 10719 ;;      Temps:          1       0       0       0       0       0       0       0       0       0       0       0       
      +0       0
 10720 ;;      Totals:         1       0       0       0       0       0       0       0       0       0       0       0       
      +0       0
 10721 ;;Total ram usage:        1 bytes
 10722 ;; Hardware stack levels used: 1
 10723 ;; Hardware stack levels required when called: 8
 10724 ;; This function calls:
 10725 ;;		_HAL_Write_Init_Nibble
 10726 ;;		_init_LCD
 10727 ;; This function is called by:
 10728 ;;		_initialize_all
 10729 ;; This function uses a non-reentrant model
 10730 ;;
 10731                           
 10732     1D58                     _initinit:	
 10733                           ;psect for function _initinit
 10734                           
 10735     1D58                     l4286:	
 10736                           ;incstack = 0
 10737                           ; Regs used in _initinit: [wreg+fsr1l+fsr1h+status,2+status,0+pclath+cstack]
 10738                           
 10739                           
 10740                           ;./PIC16_LCD_API.h: 265:  _delay((unsigned long)((20)*(32000000/4000.0)));
 10741     1D58  30D0               	movlw	208
 10742     1D59  00FB               	movwf	??_initinit
 10743     1D5A  30CA               	movlw	202
 10744     1D5B                     u5507:
 10745     1D5B  0B89               	decfsz	9,f
 10746     1D5C  2D5B               	goto	u5507
 10747     1D5D  0BFB               	decfsz	??_initinit,f
 10748     1D5E  2D5B               	goto	u5507
 10749     1D5F                     l4288:
 10750                           
 10751                           ;./PIC16_LCD_API.h: 266:  HAL_Write_Init_Nibble(0x30);
 10752     1D5F  3030               	movlw	48
 10753     1D60  319D  2501  319D   	fcall	_HAL_Write_Init_Nibble
 10754     1D63                     l4290:
 10755                           
 10756                           ;./PIC16_LCD_API.h: 267:  _delay((unsigned long)((5)*(32000000/4000.0)));
 10757     1D63  3034               	movlw	52
 10758     1D64  00FB               	movwf	??_initinit
 10759     1D65  30F2               	movlw	242
 10760     1D66                     u5517:
 10761     1D66  0B89               	decfsz	9,f
 10762     1D67  2D66               	goto	u5517
 10763     1D68  0BFB               	decfsz	??_initinit,f
 10764     1D69  2D66               	goto	u5517
 10765                           
 10766                           ;./PIC16_LCD_API.h: 268:  HAL_Write_Init_Nibble(0x30);
 10767     1D6A  3030               	movlw	48
 10768     1D6B  319D  2501  319D   	fcall	_HAL_Write_Init_Nibble
 10769     1D6E                     l4292:
 10770                           
 10771                           ;./PIC16_LCD_API.h: 269:  _delay((unsigned long)((1)*(32000000/4000.0)));
 10772     1D6E  300B               	movlw	11
 10773     1D6F  00FB               	movwf	??_initinit
 10774     1D70  3062               	movlw	98
 10775     1D71                     u5527:
 10776     1D71  0B89               	decfsz	9,f
 10777     1D72  2D71               	goto	u5527
 10778     1D73  0BFB               	decfsz	??_initinit,f
 10779     1D74  2D71               	goto	u5527
 10780     1D75  3200               	nop2
 10781     1D76                     l4294:
 10782                           
 10783                           ;./PIC16_LCD_API.h: 270:  HAL_Write_Init_Nibble(0x30);
 10784     1D76  3030               	movlw	48
 10785     1D77  319D  2501  319D   	fcall	_HAL_Write_Init_Nibble
 10786                           
 10787                           ;./PIC16_LCD_API.h: 271:  _delay((unsigned long)((1)*(32000000/4000.0)));
 10788     1D7A  300B               	movlw	11
 10789     1D7B  00FB               	movwf	??_initinit
 10790     1D7C  3062               	movlw	98
 10791     1D7D                     u5537:
 10792     1D7D  0B89               	decfsz	9,f
 10793     1D7E  2D7D               	goto	u5537
 10794     1D7F  0BFB               	decfsz	??_initinit,f
 10795     1D80  2D7D               	goto	u5537
 10796     1D81  3200               	nop2
 10797     1D82                     l4296:
 10798                           
 10799                           ;./PIC16_LCD_API.h: 272:  HAL_Write_Init_Nibble(0x20);
 10800     1D82  3020               	movlw	32
 10801     1D83  319D  2501  319D   	fcall	_HAL_Write_Init_Nibble
 10802     1D86                     l4298:
 10803                           
 10804                           ;./PIC16_LCD_API.h: 273:  _delay((unsigned long)((1)*(32000000/4000.0)));
 10805     1D86  300B               	movlw	11
 10806     1D87  00FB               	movwf	??_initinit
 10807     1D88  3062               	movlw	98
 10808     1D89                     u5547:
 10809     1D89  0B89               	decfsz	9,f
 10810     1D8A  2D89               	goto	u5547
 10811     1D8B  0BFB               	decfsz	??_initinit,f
 10812     1D8C  2D89               	goto	u5547
 10813     1D8D  3200               	nop2
 10814                           
 10815                           ;./PIC16_LCD_API.h: 274:  init_LCD();
 10816     1D8E  319B  23F5  319D   	fcall	_init_LCD
 10817     1D91                     l176:
 10818     1D91  0008               	return
 10819     1D92                     __end_of_initinit:
 10820                           
 10821                           	psect	text22
 10822     1BF5                     __ptext22:	
 10823 ;; *************** function _init_LCD *****************
 10824 ;; Defined at:
 10825 ;;		line 256 in file "./PIC16_LCD_API.h"
 10826 ;; Parameters:    Size  Location     Type
 10827 ;;		None
 10828 ;; Auto vars:     Size  Location     Type
 10829 ;;		None
 10830 ;; Return value:  Size  Location     Type
 10831 ;;                  1    wreg      void 
 10832 ;; Registers used:
 10833 ;;		wreg, fsr1l, fsr1h, status,2, status,0, pclath, cstack
 10834 ;; Tracked objects:
 10835 ;;		On entry : 0/0
 10836 ;;		On exit  : 0/0
 10837 ;;		Unchanged: 0/0
 10838 ;; Data sizes:     COMMON   BANK0   BANK1   BANK2   BANK3   BANK4   BANK5   BANK6   BANK7   BANK8   BANK9  BANK10  BANK1
      +1  BANK12
 10839 ;;      Params:         0       0       0       0       0       0       0       0       0       0       0       0       
      +0       0
 10840 ;;      Locals:         0       0       0       0       0       0       0       0       0       0       0       0       
      +0       0
 10841 ;;      Temps:          0       0       0       0       0       0       0       0       0       0       0       0       
      +0       0
 10842 ;;      Totals:         0       0       0       0       0       0       0       0       0       0       0       0       
      +0       0
 10843 ;;Total ram usage:        0 bytes
 10844 ;; Hardware stack levels used: 1
 10845 ;; Hardware stack levels required when called: 7
 10846 ;; This function calls:
 10847 ;;		_HAL_Clear
 10848 ;;		_HAL_Display_On
 10849 ;;		_HAL_Set_Entry_Mode
 10850 ;; This function is called by:
 10851 ;;		_initinit
 10852 ;;		_initialize_all
 10853 ;; This function uses a non-reentrant model
 10854 ;;
 10855                           
 10856     1BF5                     _init_LCD:	
 10857                           ;psect for function _init_LCD
 10858                           
 10859     1BF5                     l4282:	
 10860                           ;incstack = 0
 10861                           ; Regs used in _init_LCD: [wreg+fsr1l+fsr1h+status,2+status,0+pclath+cstack]
 10862                           
 10863                           
 10864                           ;./PIC16_LCD_API.h: 257:  HAL_Display_On();
 10865     1BF5  319B  2382  319B   	fcall	_HAL_Display_On
 10866                           
 10867                           ;./PIC16_LCD_API.h: 258:  HAL_Clear();
 10868     1BF8  3188  2003  319B   	fcall	_HAL_Clear
 10869                           
 10870                           ;./PIC16_LCD_API.h: 259:  HAL_Set_Entry_Mode(1,0);
 10871     1BFB  3001               	movlw	1
 10872     1BFC  0020               	movlb	0	; select bank0
 10873     1BFD  00A0               	movwf	HAL_Set_Entry_Mode@inc
 10874     1BFE  3000               	movlw	0
 10875     1BFF  00A1               	movwf	HAL_Set_Entry_Mode@inc+1
 10876     1C00  3000               	movlw	0
 10877     1C01  00A2               	movwf	HAL_Set_Entry_Mode@shift
 10878     1C02  00A3               	movwf	HAL_Set_Entry_Mode@shift+1
 10879     1C03  319C  2431  319B   	fcall	_HAL_Set_Entry_Mode
 10880     1C06                     l173:
 10881     1C06  0008               	return
 10882     1C07                     __end_of_init_LCD:
 10883                           
 10884                           	psect	text23
 10885     1C31                     __ptext23:	
 10886 ;; *************** function _HAL_Set_Entry_Mode *****************
 10887 ;; Defined at:
 10888 ;;		line 220 in file "./PIC16_LCD_API.h"
 10889 ;; Parameters:    Size  Location     Type
 10890 ;;  inc             2    0[BANK0 ] int 
 10891 ;;  shift           2    2[BANK0 ] int 
 10892 ;; Auto vars:     Size  Location     Type
 10893 ;;  entry_mode      2    9[COMMON] int 
 10894 ;; Return value:  Size  Location     Type
 10895 ;;                  1    wreg      void 
 10896 ;; Registers used:
 10897 ;;		wreg, fsr1l, fsr1h, status,2, status,0, pclath, cstack
 10898 ;; Tracked objects:
 10899 ;;		On entry : 0/0
 10900 ;;		On exit  : 0/0
 10901 ;;		Unchanged: 0/0
 10902 ;; Data sizes:     COMMON   BANK0   BANK1   BANK2   BANK3   BANK4   BANK5   BANK6   BANK7   BANK8   BANK9  BANK10  BANK1
      +1  BANK12
 10903 ;;      Params:         0       4       0       0       0       0       0       0       0       0       0       0       
      +0       0
 10904 ;;      Locals:         2       0       0       0       0       0       0       0       0       0       0       0       
      +0       0
 10905 ;;      Temps:          0       0       0       0       0       0       0       0       0       0       0       0       
      +0       0
 10906 ;;      Totals:         2       4       0       0       0       0       0       0       0       0       0       0       
      +0       0
 10907 ;;Total ram usage:        6 bytes
 10908 ;; Hardware stack levels used: 1
 10909 ;; Hardware stack levels required when called: 6
 10910 ;; This function calls:
 10911 ;;		_HAL_Write_Command
 10912 ;; This function is called by:
 10913 ;;		_init_LCD
 10914 ;; This function uses a non-reentrant model
 10915 ;;
 10916                           
 10917     1C31                     _HAL_Set_Entry_Mode:	
 10918                           ;psect for function _HAL_Set_Entry_Mode
 10919                           
 10920     1C31                     l4264:	
 10921                           ;incstack = 0
 10922                           ; Regs used in _HAL_Set_Entry_Mode: [wreg+fsr1l+fsr1h+status,2+status,0+pclath+cstack]
 10923                           
 10924                           
 10925                           ;./PIC16_LCD_API.h: 221:  int entry_mode = 0x04;
 10926     1C31  3004               	movlw	4
 10927     1C32  00F9               	movwf	HAL_Set_Entry_Mode@entry_mode
 10928     1C33  3000               	movlw	0
 10929     1C34  00FA               	movwf	HAL_Set_Entry_Mode@entry_mode+1
 10930     1C35                     l4266:
 10931                           
 10932                           ;./PIC16_LCD_API.h: 222:  if (inc){
 10933     1C35  0020               	movlb	0	; select bank0
 10934     1C36  0820               	movf	HAL_Set_Entry_Mode@inc,w
 10935     1C37  0421               	iorwf	HAL_Set_Entry_Mode@inc+1,w
 10936     1C38  1903               	btfsc	3,2
 10937     1C39  2C3B               	goto	u5071
 10938     1C3A  2C3C               	goto	u5070
 10939     1C3B                     u5071:
 10940     1C3B  2C3D               	goto	l4270
 10941     1C3C                     u5070:
 10942     1C3C                     l4268:
 10943                           
 10944                           ;./PIC16_LCD_API.h: 223:   entry_mode |= 0x02;
 10945     1C3C  14F9               	bsf	HAL_Set_Entry_Mode@entry_mode,1
 10946     1C3D                     l4270:
 10947                           
 10948                           ;./PIC16_LCD_API.h: 225:  if (shift){
 10949     1C3D  0822               	movf	HAL_Set_Entry_Mode@shift,w
 10950     1C3E  0423               	iorwf	HAL_Set_Entry_Mode@shift+1,w
 10951     1C3F  1903               	btfsc	3,2
 10952     1C40  2C42               	goto	u5081
 10953     1C41  2C43               	goto	u5080
 10954     1C42                     u5081:
 10955     1C42  2C44               	goto	l4274
 10956     1C43                     u5080:
 10957     1C43                     l4272:
 10958                           
 10959                           ;./PIC16_LCD_API.h: 226:   entry_mode |= 0x01;
 10960     1C43  1479               	bsf	HAL_Set_Entry_Mode@entry_mode,0
 10961     1C44                     l4274:
 10962                           
 10963                           ;./PIC16_LCD_API.h: 228:  HAL_Write_Command(entry_mode);
 10964     1C44  0879               	movf	HAL_Set_Entry_Mode@entry_mode,w
 10965     1C45  319C  2482  319C   	fcall	_HAL_Write_Command
 10966     1C48                     l156:
 10967     1C48  0008               	return
 10968     1C49                     __end_of_HAL_Set_Entry_Mode:
 10969                           
 10970                           	psect	text24
 10971     1B82                     __ptext24:	
 10972 ;; *************** function _HAL_Display_On *****************
 10973 ;; Defined at:
 10974 ;;		line 212 in file "./PIC16_LCD_API.h"
 10975 ;; Parameters:    Size  Location     Type
 10976 ;;		None
 10977 ;; Auto vars:     Size  Location     Type
 10978 ;;		None
 10979 ;; Return value:  Size  Location     Type
 10980 ;;                  1    wreg      void 
 10981 ;; Registers used:
 10982 ;;		wreg, fsr1l, fsr1h, status,2, status,0, pclath, cstack
 10983 ;; Tracked objects:
 10984 ;;		On entry : 0/0
 10985 ;;		On exit  : 0/0
 10986 ;;		Unchanged: 0/0
 10987 ;; Data sizes:     COMMON   BANK0   BANK1   BANK2   BANK3   BANK4   BANK5   BANK6   BANK7   BANK8   BANK9  BANK10  BANK1
      +1  BANK12
 10988 ;;      Params:         0       0       0       0       0       0       0       0       0       0       0       0       
      +0       0
 10989 ;;      Locals:         0       0       0       0       0       0       0       0       0       0       0       0       
      +0       0
 10990 ;;      Temps:          0       0       0       0       0       0       0       0       0       0       0       0       
      +0       0
 10991 ;;      Totals:         0       0       0       0       0       0       0       0       0       0       0       0       
      +0       0
 10992 ;;Total ram usage:        0 bytes
 10993 ;; Hardware stack levels used: 1
 10994 ;; Hardware stack levels required when called: 6
 10995 ;; This function calls:
 10996 ;;		_HAL_Write_Command
 10997 ;; This function is called by:
 10998 ;;		_init_LCD
 10999 ;; This function uses a non-reentrant model
 11000 ;;
 11001                           
 11002     1B82                     _HAL_Display_On:	
 11003                           ;psect for function _HAL_Display_On
 11004                           
 11005     1B82                     l4262:	
 11006                           ;incstack = 0
 11007                           ; Regs used in _HAL_Display_On: [wreg+fsr1l+fsr1h+status,2+status,0+pclath+cstack]
 11008                           
 11009                           
 11010                           ;./PIC16_LCD_API.h: 213:  HAL_Write_Command(0x08 | 0x04);
 11011     1B82  300C               	movlw	12
 11012     1B83  319C  2482  319B   	fcall	_HAL_Write_Command
 11013     1B86                     l148:
 11014     1B86  0008               	return
 11015     1B87                     __end_of_HAL_Display_On:
 11016                           
 11017                           	psect	text25
 11018     0803                     __ptext25:	
 11019 ;; *************** function _HAL_Clear *****************
 11020 ;; Defined at:
 11021 ;;		line 191 in file "./PIC16_LCD_API.h"
 11022 ;; Parameters:    Size  Location     Type
 11023 ;;		None
 11024 ;; Auto vars:     Size  Location     Type
 11025 ;;		None
 11026 ;; Return value:  Size  Location     Type
 11027 ;;                  1    wreg      void 
 11028 ;; Registers used:
 11029 ;;		wreg, fsr1l, fsr1h, status,2, status,0, pclath, cstack
 11030 ;; Tracked objects:
 11031 ;;		On entry : 0/0
 11032 ;;		On exit  : 0/0
 11033 ;;		Unchanged: 0/0
 11034 ;; Data sizes:     COMMON   BANK0   BANK1   BANK2   BANK3   BANK4   BANK5   BANK6   BANK7   BANK8   BANK9  BANK10  BANK1
      +1  BANK12
 11035 ;;      Params:         0       0       0       0       0       0       0       0       0       0       0       0       
      +0       0
 11036 ;;      Locals:         0       0       0       0       0       0       0       0       0       0       0       0       
      +0       0
 11037 ;;      Temps:          1       0       0       0       0       0       0       0       0       0       0       0       
      +0       0
 11038 ;;      Totals:         1       0       0       0       0       0       0       0       0       0       0       0       
      +0       0
 11039 ;;Total ram usage:        1 bytes
 11040 ;; Hardware stack levels used: 1
 11041 ;; Hardware stack levels required when called: 6
 11042 ;; This function calls:
 11043 ;;		_HAL_Write_Command
 11044 ;; This function is called by:
 11045 ;;		_init_LCD
 11046 ;;		_alienFrequencyTask
 11047 ;; This function uses a non-reentrant model
 11048 ;;
 11049                           
 11050     0803                     _HAL_Clear:	
 11051                           ;psect for function _HAL_Clear
 11052                           
 11053     0803                     l4258:	
 11054                           ;incstack = 0
 11055                           ; Regs used in _HAL_Clear: [wreg+fsr1l+fsr1h+status,2+status,0+pclath+cstack]
 11056                           
 11057                           
 11058                           ;./PIC16_LCD_API.h: 192:  HAL_Write_Command(0x01);
 11059     0803  3001               	movlw	1
 11060     0804  319C  2482  3188   	fcall	_HAL_Write_Command
 11061     0807                     l4260:
 11062                           
 11063                           ;./PIC16_LCD_API.h: 193:  _delay((unsigned long)((3)*(32000000/4000.0)));
 11064     0807  3020               	movlw	32
 11065     0808  00F9               	movwf	??_HAL_Clear
 11066     0809  302A               	movlw	42
 11067     080A                     u5557:
 11068     080A  0B89               	decfsz	9,f
 11069     080B  280A               	goto	u5557
 11070     080C  0BF9               	decfsz	??_HAL_Clear,f
 11071     080D  280A               	goto	u5557
 11072     080E                     l133:
 11073     080E  0008               	return
 11074     080F                     __end_of_HAL_Clear:
 11075                           
 11076                           	psect	text26
 11077     1C82                     __ptext26:	
 11078 ;; *************** function _HAL_Write_Command *****************
 11079 ;; Defined at:
 11080 ;;		line 163 in file "./PIC16_LCD_API.h"
 11081 ;; Parameters:    Size  Location     Type
 11082 ;;  cmd             1    wreg     unsigned char 
 11083 ;; Auto vars:     Size  Location     Type
 11084 ;;  cmd             1    8[COMMON] unsigned char 
 11085 ;; Return value:  Size  Location     Type
 11086 ;;                  1    wreg      void 
 11087 ;; Registers used:
 11088 ;;		wreg, fsr1l, fsr1h, status,2, status,0, pclath, cstack
 11089 ;; Tracked objects:
 11090 ;;		On entry : 0/0
 11091 ;;		On exit  : 0/0
 11092 ;;		Unchanged: 0/0
 11093 ;; Data sizes:     COMMON   BANK0   BANK1   BANK2   BANK3   BANK4   BANK5   BANK6   BANK7   BANK8   BANK9  BANK10  BANK1
      +1  BANK12
 11094 ;;      Params:         0       0       0       0       0       0       0       0       0       0       0       0       
      +0       0
 11095 ;;      Locals:         1       0       0       0       0       0       0       0       0       0       0       0       
      +0       0
 11096 ;;      Temps:          1       0       0       0       0       0       0       0       0       0       0       0       
      +0       0
 11097 ;;      Totals:         2       0       0       0       0       0       0       0       0       0       0       0       
      +0       0
 11098 ;;Total ram usage:        2 bytes
 11099 ;; Hardware stack levels used: 1
 11100 ;; Hardware stack levels required when called: 5
 11101 ;; This function calls:
 11102 ;;		__write_byte
 11103 ;; This function is called by:
 11104 ;;		_HAL_Clear
 11105 ;;		_HAL_Display_On
 11106 ;;		_HAL_Set_Entry_Mode
 11107 ;;		_HAL_Show_Cursor
 11108 ;;		_HAL_Hide_Cursor
 11109 ;;		_HAL_Blink_Cursor_On
 11110 ;;		_HAL_Blink_Cursor_Off
 11111 ;;		_HAL_Display_Off
 11112 ;;		_HAL_Home
 11113 ;;		_HAL_Set_Cursor
 11114 ;; This function uses a non-reentrant model
 11115 ;;
 11116                           
 11117     1C82                     _HAL_Write_Command:	
 11118                           ;psect for function _HAL_Write_Command
 11119                           
 11120                           
 11121                           ;incstack = 0
 11122                           ; Regs used in _HAL_Write_Command: [wreg+fsr1l+fsr1h+status,2+status,0+pclath+cstack]
 11123                           ;HAL_Write_Command@cmd stored from wreg
 11124     1C82  00F8               	movwf	HAL_Write_Command@cmd
 11125     1C83                     l4252:
 11126                           
 11127                           ;./PIC16_LCD_API.h: 164:  _write_byte((cmd & 0xF0) | 0);
 11128     1C83  0878               	movf	HAL_Write_Command@cmd,w
 11129     1C84  39F0               	andlw	240
 11130     1C85  319B  23E3  319C   	fcall	__write_byte
 11131                           
 11132                           ;./PIC16_LCD_API.h: 165:  _write_byte(((cmd<<4) & 0xF0) | 0);
 11133     1C88  0878               	movf	HAL_Write_Command@cmd,w
 11134     1C89  00F7               	movwf	??_HAL_Write_Command
 11135     1C8A  3004               	movlw	4
 11136     1C8B                     u5055:
 11137     1C8B  35F7               	lslf	??_HAL_Write_Command,f
 11138     1C8C  0B89               	decfsz	9,f
 11139     1C8D  2C8B               	goto	u5055
 11140     1C8E  0877               	movf	??_HAL_Write_Command,w
 11141     1C8F  39F0               	andlw	240
 11142     1C90  319B  23E3  319C   	fcall	__write_byte
 11143     1C93                     l4254:
 11144                           
 11145                           ;./PIC16_LCD_API.h: 166:  if (cmd <= 3){
 11146     1C93  3004               	movlw	4
 11147     1C94  0278               	subwf	HAL_Write_Command@cmd,w
 11148     1C95  1803               	skipnc
 11149     1C96  2C98               	goto	u5061
 11150     1C97  2C99               	goto	u5060
 11151     1C98                     u5061:
 11152     1C98  2CA0               	goto	l121
 11153     1C99                     u5060:
 11154     1C99                     l4256:
 11155                           
 11156                           ;./PIC16_LCD_API.h: 167:   _delay((unsigned long)((5)*(32000000/4000.0)));
 11157     1C99  3034               	movlw	52
 11158     1C9A  00F7               	movwf	??_HAL_Write_Command
 11159     1C9B  30F2               	movlw	242
 11160     1C9C                     u5567:
 11161     1C9C  0B89               	decfsz	9,f
 11162     1C9D  2C9C               	goto	u5567
 11163     1C9E  0BF7               	decfsz	??_HAL_Write_Command,f
 11164     1C9F  2C9C               	goto	u5567
 11165     1CA0                     l121:
 11166     1CA0  0008               	return
 11167     1CA1                     __end_of_HAL_Write_Command:
 11168                           
 11169                           	psect	text27
 11170     1BE3                     __ptext27:	
 11171 ;; *************** function __write_byte *****************
 11172 ;; Defined at:
 11173 ;;		line 150 in file "./PIC16_LCD_API.h"
 11174 ;; Parameters:    Size  Location     Type
 11175 ;;  byte            1    wreg     unsigned char 
 11176 ;; Auto vars:     Size  Location     Type
 11177 ;;  byte            1    6[COMMON] unsigned char 
 11178 ;; Return value:  Size  Location     Type
 11179 ;;                  1    wreg      void 
 11180 ;; Registers used:
 11181 ;;		wreg, fsr1l, fsr1h, status,2, status,0, pclath, cstack
 11182 ;; Tracked objects:
 11183 ;;		On entry : 0/0
 11184 ;;		On exit  : 0/0
 11185 ;;		Unchanged: 0/0
 11186 ;; Data sizes:     COMMON   BANK0   BANK1   BANK2   BANK3   BANK4   BANK5   BANK6   BANK7   BANK8   BANK9  BANK10  BANK1
      +1  BANK12
 11187 ;;      Params:         0       0       0       0       0       0       0       0       0       0       0       0       
      +0       0
 11188 ;;      Locals:         1       0       0       0       0       0       0       0       0       0       0       0       
      +0       0
 11189 ;;      Temps:          0       0       0       0       0       0       0       0       0       0       0       0       
      +0       0
 11190 ;;      Totals:         1       0       0       0       0       0       0       0       0       0       0       0       
      +0       0
 11191 ;;Total ram usage:        1 bytes
 11192 ;; Hardware stack levels used: 1
 11193 ;; Hardware stack levels required when called: 4
 11194 ;; This function calls:
 11195 ;;		_HAL_I2C_Master_Transmit
 11196 ;;		_HAL_Pulse_Enable
 11197 ;; This function is called by:
 11198 ;;		_HAL_Write_Command
 11199 ;;		_HAL_Write_Data
 11200 ;; This function uses a non-reentrant model
 11201 ;;
 11202                           
 11203     1BE3                     __write_byte:	
 11204                           ;psect for function __write_byte
 11205                           
 11206                           
 11207                           ;incstack = 0
 11208                           ; Regs used in __write_byte: [wreg+fsr1l+fsr1h+status,2+status,0+pclath+cstack]
 11209                           ;__write_byte@byte stored from wreg
 11210     1BE3  00F6               	movwf	__write_byte@byte
 11211     1BE4                     l4246:
 11212                           
 11213                           ;./PIC16_LCD_API.h: 151:  byte = (byte | LCD._backlight);
 11214     1BE4  0022               	movlb	2	; select bank2
 11215     1BE5  0856               	movf	(_LCD^(0+256)+10),w
 11216     1BE6  0476               	iorwf	__write_byte@byte,w
 11217     1BE7  00F6               	movwf	__write_byte@byte
 11218     1BE8                     l4248:
 11219                           
 11220                           ;./PIC16_LCD_API.h: 152:     HAL_I2C_Master_Transmit(LCD.i2c_addr, &byte,1);
 11221     1BE8  3076               	movlw	(low (__write_byte@byte| 0))& (0+255)
 11222     1BE9  00F2               	movwf	HAL_I2C_Master_Transmit@dataByte
 11223     1BEA  01F3               	clrf	HAL_I2C_Master_Transmit@numberOfDataBytes
 11224     1BEB  0AF3               	incf	HAL_I2C_Master_Transmit@numberOfDataBytes,f
 11225     1BEC  084C               	movf	_LCD^(0+256),w
 11226     1BED  319C  2407  319B   	fcall	_HAL_I2C_Master_Transmit
 11227     1BF0                     l4250:
 11228                           
 11229                           ;./PIC16_LCD_API.h: 153:     HAL_Pulse_Enable(byte);
 11230     1BF0  0876               	movf	__write_byte@byte,w
 11231     1BF1  319C  2449  319B   	fcall	_HAL_Pulse_Enable
 11232     1BF4                     l114:
 11233     1BF4  0008               	return
 11234     1BF5                     __end_of__write_byte:
 11235                           
 11236                           	psect	text28
 11237     1D01                     __ptext28:	
 11238 ;; *************** function _HAL_Write_Init_Nibble *****************
 11239 ;; Defined at:
 11240 ;;		line 156 in file "./PIC16_LCD_API.h"
 11241 ;; Parameters:    Size  Location     Type
 11242 ;;  nibble          1    wreg     unsigned char 
 11243 ;; Auto vars:     Size  Location     Type
 11244 ;;  nibble          1    8[COMMON] unsigned char 
 11245 ;;  byte            1    9[COMMON] unsigned char 
 11246 ;; Return value:  Size  Location     Type
 11247 ;;                  1    wreg      void 
 11248 ;; Registers used:
 11249 ;;		wreg, fsr1l, fsr1h, status,2, status,0, pclath, cstack
 11250 ;; Tracked objects:
 11251 ;;		On entry : 0/0
 11252 ;;		On exit  : 0/0
 11253 ;;		Unchanged: 0/0
 11254 ;; Data sizes:     COMMON   BANK0   BANK1   BANK2   BANK3   BANK4   BANK5   BANK6   BANK7   BANK8   BANK9  BANK10  BANK1
      +1  BANK12
 11255 ;;      Params:         0       0       0       0       0       0       0       0       0       0       0       0       
      +0       0
 11256 ;;      Locals:         2       0       0       0       0       0       0       0       0       0       0       0       
      +0       0
 11257 ;;      Temps:          2       0       0       0       0       0       0       0       0       0       0       0       
      +0       0
 11258 ;;      Totals:         4       0       0       0       0       0       0       0       0       0       0       0       
      +0       0
 11259 ;;Total ram usage:        4 bytes
 11260 ;; Hardware stack levels used: 1
 11261 ;; Hardware stack levels required when called: 4
 11262 ;; This function calls:
 11263 ;;		_HAL_I2C_Master_Transmit
 11264 ;;		_HAL_Pulse_Enable
 11265 ;; This function is called by:
 11266 ;;		_initinit
 11267 ;; This function uses a non-reentrant model
 11268 ;;
 11269                           
 11270     1D01                     _HAL_Write_Init_Nibble:	
 11271                           ;psect for function _HAL_Write_Init_Nibble
 11272                           
 11273                           
 11274                           ;incstack = 0
 11275                           ; Regs used in _HAL_Write_Init_Nibble: [wreg+fsr1l+fsr1h+status,2+status,0+pclath+cstack
      +                          ]
 11276                           ;HAL_Write_Init_Nibble@nibble stored from wreg
 11277     1D01  00F8               	movwf	HAL_Write_Init_Nibble@nibble
 11278     1D02                     l4276:
 11279                           
 11280                           ;./PIC16_LCD_API.h: 157:  uint8_t byte = ((nibble >> 4) & 0x0F) << 4;
 11281     1D02  0878               	movf	HAL_Write_Init_Nibble@nibble,w
 11282     1D03  00F6               	movwf	??_HAL_Write_Init_Nibble
 11283     1D04  3004               	movlw	4
 11284     1D05                     u5095:
 11285     1D05  36F6               	lsrf	??_HAL_Write_Init_Nibble,f
 11286     1D06  0B89               	decfsz	9,f
 11287     1D07  2D05               	goto	u5095
 11288     1D08  0876               	movf	??_HAL_Write_Init_Nibble,w
 11289     1D09  390F               	andlw	15
 11290     1D0A  00F7               	movwf	??_HAL_Write_Init_Nibble+1
 11291     1D0B  3004               	movlw	4
 11292     1D0C                     u5105:
 11293     1D0C  35F7               	lslf	??_HAL_Write_Init_Nibble+1,f
 11294     1D0D  0B89               	decfsz	9,f
 11295     1D0E  2D0C               	goto	u5105
 11296     1D0F  0877               	movf	??_HAL_Write_Init_Nibble+1,w
 11297     1D10  00F9               	movwf	HAL_Write_Init_Nibble@byte
 11298                           
 11299                           ;./PIC16_LCD_API.h: 158:  byte = (byte | 0 | LCD._backlight);
 11300     1D11  0022               	movlb	2	; select bank2
 11301     1D12  0856               	movf	(_LCD^(0+256)+10),w
 11302     1D13  0479               	iorwf	HAL_Write_Init_Nibble@byte,w
 11303     1D14  00F9               	movwf	HAL_Write_Init_Nibble@byte
 11304     1D15                     l4278:
 11305                           
 11306                           ;./PIC16_LCD_API.h: 159:  HAL_I2C_Master_Transmit(LCD.i2c_addr, &byte, 1);
 11307     1D15  3079               	movlw	(low (HAL_Write_Init_Nibble@byte| 0))& (0+255)
 11308     1D16  00F2               	movwf	HAL_I2C_Master_Transmit@dataByte
 11309     1D17  01F3               	clrf	HAL_I2C_Master_Transmit@numberOfDataBytes
 11310     1D18  0AF3               	incf	HAL_I2C_Master_Transmit@numberOfDataBytes,f
 11311     1D19  084C               	movf	_LCD^(0+256),w
 11312     1D1A  319C  2407  319D   	fcall	_HAL_I2C_Master_Transmit
 11313     1D1D                     l4280:
 11314                           
 11315                           ;./PIC16_LCD_API.h: 160:  HAL_Pulse_Enable(byte);
 11316     1D1D  0879               	movf	HAL_Write_Init_Nibble@byte,w
 11317     1D1E  319C  2449  319D   	fcall	_HAL_Pulse_Enable
 11318     1D21                     l117:
 11319     1D21  0008               	return
 11320     1D22                     __end_of_HAL_Write_Init_Nibble:
 11321                           
 11322                           	psect	text29
 11323     1C49                     __ptext29:	
 11324 ;; *************** function _HAL_Pulse_Enable *****************
 11325 ;; Defined at:
 11326 ;;		line 143 in file "./PIC16_LCD_API.h"
 11327 ;; Parameters:    Size  Location     Type
 11328 ;;  byte            1    wreg     unsigned char 
 11329 ;; Auto vars:     Size  Location     Type
 11330 ;;  byte            1    5[COMMON] unsigned char 
 11331 ;; Return value:  Size  Location     Type
 11332 ;;                  1    wreg      void 
 11333 ;; Registers used:
 11334 ;;		wreg, fsr1l, fsr1h, status,2, status,0, pclath, cstack
 11335 ;; Tracked objects:
 11336 ;;		On entry : 0/0
 11337 ;;		On exit  : 0/0
 11338 ;;		Unchanged: 0/0
 11339 ;; Data sizes:     COMMON   BANK0   BANK1   BANK2   BANK3   BANK4   BANK5   BANK6   BANK7   BANK8   BANK9  BANK10  BANK1
      +1  BANK12
 11340 ;;      Params:         0       0       0       0       0       0       0       0       0       0       0       0       
      +0       0
 11341 ;;      Locals:         1       0       0       0       0       0       0       0       0       0       0       0       
      +0       0
 11342 ;;      Temps:          0       0       0       0       0       0       0       0       0       0       0       0       
      +0       0
 11343 ;;      Totals:         1       0       0       0       0       0       0       0       0       0       0       0       
      +0       0
 11344 ;;Total ram usage:        1 bytes
 11345 ;; Hardware stack levels used: 1
 11346 ;; Hardware stack levels required when called: 3
 11347 ;; This function calls:
 11348 ;;		_HAL_I2C_Master_Transmit
 11349 ;; This function is called by:
 11350 ;;		__write_byte
 11351 ;;		_HAL_Write_Init_Nibble
 11352 ;; This function uses a non-reentrant model
 11353 ;;
 11354                           
 11355     1C49                     _HAL_Pulse_Enable:	
 11356                           ;psect for function _HAL_Pulse_Enable
 11357                           
 11358                           
 11359                           ;incstack = 0
 11360                           ; Regs used in _HAL_Pulse_Enable: [wreg+fsr1l+fsr1h+status,2+status,0+pclath+cstack]
 11361                           ;HAL_Pulse_Enable@byte stored from wreg
 11362     1C49  00F5               	movwf	HAL_Pulse_Enable@byte
 11363     1C4A                     l4240:
 11364                           
 11365                           ;./PIC16_LCD_API.h: 144:  byte = (byte | 0x04 | LCD._backlight);
 11366     1C4A  0022               	movlb	2	; select bank2
 11367     1C4B  0856               	movf	(_LCD^(0+256)+10),w
 11368     1C4C  0475               	iorwf	HAL_Pulse_Enable@byte,w
 11369     1C4D  3804               	iorlw	4
 11370     1C4E  00F5               	movwf	HAL_Pulse_Enable@byte
 11371     1C4F                     l4242:
 11372                           
 11373                           ;./PIC16_LCD_API.h: 145:  HAL_I2C_Master_Transmit(LCD.i2c_addr, &byte, 1);
 11374     1C4F  3075               	movlw	(low (HAL_Pulse_Enable@byte| 0))& (0+255)
 11375     1C50  00F2               	movwf	HAL_I2C_Master_Transmit@dataByte
 11376     1C51  01F3               	clrf	HAL_I2C_Master_Transmit@numberOfDataBytes
 11377     1C52  0AF3               	incf	HAL_I2C_Master_Transmit@numberOfDataBytes,f
 11378     1C53  084C               	movf	_LCD^(0+256),w
 11379     1C54  319C  2407  319C   	fcall	_HAL_I2C_Master_Transmit
 11380     1C57                     l4244:
 11381                           
 11382                           ;./PIC16_LCD_API.h: 146:  byte = ((byte & ~0x04) | LCD._backlight);
 11383     1C57  0875               	movf	HAL_Pulse_Enable@byte,w
 11384     1C58  39FB               	andlw	251
 11385     1C59  0022               	movlb	2	; select bank2
 11386     1C5A  0456               	iorwf	(_LCD^(0+256)+10),w
 11387     1C5B  00F5               	movwf	HAL_Pulse_Enable@byte
 11388                           
 11389                           ;./PIC16_LCD_API.h: 147:  HAL_I2C_Master_Transmit(LCD.i2c_addr, &byte, 1);
 11390     1C5C  3075               	movlw	(low (HAL_Pulse_Enable@byte| 0))& (0+255)
 11391     1C5D  00F2               	movwf	HAL_I2C_Master_Transmit@dataByte
 11392     1C5E  01F3               	clrf	HAL_I2C_Master_Transmit@numberOfDataBytes
 11393     1C5F  0AF3               	incf	HAL_I2C_Master_Transmit@numberOfDataBytes,f
 11394     1C60  084C               	movf	_LCD^(0+256),w
 11395     1C61  319C  2407  319C   	fcall	_HAL_I2C_Master_Transmit
 11396     1C64                     l111:
 11397     1C64  0008               	return
 11398     1C65                     __end_of_HAL_Pulse_Enable:
 11399                           
 11400                           	psect	text30
 11401     1C07                     __ptext30:	
 11402 ;; *************** function _HAL_I2C_Master_Transmit *****************
 11403 ;; Defined at:
 11404 ;;		line 136 in file "./PIC16_LCD_API.h"
 11405 ;; Parameters:    Size  Location     Type
 11406 ;;  slaveAddress    1    wreg     unsigned char 
 11407 ;;  dataByte        1    2[COMMON] PTR unsigned char 
 11408 ;;		 -> HAL_Backlight_Off@byte(1), HAL_Backlight_On@byte(1), HAL_Write_Init_Nibble@byte(1), _write_byte@byte(1), 
 11409 ;;		 -> HAL_Pulse_Enable@byte(1), 
 11410 ;;  numberOfData    1    3[COMMON] unsigned char 
 11411 ;; Auto vars:     Size  Location     Type
 11412 ;;  slaveAddress    1    4[COMMON] unsigned char 
 11413 ;; Return value:  Size  Location     Type
 11414 ;;                  1    wreg      void 
 11415 ;; Registers used:
 11416 ;;		wreg, fsr1l, fsr1h, status,2, status,0, pclath, cstack
 11417 ;; Tracked objects:
 11418 ;;		On entry : 0/0
 11419 ;;		On exit  : 0/0
 11420 ;;		Unchanged: 0/0
 11421 ;; Data sizes:     COMMON   BANK0   BANK1   BANK2   BANK3   BANK4   BANK5   BANK6   BANK7   BANK8   BANK9  BANK10  BANK1
      +1  BANK12
 11422 ;;      Params:         2       0       0       0       0       0       0       0       0       0       0       0       
      +0       0
 11423 ;;      Locals:         1       0       0       0       0       0       0       0       0       0       0       0       
      +0       0
 11424 ;;      Temps:          0       0       0       0       0       0       0       0       0       0       0       0       
      +0       0
 11425 ;;      Totals:         3       0       0       0       0       0       0       0       0       0       0       0       
      +0       0
 11426 ;;Total ram usage:        3 bytes
 11427 ;; Hardware stack levels used: 1
 11428 ;; Hardware stack levels required when called: 2
 11429 ;; This function calls:
 11430 ;;		_I2C_start
 11431 ;;		_I2C_stop
 11432 ;;		_I2C_write
 11433 ;; This function is called by:
 11434 ;;		_HAL_Pulse_Enable
 11435 ;;		__write_byte
 11436 ;;		_HAL_Write_Init_Nibble
 11437 ;;		_HAL_Backlight_On
 11438 ;;		_HAL_Backlight_Off
 11439 ;; This function uses a non-reentrant model
 11440 ;;
 11441                           
 11442     1C07                     _HAL_I2C_Master_Transmit:	
 11443                           ;psect for function _HAL_I2C_Master_Transmit
 11444                           
 11445                           
 11446                           ;incstack = 0
 11447                           ; Regs used in _HAL_I2C_Master_Transmit: [wreg+fsr1l+fsr1h+status,2+status,0+pclath+csta
      +                          ck]
 11448                           ;HAL_I2C_Master_Transmit@slaveAddress stored from wreg
 11449     1C07  00F4               	movwf	HAL_I2C_Master_Transmit@slaveAddress
 11450     1C08                     l4232:
 11451                           
 11452                           ;./PIC16_LCD_API.h: 137:     I2C_start();
 11453     1C08  319B  2393  319C   	fcall	_I2C_start
 11454     1C0B                     l4234:
 11455                           
 11456                           ;./PIC16_LCD_API.h: 138:     I2C_write(slaveAddress);
 11457     1C0B  0874               	movf	HAL_I2C_Master_Transmit@slaveAddress,w
 11458     1C0C  3190  2000  319C   	fcall	_I2C_write
 11459     1C0F                     l4236:
 11460                           
 11461                           ;./PIC16_LCD_API.h: 139:     I2C_write(*dataByte);
 11462     1C0F  0872               	movf	HAL_I2C_Master_Transmit@dataByte,w
 11463     1C10  0086               	movwf	6
 11464     1C11  0187               	clrf	7
 11465     1C12  0801               	movf	1,w
 11466     1C13  3190  2000  319C   	fcall	_I2C_write
 11467     1C16                     l4238:
 11468                           
 11469                           ;./PIC16_LCD_API.h: 140:     I2C_stop();
 11470     1C16  319B  239A  319C   	fcall	_I2C_stop
 11471     1C19                     l108:
 11472     1C19  0008               	return
 11473     1C1A                     __end_of_HAL_I2C_Master_Transmit:
 11474                           
 11475                           	psect	text31
 11476     1000                     __ptext31:	
 11477 ;; *************** function _I2C_write *****************
 11478 ;; Defined at:
 11479 ;;		line 98 in file "./PIC16_LCD_API.h"
 11480 ;; Parameters:    Size  Location     Type
 11481 ;;  data            1    wreg     unsigned char 
 11482 ;; Auto vars:     Size  Location     Type
 11483 ;;  data            1    1[COMMON] unsigned char 
 11484 ;; Return value:  Size  Location     Type
 11485 ;;                  1    wreg      void 
 11486 ;; Registers used:
 11487 ;;		wreg, status,2, status,0
 11488 ;; Tracked objects:
 11489 ;;		On entry : 0/0
 11490 ;;		On exit  : 0/0
 11491 ;;		Unchanged: 0/0
 11492 ;; Data sizes:     COMMON   BANK0   BANK1   BANK2   BANK3   BANK4   BANK5   BANK6   BANK7   BANK8   BANK9  BANK10  BANK1
      +1  BANK12
 11493 ;;      Params:         0       0       0       0       0       0       0       0       0       0       0       0       
      +0       0
 11494 ;;      Locals:         1       0       0       0       0       0       0       0       0       0       0       0       
      +0       0
 11495 ;;      Temps:          0       0       0       0       0       0       0       0       0       0       0       0       
      +0       0
 11496 ;;      Totals:         1       0       0       0       0       0       0       0       0       0       0       0       
      +0       0
 11497 ;;Total ram usage:        1 bytes
 11498 ;; Hardware stack levels used: 1
 11499 ;; Hardware stack levels required when called: 1
 11500 ;; This function calls:
 11501 ;;		Nothing
 11502 ;; This function is called by:
 11503 ;;		_HAL_I2C_Master_Transmit
 11504 ;; This function uses a non-reentrant model
 11505 ;;
 11506                           
 11507     1000                     _I2C_write:	
 11508                           ;psect for function _I2C_write
 11509                           
 11510                           
 11511                           ;incstack = 0
 11512                           ; Regs used in _I2C_write: [wreg+status,2+status,0]
 11513                           ;I2C_write@data stored from wreg
 11514     1000  00F1               	movwf	I2C_write@data
 11515     1001                     l4224:
 11516                           
 11517                           ;./PIC16_LCD_API.h: 99:     SSP2BUF = data;
 11518     1001  0871               	movf	I2C_write@data,w
 11519     1002  0023               	movlb	3	; select bank3
 11520     1003  0096               	movwf	22	;volatile
 11521     1004                     l4226:
 11522                           
 11523                           ;./PIC16_LCD_API.h: 100:     bf = SSP2STATbits.BF;
 11524     1004  0819               	movf	25,w	;volatile
 11525     1005  3901               	andlw	1
 11526     1006  0022               	movlb	2	; select bank2
 11527     1007  00E9               	movwf	_bf^(0+256)
 11528                           
 11529                           ;./PIC16_LCD_API.h: 101:     while(SSP2STATbits.BF == 1){
 11530     1008  280A               	goto	l89
 11531     1009                     l90:
 11532                           
 11533                           ;./PIC16_LCD_API.h: 102:         __nop();
 11534     1009  0000               	nop
 11535     100A                     l89:	
 11536                           ;./PIC16_LCD_API.h: 103:     }
 11537                           
 11538                           
 11539                           ;./PIC16_LCD_API.h: 101:     while(SSP2STATbits.BF == 1){
 11540     100A  0023               	movlb	3	; select bank3
 11541     100B  1819               	btfsc	25,0	;volatile
 11542     100C  280E               	goto	u5031
 11543     100D  280F               	goto	u5030
 11544     100E                     u5031:
 11545     100E  2809               	goto	l90
 11546     100F                     u5030:
 11547     100F                     l4228:
 11548                           
 11549                           ;./PIC16_LCD_API.h: 104:     bf = SSP2STATbits.BF;
 11550     100F  0819               	movf	25,w	;volatile
 11551     1010  3901               	andlw	1
 11552     1011  0022               	movlb	2	; select bank2
 11553     1012  00E9               	movwf	_bf^(0+256)
 11554     1013                     l92:
 11555     1013  0008               	return
 11556     1014                     __end_of_I2C_write:
 11557                           
 11558                           	psect	text32
 11559     1B9A                     __ptext32:	
 11560 ;; *************** function _I2C_stop *****************
 11561 ;; Defined at:
 11562 ;;		line 115 in file "./PIC16_LCD_API.h"
 11563 ;; Parameters:    Size  Location     Type
 11564 ;;		None
 11565 ;; Auto vars:     Size  Location     Type
 11566 ;;		None
 11567 ;; Return value:  Size  Location     Type
 11568 ;;                  1    wreg      void 
 11569 ;; Registers used:
 11570 ;;		None
 11571 ;; Tracked objects:
 11572 ;;		On entry : 0/0
 11573 ;;		On exit  : 0/0
 11574 ;;		Unchanged: 0/0
 11575 ;; Data sizes:     COMMON   BANK0   BANK1   BANK2   BANK3   BANK4   BANK5   BANK6   BANK7   BANK8   BANK9  BANK10  BANK1
      +1  BANK12
 11576 ;;      Params:         0       0       0       0       0       0       0       0       0       0       0       0       
      +0       0
 11577 ;;      Locals:         0       0       0       0       0       0       0       0       0       0       0       0       
      +0       0
 11578 ;;      Temps:          0       0       0       0       0       0       0       0       0       0       0       0       
      +0       0
 11579 ;;      Totals:         0       0       0       0       0       0       0       0       0       0       0       0       
      +0       0
 11580 ;;Total ram usage:        0 bytes
 11581 ;; Hardware stack levels used: 1
 11582 ;; Hardware stack levels required when called: 1
 11583 ;; This function calls:
 11584 ;;		Nothing
 11585 ;; This function is called by:
 11586 ;;		_HAL_I2C_Master_Transmit
 11587 ;; This function uses a non-reentrant model
 11588 ;;
 11589                           
 11590     1B9A                     _I2C_stop:	
 11591                           ;psect for function _I2C_stop
 11592                           
 11593     1B9A                     l4230:	
 11594                           ;incstack = 0
 11595                           ; Regs used in _I2C_stop: []
 11596                           
 11597                           
 11598                           ;./PIC16_LCD_API.h: 116:     SSP2CON2bits.PEN = 1;
 11599     1B9A  0023               	movlb	3	; select bank3
 11600     1B9B  151B               	bsf	27,2	;volatile
 11601     1B9C                     l99:	
 11602                           ;./PIC16_LCD_API.h: 119:     }
 11603                           
 11604                           
 11605                           ;./PIC16_LCD_API.h: 117:     while(SSP2CON2bits.PEN == 1){
 11606     1B9C  191B               	btfsc	27,2	;volatile
 11607     1B9D  2B9F               	goto	u5041
 11608     1B9E  2BA0               	goto	u5040
 11609     1B9F                     u5041:
 11610     1B9F  2B9C               	goto	l99
 11611     1BA0                     u5040:
 11612     1BA0                     l102:
 11613     1BA0  0008               	return
 11614     1BA1                     __end_of_I2C_stop:
 11615                           
 11616                           	psect	text33
 11617     1B93                     __ptext33:	
 11618 ;; *************** function _I2C_start *****************
 11619 ;; Defined at:
 11620 ;;		line 89 in file "./PIC16_LCD_API.h"
 11621 ;; Parameters:    Size  Location     Type
 11622 ;;		None
 11623 ;; Auto vars:     Size  Location     Type
 11624 ;;		None
 11625 ;; Return value:  Size  Location     Type
 11626 ;;                  1    wreg      void 
 11627 ;; Registers used:
 11628 ;;		None
 11629 ;; Tracked objects:
 11630 ;;		On entry : 0/0
 11631 ;;		On exit  : 0/0
 11632 ;;		Unchanged: 0/0
 11633 ;; Data sizes:     COMMON   BANK0   BANK1   BANK2   BANK3   BANK4   BANK5   BANK6   BANK7   BANK8   BANK9  BANK10  BANK1
      +1  BANK12
 11634 ;;      Params:         0       0       0       0       0       0       0       0       0       0       0       0       
      +0       0
 11635 ;;      Locals:         0       0       0       0       0       0       0       0       0       0       0       0       
      +0       0
 11636 ;;      Temps:          0       0       0       0       0       0       0       0       0       0       0       0       
      +0       0
 11637 ;;      Totals:         0       0       0       0       0       0       0       0       0       0       0       0       
      +0       0
 11638 ;;Total ram usage:        0 bytes
 11639 ;; Hardware stack levels used: 1
 11640 ;; Hardware stack levels required when called: 1
 11641 ;; This function calls:
 11642 ;;		Nothing
 11643 ;; This function is called by:
 11644 ;;		_HAL_I2C_Master_Transmit
 11645 ;; This function uses a non-reentrant model
 11646 ;;
 11647                           
 11648     1B93                     _I2C_start:	
 11649                           ;psect for function _I2C_start
 11650                           
 11651     1B93                     l4222:	
 11652                           ;incstack = 0
 11653                           ; Regs used in _I2C_start: []
 11654                           
 11655                           
 11656                           ;./PIC16_LCD_API.h: 91:     SSP2CON2bits.SEN = 1;
 11657     1B93  0023               	movlb	3	; select bank3
 11658     1B94  141B               	bsf	27,0	;volatile
 11659     1B95                     l83:	
 11660                           ;./PIC16_LCD_API.h: 95:     }
 11661                           
 11662                           
 11663                           ;./PIC16_LCD_API.h: 93:     while(SSP2CON2bits.SEN == 1){
 11664     1B95  181B               	btfsc	27,0	;volatile
 11665     1B96  2B98               	goto	u5021
 11666     1B97  2B99               	goto	u5020
 11667     1B98                     u5021:
 11668     1B98  2B95               	goto	l83
 11669     1B99                     u5020:
 11670     1B99                     l86:
 11671     1B99  0008               	return
 11672     1B9A                     __end_of_I2C_start:
 11673                           
 11674                           	psect	text34
 11675     1BD1                     __ptext34:	
 11676 ;; *************** function _configUART1 *****************
 11677 ;; Defined at:
 11678 ;;		line 86 in file "Rover_Main_Ver01.c"
 11679 ;; Parameters:    Size  Location     Type
 11680 ;;		None
 11681 ;; Auto vars:     Size  Location     Type
 11682 ;;		None
 11683 ;; Return value:  Size  Location     Type
 11684 ;;                  1    wreg      void 
 11685 ;; Registers used:
 11686 ;;		status,2
 11687 ;; Tracked objects:
 11688 ;;		On entry : 0/0
 11689 ;;		On exit  : 0/0
 11690 ;;		Unchanged: 0/0
 11691 ;; Data sizes:     COMMON   BANK0   BANK1   BANK2   BANK3   BANK4   BANK5   BANK6   BANK7   BANK8   BANK9  BANK10  BANK1
      +1  BANK12
 11692 ;;      Params:         0       0       0       0       0       0       0       0       0       0       0       0       
      +0       0
 11693 ;;      Locals:         0       0       0       0       0       0       0       0       0       0       0       0       
      +0       0
 11694 ;;      Temps:          0       0       0       0       0       0       0       0       0       0       0       0       
      +0       0
 11695 ;;      Totals:         0       0       0       0       0       0       0       0       0       0       0       0       
      +0       0
 11696 ;;Total ram usage:        0 bytes
 11697 ;; Hardware stack levels used: 1
 11698 ;; Hardware stack levels required when called: 1
 11699 ;; This function calls:
 11700 ;;		Nothing
 11701 ;; This function is called by:
 11702 ;;		_initialize_all
 11703 ;; This function uses a non-reentrant model
 11704 ;;
 11705                           
 11706     1BD1                     _configUART1:	
 11707                           ;psect for function _configUART1
 11708                           
 11709     1BD1                     l3306:	
 11710                           ;incstack = 0
 11711                           ; Regs used in _configUART1: [status,2]
 11712                           
 11713                           
 11714                           ;Rover_Main_Ver01.c: 88:     BAUD1CONbits.RCIDL = 1;
 11715     1BD1  0022               	movlb	2	; select bank2
 11716     1BD2  171F               	bsf	31,6	;volatile
 11717                           
 11718                           ;Rover_Main_Ver01.c: 89:     BAUD1CONbits.SCKP = 0;
 11719     1BD3  121F               	bcf	31,4	;volatile
 11720                           
 11721                           ;Rover_Main_Ver01.c: 90:     BAUD1CONbits.WUE = 0;
 11722     1BD4  109F               	bcf	31,1	;volatile
 11723                           
 11724                           ;Rover_Main_Ver01.c: 91:     BAUD1CONbits.ABDEN = 0;
 11725     1BD5  101F               	bcf	31,0	;volatile
 11726                           
 11727                           ;Rover_Main_Ver01.c: 92:     BRG16 = 1;
 11728     1BD6  159F               	bsf	31,3	;volatile
 11729                           
 11730                           ;Rover_Main_Ver01.c: 93:     BRGH = 1;
 11731     1BD7  151E               	bsf	30,2	;volatile
 11732     1BD8                     l3308:
 11733                           
 11734                           ;Rover_Main_Ver01.c: 96:     SP1BRGH = 0b00000000;
 11735     1BD8  019C               	clrf	28	;volatile
 11736     1BD9                     l3310:
 11737                           
 11738                           ;Rover_Main_Ver01.c: 97:     SP1BRGL = 0b01000100;
 11739     1BD9  3044               	movlw	68
 11740     1BDA  009B               	movwf	27	;volatile
 11741     1BDB                     l3312:
 11742                           
 11743                           ;Rover_Main_Ver01.c: 98:     RC1STAbits.RX9 = 0;
 11744     1BDB  131D               	bcf	29,6	;volatile
 11745     1BDC                     l3314:
 11746                           
 11747                           ;Rover_Main_Ver01.c: 99:     TX1STAbits.SYNC = 0;
 11748     1BDC  121E               	bcf	30,4	;volatile
 11749     1BDD                     l3316:
 11750                           
 11751                           ;Rover_Main_Ver01.c: 100:     TX1STAbits.TXEN = 1;
 11752     1BDD  169E               	bsf	30,5	;volatile
 11753     1BDE                     l3318:
 11754                           
 11755                           ;Rover_Main_Ver01.c: 101:     RC1STAbits.SPEN = 1;
 11756     1BDE  179D               	bsf	29,7	;volatile
 11757     1BDF                     l3320:
 11758                           
 11759                           ;Rover_Main_Ver01.c: 102:     RC1STAbits.CREN = 1;
 11760     1BDF  161D               	bsf	29,4	;volatile
 11761     1BE0                     l3322:
 11762                           
 11763                           ;Rover_Main_Ver01.c: 103:     RC1STAbits.FERR = 0;
 11764     1BE0  111D               	bcf	29,2	;volatile
 11765     1BE1                     l3324:
 11766                           
 11767                           ;Rover_Main_Ver01.c: 104:     RC1STAbits.OERR = 0;
 11768     1BE1  109D               	bcf	29,1	;volatile
 11769     1BE2                     l284:
 11770     1BE2  0008               	return
 11771     1BE3                     __end_of_configUART1:
 11772                           
 11773                           	psect	text35
 11774     1D92                     __ptext35:	
 11775 ;; *************** function _configPins *****************
 11776 ;; Defined at:
 11777 ;;		line 172 in file "Rover_Main_Ver01.c"
 11778 ;; Parameters:    Size  Location     Type
 11779 ;;		None
 11780 ;; Auto vars:     Size  Location     Type
 11781 ;;		None
 11782 ;; Return value:  Size  Location     Type
 11783 ;;                  1    wreg      void 
 11784 ;; Registers used:
 11785 ;;		wreg, status,2, status,0
 11786 ;; Tracked objects:
 11787 ;;		On entry : 0/0
 11788 ;;		On exit  : 0/0
 11789 ;;		Unchanged: 0/0
 11790 ;; Data sizes:     COMMON   BANK0   BANK1   BANK2   BANK3   BANK4   BANK5   BANK6   BANK7   BANK8   BANK9  BANK10  BANK1
      +1  BANK12
 11791 ;;      Params:         0       0       0       0       0       0       0       0       0       0       0       0       
      +0       0
 11792 ;;      Locals:         0       0       0       0       0       0       0       0       0       0       0       0       
      +0       0
 11793 ;;      Temps:          0       0       0       0       0       0       0       0       0       0       0       0       
      +0       0
 11794 ;;      Totals:         0       0       0       0       0       0       0       0       0       0       0       0       
      +0       0
 11795 ;;Total ram usage:        0 bytes
 11796 ;; Hardware stack levels used: 1
 11797 ;; Hardware stack levels required when called: 1
 11798 ;; This function calls:
 11799 ;;		Nothing
 11800 ;; This function is called by:
 11801 ;;		_initialize_all
 11802 ;; This function uses a non-reentrant model
 11803 ;;
 11804                           
 11805     1D92                     _configPins:	
 11806                           ;psect for function _configPins
 11807                           
 11808     1D92                     l3348:	
 11809                           ;incstack = 0
 11810                           ; Regs used in _configPins: [wreg+status,2+status,0]
 11811                           
 11812                           
 11813                           ;Rover_Main_Ver01.c: 174:     TRISAbits.TRISA0 = 0;
 11814     1D92  0020               	movlb	0	; select bank0
 11815     1D93  1011               	bcf	17,0	;volatile
 11816                           
 11817                           ;Rover_Main_Ver01.c: 175:     ANSELAbits.ANSA0 = 0;
 11818     1D94  003E               	movlb	30	; select bank30
 11819     1D95  1038               	bcf	56,0	;volatile
 11820                           
 11821                           ;Rover_Main_Ver01.c: 177:     TRISAbits.TRISA1 = 0;
 11822     1D96  0020               	movlb	0	; select bank0
 11823     1D97  1091               	bcf	17,1	;volatile
 11824                           
 11825                           ;Rover_Main_Ver01.c: 178:     ANSELAbits.ANSA1 = 0;
 11826     1D98  003E               	movlb	30	; select bank30
 11827     1D99  10B8               	bcf	56,1	;volatile
 11828                           
 11829                           ;Rover_Main_Ver01.c: 180:     TRISAbits.TRISA2 = 0;
 11830     1D9A  0020               	movlb	0	; select bank0
 11831     1D9B  1111               	bcf	17,2	;volatile
 11832                           
 11833                           ;Rover_Main_Ver01.c: 181:     ANSELAbits.ANSA2 = 0;
 11834     1D9C  003E               	movlb	30	; select bank30
 11835     1D9D  1138               	bcf	56,2	;volatile
 11836                           
 11837                           ;Rover_Main_Ver01.c: 183:     TRISAbits.TRISA3 = 0;
 11838     1D9E  0020               	movlb	0	; select bank0
 11839     1D9F  1191               	bcf	17,3	;volatile
 11840                           
 11841                           ;Rover_Main_Ver01.c: 184:     ANSELAbits.ANSA4 = 0;
 11842     1DA0  003E               	movlb	30	; select bank30
 11843     1DA1  1238               	bcf	56,4	;volatile
 11844                           
 11845                           ;Rover_Main_Ver01.c: 188:     TRISCbits.TRISC7 = 1;
 11846     1DA2  0020               	movlb	0	; select bank0
 11847     1DA3  1793               	bsf	19,7	;volatile
 11848                           
 11849                           ;Rover_Main_Ver01.c: 189:     ANSELCbits.ANSC7 = 0;
 11850     1DA4  003E               	movlb	30	; select bank30
 11851     1DA5  13CE               	bcf	78,7	;volatile
 11852                           
 11853                           ;Rover_Main_Ver01.c: 192:     TRISCbits.TRISC3 = 1;
 11854     1DA6  0020               	movlb	0	; select bank0
 11855     1DA7  1593               	bsf	19,3	;volatile
 11856                           
 11857                           ;Rover_Main_Ver01.c: 193:     ANSELCbits.ANSC3 = 0;
 11858     1DA8  003E               	movlb	30	; select bank30
 11859     1DA9  11CE               	bcf	78,3	;volatile
 11860                           
 11861                           ;Rover_Main_Ver01.c: 196:     TRISCbits.TRISC4 = 1;
 11862     1DAA  0020               	movlb	0	; select bank0
 11863     1DAB  1613               	bsf	19,4	;volatile
 11864                           
 11865                           ;Rover_Main_Ver01.c: 197:     ANSELCbits.ANSC4 = 0;
 11866     1DAC  003E               	movlb	30	; select bank30
 11867     1DAD  124E               	bcf	78,4	;volatile
 11868                           
 11869                           ;Rover_Main_Ver01.c: 200:     TRISBbits.TRISB4 = 0;
 11870     1DAE  0020               	movlb	0	; select bank0
 11871     1DAF  1212               	bcf	18,4	;volatile
 11872                           
 11873                           ;Rover_Main_Ver01.c: 201:     ANSELBbits.ANSB4 = 0;
 11874     1DB0  003E               	movlb	30	; select bank30
 11875     1DB1  1243               	bcf	67,4	;volatile
 11876                           
 11877                           ;Rover_Main_Ver01.c: 205:     TRISBbits.TRISB0 = 0;
 11878     1DB2  0020               	movlb	0	; select bank0
 11879     1DB3  1012               	bcf	18,0	;volatile
 11880                           
 11881                           ;Rover_Main_Ver01.c: 206:     ANSELBbits.ANSB0 = 0;
 11882     1DB4  003E               	movlb	30	; select bank30
 11883     1DB5  1043               	bcf	67,0	;volatile
 11884                           
 11885                           ;Rover_Main_Ver01.c: 207:     ODCONBbits.ODCB0 = 1;
 11886     1DB6  1445               	bsf	69,0	;volatile
 11887                           
 11888                           ;Rover_Main_Ver01.c: 208:     WPUBbits.WPUB0 = 1;
 11889     1DB7  1444               	bsf	68,0	;volatile
 11890                           
 11891                           ;Rover_Main_Ver01.c: 210:     TRISBbits.TRISB1 = 0;
 11892     1DB8  0020               	movlb	0	; select bank0
 11893     1DB9  1092               	bcf	18,1	;volatile
 11894                           
 11895                           ;Rover_Main_Ver01.c: 211:     ANSELBbits.ANSB1 = 0;
 11896     1DBA  003E               	movlb	30	; select bank30
 11897     1DBB  10C3               	bcf	67,1	;volatile
 11898                           
 11899                           ;Rover_Main_Ver01.c: 212:     ODCONBbits.ODCB1 = 1;
 11900     1DBC  14C5               	bsf	69,1	;volatile
 11901                           
 11902                           ;Rover_Main_Ver01.c: 213:     WPUBbits.WPUB1 = 1;
 11903     1DBD  14C4               	bsf	68,1	;volatile
 11904                           
 11905                           ;Rover_Main_Ver01.c: 217:     TRISAbits.TRISA5 = 1;
 11906     1DBE  0020               	movlb	0	; select bank0
 11907     1DBF  1691               	bsf	17,5	;volatile
 11908                           
 11909                           ;Rover_Main_Ver01.c: 218:     ANSELAbits.ANSA5 = 0;
 11910     1DC0  003E               	movlb	30	; select bank30
 11911     1DC1  12B8               	bcf	56,5	;volatile
 11912                           
 11913                           ;Rover_Main_Ver01.c: 221:     PPSLOCKbits.PPSLOCKED = 0;
 11914     1DC2  003D               	movlb	29	; select bank29
 11915     1DC3  100F               	bcf	15,0	;volsfr
 11916                           
 11917                           ;Rover_Main_Ver01.c: 223:     RC4PPS = 0x16;
 11918     1DC4  3016               	movlw	22
 11919     1DC5  003E               	movlb	30	; select bank30
 11920     1DC6  00A4               	movwf	36	;volatile
 11921     1DC7                     l3350:
 11922                           
 11923                           ;Rover_Main_Ver01.c: 224:     SSP2CLKPPSbits.SSP2CLKPPS = 0x14;
 11924     1DC7  003D               	movlb	29	; select bank29
 11925     1DC8  0848               	movf	72,w	;volatile
 11926     1DC9  39E0               	andlw	-32
 11927     1DCA  3814               	iorlw	20
 11928     1DCB  00C8               	movwf	72	;volatile
 11929                           
 11930                           ;Rover_Main_Ver01.c: 226:     SSP2DATPPSbits.SSP2DATPPS = 0x13;
 11931     1DCC  0849               	movf	73,w	;volatile
 11932     1DCD  39E0               	andlw	-32
 11933     1DCE  3813               	iorlw	19
 11934     1DCF  00C9               	movwf	73	;volatile
 11935     1DD0                     l3352:
 11936                           
 11937                           ;Rover_Main_Ver01.c: 227:     RC3PPS = 0x17;
 11938     1DD0  3017               	movlw	23
 11939     1DD1  003E               	movlb	30	; select bank30
 11940     1DD2  00A3               	movwf	35	;volatile
 11941     1DD3                     l3354:
 11942                           
 11943                           ;Rover_Main_Ver01.c: 229:     RC5PPS = 0x10;
 11944     1DD3  3010               	movlw	16
 11945     1DD4  00A5               	movwf	37	;volatile
 11946     1DD5                     l3356:
 11947                           
 11948                           ;Rover_Main_Ver01.c: 231:     PPSLOCKbits.PPSLOCKED = 1;
 11949     1DD5  003D               	movlb	29	; select bank29
 11950     1DD6  140F               	bsf	15,0	;volsfr
 11951     1DD7                     l323:
 11952     1DD7  0008               	return
 11953     1DD8                     __end_of_configPins:
 11954                           
 11955                           	psect	text36
 11956     1B7D                     __ptext36:	
 11957 ;; *************** function _configISR *****************
 11958 ;; Defined at:
 11959 ;;		line 107 in file "Rover_Main_Ver01.c"
 11960 ;; Parameters:    Size  Location     Type
 11961 ;;		None
 11962 ;; Auto vars:     Size  Location     Type
 11963 ;;		None
 11964 ;; Return value:  Size  Location     Type
 11965 ;;                  1    wreg      void 
 11966 ;; Registers used:
 11967 ;;		None
 11968 ;; Tracked objects:
 11969 ;;		On entry : 0/0
 11970 ;;		On exit  : 0/0
 11971 ;;		Unchanged: 0/0
 11972 ;; Data sizes:     COMMON   BANK0   BANK1   BANK2   BANK3   BANK4   BANK5   BANK6   BANK7   BANK8   BANK9  BANK10  BANK1
      +1  BANK12
 11973 ;;      Params:         0       0       0       0       0       0       0       0       0       0       0       0       
      +0       0
 11974 ;;      Locals:         0       0       0       0       0       0       0       0       0       0       0       0       
      +0       0
 11975 ;;      Temps:          0       0       0       0       0       0       0       0       0       0       0       0       
      +0       0
 11976 ;;      Totals:         0       0       0       0       0       0       0       0       0       0       0       0       
      +0       0
 11977 ;;Total ram usage:        0 bytes
 11978 ;; Hardware stack levels used: 1
 11979 ;; Hardware stack levels required when called: 1
 11980 ;; This function calls:
 11981 ;;		Nothing
 11982 ;; This function is called by:
 11983 ;;		_initialize_all
 11984 ;; This function uses a non-reentrant model
 11985 ;;
 11986                           
 11987     1B7D                     _configISR:	
 11988                           ;psect for function _configISR
 11989                           
 11990     1B7D                     l3326:	
 11991                           ;incstack = 0
 11992                           ; Regs used in _configISR: []
 11993                           
 11994                           
 11995                           ;Rover_Main_Ver01.c: 109:     INTCONbits.GIE = 1;
 11996     1B7D  178B               	bsf	11,7	;volatile
 11997                           
 11998                           ;Rover_Main_Ver01.c: 110:     INTCONbits.PEIE = 1;
 11999     1B7E  170B               	bsf	11,6	;volatile
 12000                           
 12001                           ;Rover_Main_Ver01.c: 113:     PIE3bits.RCIE = 1;
 12002     1B7F  002E               	movlb	14	; select bank14
 12003     1B80  1699               	bsf	25,5	;volatile
 12004     1B81                     l287:
 12005     1B81  0008               	return
 12006     1B82                     __end_of_configISR:
 12007                           
 12008                           	psect	text37
 12009     1BAA                     __ptext37:	
 12010 ;; *************** function _configI2C *****************
 12011 ;; Defined at:
 12012 ;;		line 122 in file "./PIC16_LCD_API.h"
 12013 ;; Parameters:    Size  Location     Type
 12014 ;;		None
 12015 ;; Auto vars:     Size  Location     Type
 12016 ;;		None
 12017 ;; Return value:  Size  Location     Type
 12018 ;;                  1    wreg      void 
 12019 ;; Registers used:
 12020 ;;		wreg, status,2, status,0
 12021 ;; Tracked objects:
 12022 ;;		On entry : 0/0
 12023 ;;		On exit  : 0/0
 12024 ;;		Unchanged: 0/0
 12025 ;; Data sizes:     COMMON   BANK0   BANK1   BANK2   BANK3   BANK4   BANK5   BANK6   BANK7   BANK8   BANK9  BANK10  BANK1
      +1  BANK12
 12026 ;;      Params:         0       0       0       0       0       0       0       0       0       0       0       0       
      +0       0
 12027 ;;      Locals:         0       0       0       0       0       0       0       0       0       0       0       0       
      +0       0
 12028 ;;      Temps:          0       0       0       0       0       0       0       0       0       0       0       0       
      +0       0
 12029 ;;      Totals:         0       0       0       0       0       0       0       0       0       0       0       0       
      +0       0
 12030 ;;Total ram usage:        0 bytes
 12031 ;; Hardware stack levels used: 1
 12032 ;; Hardware stack levels required when called: 1
 12033 ;; This function calls:
 12034 ;;		Nothing
 12035 ;; This function is called by:
 12036 ;;		_initialize_all
 12037 ;; This function uses a non-reentrant model
 12038 ;;
 12039                           
 12040     1BAA                     _configI2C:	
 12041                           ;psect for function _configI2C
 12042                           
 12043     1BAA                     l3284:	
 12044                           ;incstack = 0
 12045                           ; Regs used in _configI2C: [wreg+status,2+status,0]
 12046                           
 12047                           
 12048                           ;./PIC16_LCD_API.h: 124:     SSP2CON1bits.SSPEN = 0;
 12049     1BAA  0023               	movlb	3	; select bank3
 12050     1BAB  129A               	bcf	26,5	;volatile
 12051                           
 12052                           ;./PIC16_LCD_API.h: 127:     SSP2ADDbits.SSPADD = 19;
 12053     1BAC  3013               	movlw	19
 12054     1BAD  0097               	movwf	23	;volatile
 12055     1BAE                     l3286:
 12056                           
 12057                           ;./PIC16_LCD_API.h: 130:     SSP2CON1bits.SSPM = 0b1000;
 12058     1BAE  081A               	movf	26,w	;volatile
 12059     1BAF  39F0               	andlw	-16
 12060     1BB0  3808               	iorlw	8
 12061     1BB1  009A               	movwf	26	;volatile
 12062     1BB2                     l3288:
 12063                           
 12064                           ;./PIC16_LCD_API.h: 133:     SSP2CON1bits.SSPEN = 1;
 12065     1BB2  169A               	bsf	26,5	;volatile
 12066     1BB3                     l105:
 12067     1BB3  0008               	return
 12068     1BB4                     __end_of_configI2C:
 12069                           
 12070                           	psect	text38
 12071     1CE0                     __ptext38:	
 12072 ;; *************** function _HAL_LED_OFF *****************
 12073 ;; Defined at:
 12074 ;;		line 154 in file "Rover_Main_Ver01.c"
 12075 ;; Parameters:    Size  Location     Type
 12076 ;;  LED             2    1[COMMON] int 
 12077 ;; Auto vars:     Size  Location     Type
 12078 ;;		None
 12079 ;; Return value:  Size  Location     Type
 12080 ;;                  1    wreg      void 
 12081 ;; Registers used:
 12082 ;;		wreg, fsr0l, fsr0h, status,2, status,0
 12083 ;; Tracked objects:
 12084 ;;		On entry : 0/0
 12085 ;;		On exit  : 0/0
 12086 ;;		Unchanged: 0/0
 12087 ;; Data sizes:     COMMON   BANK0   BANK1   BANK2   BANK3   BANK4   BANK5   BANK6   BANK7   BANK8   BANK9  BANK10  BANK1
      +1  BANK12
 12088 ;;      Params:         2       0       0       0       0       0       0       0       0       0       0       0       
      +0       0
 12089 ;;      Locals:         0       0       0       0       0       0       0       0       0       0       0       0       
      +0       0
 12090 ;;      Temps:          0       0       0       0       0       0       0       0       0       0       0       0       
      +0       0
 12091 ;;      Totals:         2       0       0       0       0       0       0       0       0       0       0       0       
      +0       0
 12092 ;;Total ram usage:        2 bytes
 12093 ;; Hardware stack levels used: 1
 12094 ;; Hardware stack levels required when called: 1
 12095 ;; This function calls:
 12096 ;;		Nothing
 12097 ;; This function is called by:
 12098 ;;		_vectorCalculations
 12099 ;;		_initialize_all
 12100 ;; This function uses a non-reentrant model
 12101 ;;
 12102                           
 12103     1CE0                     _HAL_LED_OFF:	
 12104                           ;psect for function _HAL_LED_OFF
 12105                           
 12106     1CE0                     l3338:	
 12107                           ;incstack = 0
 12108                           ; Regs used in _HAL_LED_OFF: [wreg-fsr0h+status,2+status,0]
 12109                           
 12110                           
 12111                           ;Rover_Main_Ver01.c: 155:  switch(LED){
 12112     1CE0  2CED               	goto	l3342
 12113     1CE1                     l315:	
 12114                           ;Rover_Main_Ver01.c: 156:   case 1:
 12115                           
 12116                           
 12117                           ;Rover_Main_Ver01.c: 157:             LATAbits.LATA0 = 0;
 12118     1CE1  0020               	movlb	0	; select bank0
 12119     1CE2  1016               	bcf	22,0	;volatile
 12120                           
 12121                           ;Rover_Main_Ver01.c: 158:    break;
 12122     1CE3  2D00               	goto	l320
 12123     1CE4                     l317:	
 12124                           ;Rover_Main_Ver01.c: 159:   case 2:
 12125                           
 12126                           
 12127                           ;Rover_Main_Ver01.c: 160:             LATAbits.LATA1 = 0;
 12128     1CE4  0020               	movlb	0	; select bank0
 12129     1CE5  1096               	bcf	22,1	;volatile
 12130                           
 12131                           ;Rover_Main_Ver01.c: 161:    break;
 12132     1CE6  2D00               	goto	l320
 12133     1CE7                     l318:	
 12134                           ;Rover_Main_Ver01.c: 162:   case 3:
 12135                           
 12136                           
 12137                           ;Rover_Main_Ver01.c: 163:             LATAbits.LATA2 = 0;
 12138     1CE7  0020               	movlb	0	; select bank0
 12139     1CE8  1116               	bcf	22,2	;volatile
 12140                           
 12141                           ;Rover_Main_Ver01.c: 164:    break;
 12142     1CE9  2D00               	goto	l320
 12143     1CEA                     l319:	
 12144                           ;Rover_Main_Ver01.c: 165:         case 4:
 12145                           
 12146                           
 12147                           ;Rover_Main_Ver01.c: 166:             LATAbits.LATA3 = 0;
 12148     1CEA  0020               	movlb	0	; select bank0
 12149     1CEB  1196               	bcf	22,3	;volatile
 12150                           
 12151                           ;Rover_Main_Ver01.c: 167:             break;
 12152     1CEC  2D00               	goto	l320
 12153     1CED                     l3342:
 12154                           
 12155                           ; Switch on 2 bytes has been partitioned into a top level switch of size 1, and 1 sub-sw
      +                          itches
 12156                           ; Switch size 1, requested type "simple"
 12157                           ; Number of cases is 1, Range of values is 0 to 0
 12158                           ; switch strategies available:
 12159                           ; Name         Instructions Cycles
 12160                           ; simple_byte            4     3 (average)
 12161                           ; direct_byte            8     6 (fixed)
 12162                           ; jumptable            260     6 (fixed)
 12163                           ;	Chosen strategy is simple_byte
 12164     1CED  0872               	movf	HAL_LED_OFF@LED+1,w
 12165     1CEE  3A00               	xorlw	0	; case 0
 12166     1CEF  1903               	skipnz
 12167     1CF0  2CF2               	goto	l4706
 12168     1CF1  2D00               	goto	l320
 12169     1CF2                     l4706:
 12170                           
 12171                           ; Switch size 1, requested type "simple"
 12172                           ; Number of cases is 4, Range of values is 1 to 4
 12173                           ; switch strategies available:
 12174                           ; Name         Instructions Cycles
 12175                           ; simple_byte           13     7 (average)
 12176                           ; direct_byte           17     9 (fixed)
 12177                           ; jumptable            263     9 (fixed)
 12178                           ;	Chosen strategy is simple_byte
 12179     1CF2  0871               	movf	HAL_LED_OFF@LED,w
 12180     1CF3  3A01               	xorlw	1	; case 1
 12181     1CF4  1903               	skipnz
 12182     1CF5  2CE1               	goto	l315
 12183     1CF6  3A03               	xorlw	3	; case 2
 12184     1CF7  1903               	skipnz
 12185     1CF8  2CE4               	goto	l317
 12186     1CF9  3A01               	xorlw	1	; case 3
 12187     1CFA  1903               	skipnz
 12188     1CFB  2CE7               	goto	l318
 12189     1CFC  3A07               	xorlw	7	; case 4
 12190     1CFD  1903               	skipnz
 12191     1CFE  2CEA               	goto	l319
 12192     1CFF  2D00               	goto	l320
 12193     1D00                     l320:
 12194     1D00  0008               	return
 12195     1D01                     __end_of_HAL_LED_OFF:
 12196                           
 12197                           	psect	text39
 12198     1BBF                     __ptext39:	
 12199 ;; *************** function _Flysky *****************
 12200 ;; Defined at:
 12201 ;;		line 283 in file "Rover_Main_Ver01.c"
 12202 ;; Parameters:    Size  Location     Type
 12203 ;;		None
 12204 ;; Auto vars:     Size  Location     Type
 12205 ;;  message         6    5[COMMON] unsigned char [6]
 12206 ;; Return value:  Size  Location     Type
 12207 ;;                  1    wreg      void 
 12208 ;; Registers used:
 12209 ;;		wreg, fsr1l, fsr1h, status,2, status,0, pclath, cstack
 12210 ;; Tracked objects:
 12211 ;;		On entry : 0/0
 12212 ;;		On exit  : 0/0
 12213 ;;		Unchanged: 0/0
 12214 ;; Data sizes:     COMMON   BANK0   BANK1   BANK2   BANK3   BANK4   BANK5   BANK6   BANK7   BANK8   BANK9  BANK10  BANK1
      +1  BANK12
 12215 ;;      Params:         0       0       0       0       0       0       0       0       0       0       0       0       
      +0       0
 12216 ;;      Locals:         6       0       0       0       0       0       0       0       0       0       0       0       
      +0       0
 12217 ;;      Temps:          0       0       0       0       0       0       0       0       0       0       0       0       
      +0       0
 12218 ;;      Totals:         6       0       0       0       0       0       0       0       0       0       0       0       
      +0       0
 12219 ;;Total ram usage:        6 bytes
 12220 ;; Hardware stack levels used: 1
 12221 ;; Hardware stack levels required when called: 3
 12222 ;; This function calls:
 12223 ;;		_UART_SendBuffer
 12224 ;; This function is called by:
 12225 ;;		_main
 12226 ;; This function uses a non-reentrant model
 12227 ;;
 12228                           
 12229     1BBF                     _Flysky:	
 12230                           ;psect for function _Flysky
 12231                           
 12232     1BBF                     l3772:	
 12233                           ;incstack = 0
 12234                           ; Regs used in _Flysky: [wreg+fsr1l+fsr1h+status,2+status,0+pclath+cstack]
 12235                           
 12236                           
 12237                           ;Rover_Main_Ver01.c: 284:     uint8_t message[6];;Rover_Main_Ver01.c: 285:     message[0
      +                          ] = 0xFE;
 12238     1BBF  30FE               	movlw	254
 12239     1BC0  00F5               	movwf	Flysky@message
 12240                           
 12241                           ;Rover_Main_Ver01.c: 286:     message[1] = 0x19;
 12242     1BC1  3019               	movlw	25
 12243     1BC2  00F6               	movwf	Flysky@message+1
 12244                           
 12245                           ;Rover_Main_Ver01.c: 287:     message[2] = 0x01;
 12246     1BC3  3001               	movlw	1
 12247     1BC4  00F7               	movwf	Flysky@message+2
 12248                           
 12249                           ;Rover_Main_Ver01.c: 288:     message[3] = 0x05;
 12250     1BC5  3005               	movlw	5
 12251     1BC6  00F8               	movwf	Flysky@message+3
 12252     1BC7                     l3774:
 12253                           
 12254                           ;Rover_Main_Ver01.c: 289:     message[4] = 0x00;
 12255     1BC7  01F9               	clrf	Flysky@message+4
 12256                           
 12257                           ;Rover_Main_Ver01.c: 290:     message[5] = 0x00;
 12258     1BC8  01FA               	clrf	Flysky@message+5
 12259     1BC9                     l3776:
 12260                           
 12261                           ;Rover_Main_Ver01.c: 291:     UART_SendBuffer(message,6);
 12262     1BC9  3075               	movlw	(low (Flysky@message| 0))& (0+255)
 12263     1BCA  00F2               	movwf	UART_SendBuffer@buffer
 12264     1BCB  3006               	movlw	6
 12265     1BCC  00F3               	movwf	UART_SendBuffer@length
 12266     1BCD  319C  241A  319B   	fcall	_UART_SendBuffer
 12267     1BD0                     l344:
 12268     1BD0  0008               	return
 12269     1BD1                     __end_of_Flysky:
 12270                           
 12271                           	psect	text40
 12272     1C1A                     __ptext40:	
 12273 ;; *************** function _UART_SendBuffer *****************
 12274 ;; Defined at:
 12275 ;;		line 127 in file "Rover_Main_Ver01.c"
 12276 ;; Parameters:    Size  Location     Type
 12277 ;;  buffer          1    2[COMMON] PTR const unsigned char 
 12278 ;;		 -> MotorSettings@message(10), Shield_Code@message(6), PCU_Info@message(6), Flysky@message(6), 
 12279 ;;  length          1    3[COMMON] unsigned char 
 12280 ;; Auto vars:     Size  Location     Type
 12281 ;;  i               1    4[COMMON] unsigned char 
 12282 ;; Return value:  Size  Location     Type
 12283 ;;                  1    wreg      void 
 12284 ;; Registers used:
 12285 ;;		wreg, fsr1l, fsr1h, status,2, status,0, pclath, cstack
 12286 ;; Tracked objects:
 12287 ;;		On entry : 0/0
 12288 ;;		On exit  : 0/0
 12289 ;;		Unchanged: 0/0
 12290 ;; Data sizes:     COMMON   BANK0   BANK1   BANK2   BANK3   BANK4   BANK5   BANK6   BANK7   BANK8   BANK9  BANK10  BANK1
      +1  BANK12
 12291 ;;      Params:         2       0       0       0       0       0       0       0       0       0       0       0       
      +0       0
 12292 ;;      Locals:         1       0       0       0       0       0       0       0       0       0       0       0       
      +0       0
 12293 ;;      Temps:          0       0       0       0       0       0       0       0       0       0       0       0       
      +0       0
 12294 ;;      Totals:         3       0       0       0       0       0       0       0       0       0       0       0       
      +0       0
 12295 ;;Total ram usage:        3 bytes
 12296 ;; Hardware stack levels used: 1
 12297 ;; Hardware stack levels required when called: 2
 12298 ;; This function calls:
 12299 ;;		_UART_sendData
 12300 ;; This function is called by:
 12301 ;;		_Flysky
 12302 ;;		_MotorSettings
 12303 ;;		_PCU_Info
 12304 ;;		_Shield_Code
 12305 ;; This function uses a non-reentrant model
 12306 ;;
 12307                           
 12308     1C1A                     _UART_SendBuffer:	
 12309                           ;psect for function _UART_SendBuffer
 12310                           
 12311     1C1A                     l2952:	
 12312                           ;incstack = 0
 12313                           ; Regs used in _UART_SendBuffer: [wreg+fsr1l+fsr1h+status,2+status,0+pclath+cstack]
 12314                           
 12315                           
 12316                           ;Rover_Main_Ver01.c: 128:     for(uint8_t i = 0; i<length; i++){
 12317     1C1A  01F4               	clrf	UART_SendBuffer@i
 12318     1C1B  2C2A               	goto	l2960
 12319     1C1C                     l2954:
 12320                           
 12321                           ;Rover_Main_Ver01.c: 129:         UART_sendData(buffer[i]);
 12322     1C1C  0872               	movf	UART_SendBuffer@buffer,w
 12323     1C1D  0774               	addwf	UART_SendBuffer@i,w
 12324     1C1E  0086               	movwf	6
 12325     1C1F  0187               	clrf	7
 12326     1C20  0801               	movf	1,w
 12327     1C21  319B  23A1  319C   	fcall	_UART_sendData
 12328     1C24                     l2956:
 12329                           
 12330                           ;Rover_Main_Ver01.c: 130:         _delay((unsigned long)((100)*(32000000/4000000.0)));
 12331     1C24  30A0               	movlw	160
 12332     1C25                     u5577:
 12333     1C25  3200               	nop2
 12334     1C26  0B89               	decfsz	9,f
 12335     1C27  2C25               	goto	u5577
 12336     1C28                     l2958:
 12337                           
 12338                           ;Rover_Main_Ver01.c: 131:     }
 12339     1C28  3001               	movlw	1
 12340     1C29  07F4               	addwf	UART_SendBuffer@i,f
 12341     1C2A                     l2960:
 12342     1C2A  0873               	movf	UART_SendBuffer@length,w
 12343     1C2B  0274               	subwf	UART_SendBuffer@i,w
 12344     1C2C  1C03               	skipc
 12345     1C2D  2C2F               	goto	u3101
 12346     1C2E  2C30               	goto	u3100
 12347     1C2F                     u3101:
 12348     1C2F  2C1C               	goto	l2954
 12349     1C30                     u3100:
 12350     1C30                     l302:
 12351     1C30  0008               	return
 12352     1C31                     __end_of_UART_SendBuffer:
 12353                           
 12354                           	psect	text41
 12355     1BA1                     __ptext41:	
 12356 ;; *************** function _UART_sendData *****************
 12357 ;; Defined at:
 12358 ;;		line 118 in file "Rover_Main_Ver01.c"
 12359 ;; Parameters:    Size  Location     Type
 12360 ;;  byte            1    wreg     unsigned char 
 12361 ;; Auto vars:     Size  Location     Type
 12362 ;;  byte            1    1[COMMON] unsigned char 
 12363 ;; Return value:  Size  Location     Type
 12364 ;;                  1    wreg      void 
 12365 ;; Registers used:
 12366 ;;		wreg
 12367 ;; Tracked objects:
 12368 ;;		On entry : 0/0
 12369 ;;		On exit  : 0/0
 12370 ;;		Unchanged: 0/0
 12371 ;; Data sizes:     COMMON   BANK0   BANK1   BANK2   BANK3   BANK4   BANK5   BANK6   BANK7   BANK8   BANK9  BANK10  BANK1
      +1  BANK12
 12372 ;;      Params:         0       0       0       0       0       0       0       0       0       0       0       0       
      +0       0
 12373 ;;      Locals:         1       0       0       0       0       0       0       0       0       0       0       0       
      +0       0
 12374 ;;      Temps:          0       0       0       0       0       0       0       0       0       0       0       0       
      +0       0
 12375 ;;      Totals:         1       0       0       0       0       0       0       0       0       0       0       0       
      +0       0
 12376 ;;Total ram usage:        1 bytes
 12377 ;; Hardware stack levels used: 1
 12378 ;; Hardware stack levels required when called: 1
 12379 ;; This function calls:
 12380 ;;		Nothing
 12381 ;; This function is called by:
 12382 ;;		_UART_SendBuffer
 12383 ;; This function uses a non-reentrant model
 12384 ;;
 12385                           
 12386     1BA1                     _UART_sendData:	
 12387                           ;psect for function _UART_sendData
 12388                           
 12389                           
 12390                           ;incstack = 0
 12391                           ; Regs used in _UART_sendData: [wreg]
 12392                           ;UART_sendData@byte stored from wreg
 12393     1BA1  00F1               	movwf	UART_sendData@byte
 12394     1BA2                     l2732:
 12395                           
 12396                           ;Rover_Main_Ver01.c: 119:     TX1REG = byte;
 12397     1BA2  0871               	movf	UART_sendData@byte,w
 12398     1BA3  0022               	movlb	2	; select bank2
 12399     1BA4  009A               	movwf	26	;volatile
 12400     1BA5                     l290:	
 12401                           ;Rover_Main_Ver01.c: 121:     }
 12402                           
 12403                           
 12404                           ;Rover_Main_Ver01.c: 120:     while(TX1STAbits.TRMT == 0){
 12405     1BA5  1C9E               	btfss	30,1	;volatile
 12406     1BA6  2BA8               	goto	u2581
 12407     1BA7  2BA9               	goto	u2580
 12408     1BA8                     u2581:
 12409     1BA8  2BA5               	goto	l290
 12410     1BA9                     u2580:
 12411     1BA9                     l293:
 12412     1BA9  0008               	return
 12413     1BAA                     __end_of_UART_sendData:
 12414                           
 12415                           	psect	intentry
 12416     0004                     __pintentry:	
 12417 ;; *************** function _ISR *****************
 12418 ;; Defined at:
 12419 ;;		line 669 in file "Rover_Main_Ver01.c"
 12420 ;; Parameters:    Size  Location     Type
 12421 ;;		None
 12422 ;; Auto vars:     Size  Location     Type
 12423 ;;		None
 12424 ;; Return value:  Size  Location     Type
 12425 ;;                  1    wreg      void 
 12426 ;; Registers used:
 12427 ;;		wreg, fsr1l, fsr1h, status,2, status,0
 12428 ;; Tracked objects:
 12429 ;;		On entry : 0/0
 12430 ;;		On exit  : 0/0
 12431 ;;		Unchanged: 0/0
 12432 ;; Data sizes:     COMMON   BANK0   BANK1   BANK2   BANK3   BANK4   BANK5   BANK6   BANK7   BANK8   BANK9  BANK10  BANK1
      +1  BANK12
 12433 ;;      Params:         0       0       0       0       0       0       0       0       0       0       0       0       
      +0       0
 12434 ;;      Locals:         0       0       0       0       0       0       0       0       0       0       0       0       
      +0       0
 12435 ;;      Temps:          1       0       0       0       0       0       0       0       0       0       0       0       
      +0       0
 12436 ;;      Totals:         1       0       0       0       0       0       0       0       0       0       0       0       
      +0       0
 12437 ;;Total ram usage:        1 bytes
 12438 ;; Hardware stack levels used: 1
 12439 ;; This function calls:
 12440 ;;		Nothing
 12441 ;; This function is called by:
 12442 ;;		Interrupt level 1
 12443 ;; This function uses a non-reentrant model
 12444 ;;
 12445                           
 12446     0004                     _ISR:
 12447                           
 12448                           ;incstack = 0
 12449     0004  147E               	bsf	int$flags,0	;set compiler interrupt flag (level 1)
 12450                           
 12451                           ; Regs used in _ISR: [wreg+fsr1l+fsr1h+status,2+status,0]
 12452     0005  3180               	pagesel	$
 12453     0006                     i1l4102:
 12454                           
 12455                           ;Rover_Main_Ver01.c: 671:     if(PIR3bits.RCIF == 1){
 12456     0006  002E               	movlb	14	; select bank14
 12457     0007  1E8F               	btfss	15,5	;volatile
 12458     0008  280A               	goto	u487_21
 12459     0009  280B               	goto	u487_20
 12460     000A                     u487_21:
 12461     000A  2827               	goto	i1l4112
 12462     000B                     u487_20:
 12463     000B                     i1l4104:
 12464                           
 12465                           ;Rover_Main_Ver01.c: 673:         if(counter<26){
 12466     000B  0022               	movlb	2	; select bank2
 12467     000C  085F               	movf	(_counter+1)^(0+256),w
 12468     000D  3A80               	xorlw	128
 12469     000E  00F0               	movwf	??_ISR
 12470     000F  3080               	movlw	128
 12471     0010  0270               	subwf	??_ISR,w
 12472     0011  1D03               	skipz
 12473     0012  2815               	goto	u488_25
 12474     0013  301A               	movlw	26
 12475     0014  025E               	subwf	_counter^(0+256),w
 12476     0015                     u488_25:
 12477     0015  1803               	skipnc
 12478     0016  2818               	goto	u488_21
 12479     0017  2819               	goto	u488_20
 12480     0018                     u488_21:
 12481     0018  2825               	goto	i1l4110
 12482     0019                     u488_20:
 12483     0019                     i1l4106:
 12484                           
 12485                           ;Rover_Main_Ver01.c: 674:             arr[counter] = RC1REG;
 12486     0019  0022               	movlb	2	; select bank2
 12487     001A  085E               	movf	_counter^(0+256),w
 12488     001B  3EA0               	addlw	(low (_arr| (0+256)))& (0+255)
 12489     001C  0086               	movwf	6
 12490     001D  3001               	movlw	1	; select bank3/4
 12491     001E  0087               	movwf	7
 12492     001F  0819               	movf	25,w	;volatile
 12493     0020  0081               	movwf	1
 12494     0021                     i1l4108:
 12495                           
 12496                           ;Rover_Main_Ver01.c: 675:             counter++;
 12497     0021  3001               	movlw	1
 12498     0022  07DE               	addwf	_counter^(0+256),f
 12499     0023  3000               	movlw	0
 12500     0024  3DDF               	addwfc	(_counter+1)^(0+256),f
 12501     0025                     i1l4110:
 12502                           
 12503                           ;Rover_Main_Ver01.c: 678:         PIR3bits.RCIF = 0;
 12504     0025  002E               	movlb	14	; select bank14
 12505     0026  128F               	bcf	15,5	;volatile
 12506     0027                     i1l4112:
 12507                           
 12508                           ;Rover_Main_Ver01.c: 680:     PIR3bits.TXIF = 0;
 12509     0027  120F               	bcf	15,4	;volatile
 12510     0028                     i1l462:
 12511     0028  107E               	bcf	int$flags,0	;clear compiler interrupt flag (level 1)
 12512     0029  0009               	retfie
 12513     002A                     __end_of_ISR:
 12514     0002                     ___latbits      equ	2
 12515     007E                     btemp           set	126	;btemp
 12516     007E                     int$flags       set	126
 12517     007E                     wtemp0          set	126
 12518                           
 12519                           	psect	config
 12520                           
 12521                           ;Config register CONFIG1 @ 0x8007
 12522                           ;	External Oscillator mode selection bits
 12523                           ;	FEXTOSC = OFF, Oscillator not enabled
 12524                           ;	Power-up default value for COSC bits
 12525                           ;	RSTOSC = HFINT32, HFINTOSC with OSCFRQ= 32 MHz and CDIV = 1:1
 12526                           ;	Clock Out Enable bit
 12527                           ;	CLKOUTEN = OFF, CLKOUT function is disabled; i/o or oscillator function on OSC2
 12528                           ;	Clock Switch Enable bit
 12529                           ;	CSWEN = ON, Writing to NOSC and NDIV is allowed
 12530                           ;	Fail-Safe Clock Monitor Enable bit
 12531                           ;	FCMEN = ON, FSCM timer enabled
 12532     8007                     	org	32775
 12533     8007  3F8C               	dw	16268
 12534                           
 12535                           ;Config register CONFIG2 @ 0x8008
 12536                           ;	Master Clear Enable bit
 12537                           ;	MCLRE = ON, MCLR pin is Master Clear function
 12538                           ;	Power-up Timer Enable bit
 12539                           ;	PWRTE = OFF, PWRT disabled
 12540                           ;	Low-Power BOR enable bit
 12541                           ;	LPBOREN = OFF, ULPBOR disabled
 12542                           ;	Brown-out reset enable bits
 12543                           ;	BOREN = ON, Brown-out Reset Enabled, SBOREN bit is ignored
 12544                           ;	Brown-out Reset Voltage Selection
 12545                           ;	BORV = LO, Brown-out Reset Voltage (VBOR) set to 1.9V on LF, and 2.45V on F Devices
 12546                           ;	Zero-cross detect disable
 12547                           ;	ZCD = OFF, Zero-cross detect circuit is disabled at POR.
 12548                           ;	Peripheral Pin Select one-way control
 12549                           ;	PPS1WAY = ON, The PPSLOCK bit can be cleared and set only once in software
 12550                           ;	Stack Overflow/Underflow Reset Enable bit
 12551                           ;	STVREN = ON, Stack Overflow or Underflow will cause a reset
 12552                           ;	Background Debugger
 12553                           ;	DEBUG = 0x1, unprogrammed default
 12554     8008                     	org	32776
 12555     8008  3FFF               	dw	16383
 12556                           
 12557                           ;Config register CONFIG3 @ 0x8009
 12558                           ;	WDT Period Select bits
 12559                           ;	WDTCPS = WDTCPS_31, Divider ratio 1:65536; software control of WDTPS
 12560                           ;	WDT operating mode
 12561                           ;	WDTE = OFF, WDT Disabled, SWDTEN is ignored
 12562                           ;	WDT Window Select bits
 12563                           ;	WDTCWS = WDTCWS_7, window always open (100%); software control; keyed access not requi
      +                          red
 12564                           ;	WDT input clock selector
 12565                           ;	WDTCCS = SC, Software Control
 12566     8009                     	org	32777
 12567     8009  3F9F               	dw	16287
 12568                           
 12569                           ;Config register CONFIG4 @ 0x800A
 12570                           ;	UserNVM self-write protection bits
 12571                           ;	WRT = OFF, Write protection off
 12572                           ;	Scanner Enable bit
 12573                           ;	SCANE = available, Scanner module is available for use
 12574                           ;	Low Voltage Programming Enable bit
 12575                           ;	LVP = ON, Low Voltage programming enabled. MCLR/Vpp pin function is MCLR.
 12576     800A                     	org	32778
 12577     800A  3FFF               	dw	16383
 12578                           
 12579                           ;Config register CONFIG5 @ 0x800B
 12580                           ;	UserNVM Program memory code protection bit
 12581                           ;	CP = OFF, Program Memory code protection disabled
 12582                           ;	DataNVM code protection bit
 12583                           ;	CPD = OFF, Data EEPROM code protection disabled
 12584     800B                     	org	32779
 12585     800B  3FFF               	dw	16383

Data Sizes:
    Strings     0
    Constant    52
    Data        122
    BSS         85
    Persistent  32
    Stack       0

Auto Spaces:
    Space          Size  Autos    Used
    COMMON           14     12      13
    BANK0            80     80      80
    BANK1            80     72      80
    BANK2            80     44      80
    BANK3            80      0      74
    BANK4            80      0      72
    BANK5            80      0      16
    BANK6            80      0       0
    BANK7            80      0       0
    BANK8            80      0       0
    BANK9            80      0       0
    BANK10           80      0       0
    BANK11           80      0       0
    BANK12           48      0       0

Pointer List with Targets:

    HAL_I2C_Master_Transmit@dataByte	PTR unsigned char  size(1) Largest target is 1
		 -> HAL_Backlight_Off@byte(COMMON[1]), HAL_Backlight_On@byte(COMMON[1]), HAL_Pulse_Enable@byte(COMMON[1]), HAL_Write_Init_Nibble@byte(COMMON[1]), 
		 -> _write_byte@byte(COMMON[1]), 

    UART_SendBuffer@buffer	PTR const unsigned char  size(1) Largest target is 10
		 -> Flysky@message(COMMON[6]), MotorSettings@message(BANK1[10]), PCU_Info@message(COMMON[6]), Shield_Code@message(COMMON[6]), 


Critical Paths under _main in COMMON

    _vectorCalculations->___xxtofl
    _sqrtf->___xxtofl
    _atanf->___fpclassifyf
    _atanf->___xxtofl
    ___fladd->___xxtofl
    ___fldiv->___xxtofl
    ___xxtofl->___wmul
    ___fltol->___xxtofl
    _mergeVariables->___awdiv
    _initialize_all->_initinit
    _init_LCD->_HAL_Set_Entry_Mode
    _HAL_Set_Entry_Mode->_HAL_Write_Command
    _HAL_Display_On->_HAL_Write_Command
    _HAL_Clear->_HAL_Write_Command
    _HAL_Write_Command->__write_byte
    __write_byte->_HAL_Pulse_Enable
    _HAL_Write_Init_Nibble->_HAL_Pulse_Enable
    _HAL_Pulse_Enable->_HAL_I2C_Master_Transmit
    _HAL_I2C_Master_Transmit->_I2C_write
    _Flysky->_UART_SendBuffer
    _UART_SendBuffer->_UART_sendData

Critical Paths under _ISR in COMMON

    None.

Critical Paths under _main in BANK0

    _vectorCalculations->___fltol
    _sqrtf->___xxtofl
    _atanf->___flmul
    ___flsub->___fladd
    ___fladd->_sqrtf
    ___flmul->___fladd
    ___fldiv->___flmul
    ___fltol->___fladd
    _MotorSettings->___fltol
    _init_LCD->_HAL_Set_Entry_Mode

Critical Paths under _ISR in BANK0

    None.

Critical Paths under _main in BANK1

    _main->_vectorCalculations
    _vectorCalculations->_atanf
    _atanf->___fldiv
    ___fldiv->___flmul

Critical Paths under _ISR in BANK1

    None.

Critical Paths under _main in BANK2

    _vectorCalculations->_atanf

Critical Paths under _ISR in BANK2

    None.

Critical Paths under _main in BANK3

    None.

Critical Paths under _ISR in BANK3

    None.

Critical Paths under _main in BANK4

    None.

Critical Paths under _ISR in BANK4

    None.

Critical Paths under _main in BANK5

    None.

Critical Paths under _ISR in BANK5

    None.

Critical Paths under _main in BANK6

    None.

Critical Paths under _ISR in BANK6

    None.

Critical Paths under _main in BANK7

    None.

Critical Paths under _ISR in BANK7

    None.

Critical Paths under _main in BANK8

    None.

Critical Paths under _ISR in BANK8

    None.

Critical Paths under _main in BANK9

    None.

Critical Paths under _ISR in BANK9

    None.

Critical Paths under _main in BANK10

    None.

Critical Paths under _ISR in BANK10

    None.

Critical Paths under _main in BANK11

    None.

Critical Paths under _ISR in BANK11

    None.

Critical Paths under _main in BANK12

    None.

Critical Paths under _ISR in BANK12

    None.

Call Graph Tables:

 ---------------------------------------------------------------------------------
 (Depth) Function   	        Calls       Base Space   Used Autos Params    Refs
 ---------------------------------------------------------------------------------
 (0) _main                                                 2     2      0   22885
                                             42 BANK2      2     2      0
                             _Flysky
                     _initialize_all
                     _mergeVariables
                 _vectorCalculations
 ---------------------------------------------------------------------------------
 (1) _vectorCalculations                                  19    19      0   16449
                                             54 BANK1     18    18      0
                        _HAL_LED_OFF
                         _HAL_LED_ON
                      _MotorSettings
                            ___fladd
                            ___fldiv
                             ___flge
                            ___flmul
                            ___fltol
                             ___wmul
                           ___xxtofl
                              _atanf
                              _sqrtf
 ---------------------------------------------------------------------------------
 (2) _sqrtf                                               44    40      4     730
                                             10 BANK0     40    36      4
                             ___wmul (ARG)
                           ___xxtofl (ARG)
 ---------------------------------------------------------------------------------
 (2) _atanf                                               52    48      4    8354
                                             44 BANK1     10     6      4
                                              0 BANK2     42    42      0
                            ___fladd
                            ___fldiv
                            ___flmul
                            ___flneg
                            ___flsub
                      ___fpclassifyf
                           ___xxtofl (ARG)
                              _fabsf
 ---------------------------------------------------------------------------------
 (3) _fabsf                                                8     4      4      48
                                              1 COMMON     8     4      4
 ---------------------------------------------------------------------------------
 (3) ___fpclassifyf                                       16    12      4     136
                                              1 COMMON    10     6      4
                                              0 BANK0      6     6      0
 ---------------------------------------------------------------------------------
 (3) ___flsub                                              8     0      8    2097
                                              0 BANK1      8     0      8
                            ___fladd
 ---------------------------------------------------------------------------------
 (4) ___fladd                                             20    12      8    2044
                                             50 BANK0     20    12      8
                          __Umul8_16 (ARG)
                             ___wmul (ARG)
                           ___xxtofl (ARG)
                              _sqrtf (ARG)
 ---------------------------------------------------------------------------------
 (3) ___flneg                                              4     0      4      47
                                              1 COMMON     4     0      4
 ---------------------------------------------------------------------------------
 (3) ___flmul                                             26    18      8    1655
                                             70 BANK0      8     0      8
                                              0 BANK1     18    18      0
                          __Umul8_16
                            ___fladd (ARG)
 ---------------------------------------------------------------------------------
 (4) __Umul8_16                                            9     7      2     139
                                              1 COMMON     9     7      2
 ---------------------------------------------------------------------------------
 (3) ___fldiv                                             26    18      8    1133
                                             18 BANK1     26    18      8
                            ___fladd (ARG)
                            ___flmul (ARG)
                           ___xxtofl (ARG)
 ---------------------------------------------------------------------------------
 (2) ___xxtofl                                            14    10      4     341
                                              7 COMMON     4     0      4
                                              0 BANK0     10    10      0
                             ___wmul (ARG)
 ---------------------------------------------------------------------------------
 (2) ___wmul                                               6     2      4      96
                                              1 COMMON     6     2      4
 ---------------------------------------------------------------------------------
 (2) ___fltol                                             10     6      4     364
                                             70 BANK0     10     6      4
                            ___fladd (ARG)
                             ___wmul (ARG)
                           ___xxtofl (ARG)
                              _sqrtf (ARG)
 ---------------------------------------------------------------------------------
 (2) ___flge                                              12     4      8     302
                                              1 COMMON     8     0      8
                                              0 BANK0      4     4      0
 ---------------------------------------------------------------------------------
 (2) _MotorSettings                                       14    11      3     504
                                              0 BANK1     14    11      3
                    _UART_SendBuffer
                            ___fltol (ARG)
 ---------------------------------------------------------------------------------
 (2) _HAL_LED_ON                                           2     0      2      26
                                              1 COMMON     2     0      2
 ---------------------------------------------------------------------------------
 (1) _mergeVariables                                       5     5      0     310
                                              0 BANK0      5     5      0
                            ___awdiv
 ---------------------------------------------------------------------------------
 (2) ___awdiv                                              8     4      4     310
                                              1 COMMON     8     4      4
 ---------------------------------------------------------------------------------
 (1) _initialize_all                                       0     0      0    5855
                        _HAL_LED_OFF
                          _configI2C
                          _configISR
                         _configPins
                        _configUART1
                           _init_LCD
                           _initinit
 ---------------------------------------------------------------------------------
 (2) _initinit                                             1     1      0    3251
                                             11 COMMON     1     1      0
              _HAL_Write_Init_Nibble
                           _init_LCD
 ---------------------------------------------------------------------------------
 (3) _init_LCD                                             0     0      0    2574
                          _HAL_Clear
                     _HAL_Display_On
                 _HAL_Set_Entry_Mode
 ---------------------------------------------------------------------------------
 (4) _HAL_Set_Entry_Mode                                   6     2      4     930
                                              9 COMMON     2     2      0
                                              0 BANK0      4     0      4
                  _HAL_Write_Command
 ---------------------------------------------------------------------------------
 (4) _HAL_Display_On                                       0     0      0     822
                  _HAL_Write_Command
 ---------------------------------------------------------------------------------
 (4) _HAL_Clear                                            1     1      0     822
                                              9 COMMON     1     1      0
                  _HAL_Write_Command
 ---------------------------------------------------------------------------------
 (5) _HAL_Write_Command                                    2     2      0     822
                                              7 COMMON     2     2      0
                        __write_byte
 ---------------------------------------------------------------------------------
 (6) __write_byte                                          1     1      0     681
                                              6 COMMON     1     1      0
            _HAL_I2C_Master_Transmit
                   _HAL_Pulse_Enable
 ---------------------------------------------------------------------------------
 (3) _HAL_Write_Init_Nibble                                4     4      0     677
                                              6 COMMON     4     4      0
            _HAL_I2C_Master_Transmit
                   _HAL_Pulse_Enable
 ---------------------------------------------------------------------------------
 (7) _HAL_Pulse_Enable                                     1     1      0     367
                                              5 COMMON     1     1      0
            _HAL_I2C_Master_Transmit
 ---------------------------------------------------------------------------------
 (8) _HAL_I2C_Master_Transmit                              3     1      2     161
                                              2 COMMON     3     1      2
                          _I2C_start
                           _I2C_stop
                          _I2C_write
 ---------------------------------------------------------------------------------
 (9) _I2C_write                                            1     1      0      47
                                              1 COMMON     1     1      0
 ---------------------------------------------------------------------------------
 (9) _I2C_stop                                             0     0      0       0
 ---------------------------------------------------------------------------------
 (9) _I2C_start                                            0     0      0       0
 ---------------------------------------------------------------------------------
 (2) _configUART1                                          0     0      0       0
 ---------------------------------------------------------------------------------
 (2) _configPins                                           0     0      0       0
 ---------------------------------------------------------------------------------
 (2) _configISR                                            0     0      0       0
 ---------------------------------------------------------------------------------
 (2) _configI2C                                            0     0      0       0
 ---------------------------------------------------------------------------------
 (2) _HAL_LED_OFF                                          2     0      2      30
                                              1 COMMON     2     0      2
 ---------------------------------------------------------------------------------
 (1) _Flysky                                               6     6      0     271
                                              5 COMMON     6     6      0
                    _UART_SendBuffer
 ---------------------------------------------------------------------------------
 (3) _UART_SendBuffer                                      3     1      2     127
                                              2 COMMON     3     1      2
                      _UART_sendData
 ---------------------------------------------------------------------------------
 (4) _UART_sendData                                        1     1      0      29
                                              1 COMMON     1     1      0
 ---------------------------------------------------------------------------------
 Estimated maximum stack depth 9
 ---------------------------------------------------------------------------------
 (Depth) Function   	        Calls       Base Space   Used Autos Params    Refs
 ---------------------------------------------------------------------------------
 (10) _ISR                                                 1     1      0       0
                                              0 COMMON     1     1      0
 ---------------------------------------------------------------------------------
 Estimated maximum stack depth 10
 ---------------------------------------------------------------------------------

 Call Graph Graphs:

 _main (ROOT)
   _Flysky
     _UART_SendBuffer
       _UART_sendData
   _initialize_all
     _HAL_LED_OFF
     _configI2C
     _configISR
     _configPins
     _configUART1
     _init_LCD
       _HAL_Clear
         _HAL_Write_Command
           __write_byte
             _HAL_I2C_Master_Transmit
               _I2C_start
               _I2C_stop
               _I2C_write
             _HAL_Pulse_Enable
               _HAL_I2C_Master_Transmit
       _HAL_Display_On
         _HAL_Write_Command
       _HAL_Set_Entry_Mode
         _HAL_Write_Command
     _initinit
       _HAL_Write_Init_Nibble
         _HAL_I2C_Master_Transmit
         _HAL_Pulse_Enable
       _init_LCD
   _mergeVariables
     ___awdiv
   _vectorCalculations
     _HAL_LED_OFF
     _HAL_LED_ON
     _MotorSettings
       _UART_SendBuffer
       ___fltol (ARG)
         ___fladd (ARG)
           __Umul8_16 (ARG)
           ___wmul (ARG)
           ___xxtofl (ARG)
             ___wmul (ARG)
           _sqrtf (ARG)
             ___wmul (ARG)
             ___xxtofl (ARG)
         ___wmul (ARG)
         ___xxtofl (ARG)
         _sqrtf (ARG)
     ___fladd
     ___fldiv
       ___fladd (ARG)
       ___flmul (ARG)
         __Umul8_16
         ___fladd (ARG)
       ___xxtofl (ARG)
     ___flge
     ___flmul
     ___fltol
     ___wmul
     ___xxtofl
     _atanf
       ___fladd
       ___fldiv
       ___flmul
       ___flneg
       ___flsub
         ___fladd
       ___fpclassifyf
       ___xxtofl (ARG)
       _fabsf (ARG)
     _sqrtf

 _ISR (ROOT)

Address spaces:
Name               Size   Autos  Total    Usage
BITCOMMON           14      0       0      0.0%
BITBANK0            80      0       0      0.0%
BITBANK1            80      0       0      0.0%
BITBANK2            80      0       0      0.0%
BITBANK3            80      0       0      0.0%
BITBANK4            80      0       0      0.0%
BITBANK5            80      0       0      0.0%
BITBANK6            80      0       0      0.0%
BITBANK7            80      0       0      0.0%
BITBANK8            80      0       0      0.0%
BITBANK9            80      0       0      0.0%
BITBANK10           80      0       0      0.0%
BITBANK11           80      0       0      0.0%
BITBANK12           48      0       0      0.0%
BIGRAM            1008      0       0      0.0%
COMMON              14     12      13     92.9%
BANK0               80     80      80    100.0%
BANK1               80     72      80    100.0%
BANK2               80     44      80    100.0%
BANK3               80      0      74     92.5%
BANK4               80      0      72     90.0%
BANK5               80      0      16     20.0%
BANK6               80      0       0      0.0%
BANK7               80      0       0      0.0%
BANK8               80      0       0      0.0%
BANK9               80      0       0      0.0%
BANK10              80      0       0      0.0%
BANK11              80      0       0      0.0%
BANK12              48      0       0      0.0%
STACK                0      0       0      0.0%
DATA                 0      0     414      0.0%


Microchip Technology PIC Macro Assembler V3.00 build 20241204225717 
Symbol Table                                                                                   Tue Apr 01 16:42:46 2025

                            ___fldiv@aexp 00CB                              ___fldiv@bexp 00CA  
                            ___fldiv@sign 00C3                                        l90 1009  
                                      l83 1B95                                        l92 1013  
                                      l86 1B99                                        l89 100A  
                                      l99 1B9C                              ___awdiv@sign 0076  
                                      _bf 0169                       ___wmul@multiplicand 0073  
                     __Umul8_16@word_mpld 0077                                       l102 1BA0  
                                     l111 1C64                                       l105 1BB3  
                                     l121 1CA0                                       l114 1BF4  
                                     l108 1C19                                       l117 1D21  
                                     l133 080E                                       l302 1C30  
                                     l310 101E                                       l311 1034  
                                     l320 1D00                                       l306 1015  
                                     l315 1CE1                                       l323 1DD7  
                                     l148 1B86                                       l156 1C48  
                                     l308 1018                                       l317 1CE4  
                                     l173 1C06                                       l341 1249  
                                     l309 101B                                       l318 1CE7  
                                     l319 1CEA                                       l344 1BD0  
                                     l176 1D91                                       l353 1C81  
                                     l290 1BA5                                       l434 1E68  
                                     l362 017E                                       l284 1BE2  
                                     l293 1BA9                                       l614 1CAB  
                                     l287 1B81                                       l800 10BF  
                                     l616 1CBF                                       l387 07CB  
                                     l804 1BBE                                       l815 1F6B  
                                     l808 1F80                                       l921 16A3  
                                     l818 1F80                                       l915 164A  
                                     l940 177C                                       l767 1F11  
                                     l919 16C9                                       l792 1052  
                                     l936 175A                                       l928 17FF  
                                     l961 1D57                                       l946 179F  
                                     l795 10A6                                       l971 1299  
                                     l973 13ED                                       l957 17F2  
                                     l949 17D2                                       l958 17FF  
                                     l992 13BD                                       l993 13D7  
                                     l995 13E2                                       l987 1373  
                                     _LCD 014C                                       _ISR 0004  
                                     _aT0 1830                                       _aT1 182C  
                                     _aT2 1828                                       _aT3 1824  
                                     _aT4 1820                                       _arr 01A0  
                 _vectorCalculations$1911 00DA                   _vectorCalculations$1912 00DE  
                 _vectorCalculations$1913 00E2                                       wreg 0009  
               ??_HAL_I2C_Master_Transmit 0074                              ?__write_byte 0070  
                            ___flmul@aexp 00AA                              ___flmul@bexp 00AB  
                            ___flmul@sign 00A5                              ___flmul@temp 00B0  
                            ___flmul@prod 00AC                              _BAUD1CONbits 011F  
                                    ?_ISR 0070                              ___fltol@exp1 006F  
                                    l1011 0A8F                                      l1101 0CF2  
                                    l1030 07DE                                      l1023 0A7E  
                                    l1103 0BE5                                      l1032 07EE  
                                    l1017 0A06                                      l1122 1FFF  
                                    l1106 0CD2                                      l1141 14D6  
                                    l1134 142F                                      l1055 10E3  
                                    l1056 10F4                                      l3000 1277  
                                    l1128 0830                                      l1057 1164  
                                    l1145 150E                                      l1137 15F3  
                                    l3010 128E                                      l3002 127B  
                                    l1139 1468                                      l1068 1130  
                                    l3100 13CB                                      l3020 12AF  
                                    l3012 128F                                      l3004 127C  
                                    l1148 1585                                      l1069 113C  
                                    l1093 0FFF                                      l3110 13E0  
                                    l3102 13CE                                      l3030 12C6  
                                    l3006 1281                                      l3014 1291  
                                    l3104 13D6                                      l3040 12F0  
                                    l3032 12D6                                      l3016 12A1  
                                    l3024 12B8                                      l3008 1286  
                                    l3200 09C3                                      l3120 083A  
                                    l3106 13DA                                      l3042 12F5  
                                    l3050 130F                                      l3034 12DE  
                                    l3026 12BD                                      l3018 12AD  
                                    l3210 09E2                                      l3202 09CF  
                                    l3130 0855                                      l3122 083F  
                                    l1099 0B3F                                      l3108 13DE  
                                    l3060 1332                                      l3052 1321  
                                    l3044 1303                                      l3036 12E6  
                                    l3220 0A03                                      l3204 09D6  
                                    l3212 09E6                                      l3140 086E  
                                    l3132 0858                                      l3124 0841  
                                    l3116 0831                                      l3310 1BD9  
                                    l3070 1348                                      l3062 133A  
                                    l3054 1322                                      l3046 1307  
                                    l3038 12EE                                      l3230 0A1A  
                                    l3214 09EA                                      l3206 09DA  
                                    l3150 0887                                      l3142 0870  
                                    l3134 0861                                      l3126 0847  
                                    l3118 0836                                      l3320 1BDF  
                                    l3312 1BDB                                      l3080 135C  
                                    l3072 134F                                      l3064 133C  
                                    l3056 132A                                      l3048 1308  
                                    l3240 0A5B                                      l3232 0A32  
                                    l3224 0A0B                                      l3216 09EB  
                                    l3208 09DB                                      l3160 08A5  
                                    l3152 0890                                      l3144 0876  
                                    l3136 0865                                      l3128 084C  
                                    l3400 14A4                                      l3322 1BE0  
                                    l3314 1BDC                                      l3306 1BD1  
                                    l3090 1383                                      l3082 1370  
                                    l3066 1343                                      l3074 1353  
                                    l3058 132C                                      l3250 0A76  
                                    l3242 0A64                                      l3226 0A10  
                                    l3234 0A36                                      l3218 09EF  
                                    l3170 08FD                                      l3162 08B1  
                                    l3154 0896                                      l3146 087B  
                                    l3138 0869                                      l3410 1506  
                                    l3402 14AD                                      l3324 1BE1  
                                    l3316 1BDD                                      l3308 1BD8  
                                    l3332 1021                                      l4300 1035  
                                    l3500 1CB0                                      l3092 1387  
                                    l3076 1357                                      l3068 1347  
                                    l3252 0A80                                      l3244 0A66  
                                    l3236 0A43                                      l3228 0A16  
                                    l3180 0931                                      l3172 090A  
                                    l3164 08BE                                      l3156 089B  
                                    l3148 0884                                      l3260 1FAE  
                                    l3420 159C                                      l3412 1537  
                                    l3404 14BA                                      l3342 1CED  
                                    l3326 1B7D                                      l3350 1DC7  
                                    l3318 1BDE                                      l4222 1B93  
                                    l4230 1B9A                                      l3510 1EB8  
                                    l4310 108A                                      l4302 104A  
                                    l3502 1CB5                                      l3094 139F  
                                    l3086 1378                                      l3078 1358  
                                    l3246 0A71                                      l3238 0A4D  
                                    l3190 0971                                      l3182 093D  
                                    l3174 0917                                      l3166 08D7  
                                    l3262 1FB4                                      l3270 1FD5  
                                    l3430 0A90                                      l3422 15A4  
                                    l3414 1561                                      l3406 14BE  
                                    l3352 1DD0                                      l4224 1001  
                                    l4232 1C08                                      l4240 1C4A  
                                    l3520 1ECC                                      l3512 1EBC  
                                    l3328 1014                                      l3360 1C71  
                                    l4312 108E                                      l4304 1066  
                                    l4320 1F12                                      l3504 1CBB  
                                    l3088 137D                                      l3096 13A3  
                                    l3248 0A75                                      l3192 097D  
                                    l3184 0944                                      l3176 091E  
                                    l3168 08E4                                      l2800 1668  
                                    l3272 1FDB                                      l3264 1FCB  
                                    l3256 1F81                                      l3280 080F  
                                    l3440 0B02                                      l3432 0AAF  
                                    l3424 15B8                                      l3416 158D  
                                    l3408 1502                                      l4400 0125  
                                    l3338 1CE0                                      l3354 1DD3  
                                    l4226 1004                                      l4234 1C0B  
                                    l4242 1C4F                                      l4250 1BF0  
                                    l3530 1EDE                                      l3522 1ECE  
                                    l3514 1EC1                                      l3370 1C7A  
                                    l3362 1C72                                      l4314 10BC  
                                    l4306 106E                                      l4330 1F37  
                                    l4322 1F1C                                      l3610 10C7  
                                    l3098 13B0                                      l3194 0990  
                                    l3186 0957                                      l3178 092A  
                                    l2810 1672                                      l2802 166A  
                                    l3266 1FD0                                      l3258 1F99  
                                    l3450 0B35                                      l3442 0B07  
                                    l3434 0AB7                                      l3426 15D4  
                                    l3418 1594                                      l4410 0159  
                                    l4402 012D                                      l2732 1BA2  
                                    l3284 1BAA                                      l3356 1DD5  
                                    l3348 1D92                                      l4228 100F  
                                    l4236 1C0F                                      l4244 1C57  
                                    l4252 1C83                                      l4260 0807  
                                    l4500 1E43                                      l3540 1EF8  
                                    l3532 1EE0                                      l3524 1ED0  
                                    l3516 1EC3                                      l3508 1EB7  
                                    l3364 1C74                                      l4316 10BE  
                                    l4308 1072                                      l4332 1F3F  
                                    l3620 10F7                                      l3612 10CB  
                                    l3196 09A5                                      l3188 095E  
                                    l2820 16B1                                      l2804 166C  
                                    l2812 1674                                      l2740 15FE  
                                    l3276 1FFB                                      l3460 0B6A  
                                    l3444 0B17                                      l3436 0AC9  
                                    l3380 1427                                      l3372 13EE  
                                    l4420 01CE                                      l4412 0166  
                                    l4404 0134                                      l3286 1BAE  
                                    l4238 1C16                                      l4246 1BE4  
                                    l4254 1C93                                      l4262 1B82  
                                    l4270 1C3D                                      l4510 1E5E  
                                    l4502 1E46                                      l3542 1EFD  
                                    l3534 1EE4                                      l3526 1ED6  
                                    l3518 1EC7                                      l3366 1C76  
                                    l3358 1C67                                      l4350 1F62  
                                    l4342 1F4D                                      l4334 1F41  
                                    l4326 1F25                                      l3630 1126  
                                    l3622 1100                                      l3614 10DB  
                                    l3198 09BC                                      l2910 17D0  
                                    l2902 17A4                                      l2822 16B3  
                                    l2830 16C2                                      l2814 1675  
                                    l2806 166E                                      l2750 1612  
                                    l2742 15FF                                      l2734 15F4  
                                    l3470 0C59                                      l3462 0B6C  
                                    l3454 0B43                                      l3438 0ACA  
                                    l3374 13F7                                      l4430 02A3  
                                    l4422 01E5                                      l4414 0172  
                                    l4406 0141                                      l3288 1BB2  
                                    l4280 1D1D                                      l4248 1BE8  
                                    l4256 1C99                                      l4272 1C43  
                                    l4264 1C31                                      l4512 1E65  
                                    l4504 1E49                                      l3536 1EF3  
                                    l3528 1ED9                                      l3544 1F03  
                                    l3368 1C78                                      l4352 1F70  
                                    l4336 1F45                                      l4344 1F5B  
                                    l4328 1F36                                      l3640 1157  
                                    l3632 112A                                      l3624 1107  
                                    l3616 10EB                                      l3608 10C2  
                                    l2920 17EA                                      l2912 17D7  
                                    l2904 17A9                                      l2840 16E3  
                                    l2832 16CD                                      l2824 16B7  
                                    l2816 168C                                      l2808 1670  
                                    l2760 1626                                      l2744 1604  
                                    l2752 1614                                      l2736 15F8  
                                    l3480 0EFA                                      l3472 0CD5  
                                    l3464 0BE8                                      l3456 0B58  
                                    l3448 0B2C                                      l3392 146C  
                                    l3376 140E                                      l3384 1438  
                                    l4440 0379                                      l4432 030F  
                                    l4424 01EC                                      l4416 0182  
                                    l4408 014D                                      l4258 0803  
                                    l4274 1C44                                      l4266 1C35  
                                    l4282 1BF5                                      l4290 1D63  
                                    l4514 1E67                                      l4506 1E50  
                                    l3546 1F08                                      l3538 1EF7  
                                    l4354 1F75                                      l3642 115B  
                                    l3634 1134                                      l3626 1116  
                                    l2930 07CD                                      l2922 17EE  
                                    l2914 17DC                                      l2906 17AF  
                                    l2850 16FB                                      l2842 16E7  
                                    l2834 16D2                                      l2826 16B8  
                                    l2818 16A7                                      l2770 1637  
                                    l2762 1628                                      l2754 161C  
                                    l2746 1609                                      l2738 15FA  
                                    l3482 0F49                                      l3474 0E83  
                                    l3458 0B61                                      l3466 0C4D  
                                    l3386 144A                                      l3378 1423  
                                    l4450 04DF                                      l4442 03F9  
                                    l4426 0204                                      l4434 032E  
                                    l4418 01BA                                      l4276 1D02  
                                    l4268 1C3C                                      l4292 1D6E  
                                    l4508 1E57                                      l3548 1F0D  
                                    l3644 115C                                      l3636 113E  
                                    l3628 111D                                      l2940 07EA  
                                    l2932 07CF                                      l2924 17F0  
                                    l2916 17E4                                      l2908 17B3  
                                    l2860 1741                                      l2852 16FC  
                                    l2844 16EB                                      l2828 16C0  
                                    l2780 1654                                      l2772 163F  
                                    l2764 162C                                      l2756 161F  
                                    l2748 1611                                      l3484 0F8B  
                                    l3476 0E87                                      l3468 0C56  
                                    l3388 145F                                      l3396 1483  
                                    l4460 05A9                                      l4452 04F3  
                                    l4444 041A                                      l4436 035A  
                                    l4428 0284                                      l4380 0076  
                                    l4620 1E7A                                      l4278 1D15  
                                    l4294 1D76                                      l4286 1D58  
                                    l3494 1CA1                                      l3638 1152  
                                    l2934 07D6                                      l2926 17FA  
                                    l2918 17E9                                      l2870 1762  
                                    l2862 1743                                      l2854 1704  
                                    l2846 16F5                                      l2838 16DB  
                                    l2790 165E                                      l2782 1656  
                                    l2774 1640                                      l2766 162D  
                                    l2758 1625                                      l3486 0FF9  
                                    l3398 149C                                      l4470 0686  
                                    l4462 05C8                                      l4454 050A  
                                    l4446 0486                                      l4438 0361  
                                    l4390 00F6                                      l4382 00DA  
                                    l4702 1E8C                                      l4630 1E86  
                                    l4622 1E7D                                      l4614 1E69  
                                    l2960 1C2A                                      l2952 1C1A  
                                    l4296 1D82                                      l4288 1D5F  
                                    l4480 1E20                                      l3760 1165  
                                    l4704 1026                                      l3496 1CA3  
                                    l2936 07DA                                      l2928 17FE  
                                    l2880 177B                                      l2872 1767  
                                    l2864 1746                                      l2848 16F7  
                                    l2856 1707                                      l2792 1660  
                                    l2784 1658                                      l2768 1632  
                                    l2776 1642                                      l4472 069E  
                                    l4464 0634                                      l4456 0511  
                                    l4448 04A7                                      l4392 0104  
                                    l4384 00E1                                      l4632 1E9D  
                                    l4624 1E80                                      l4616 1E6C  
                                    l2954 1C1C                                      l4706 1CF2  
                                    l4298 1D86                                      l4490 1E33  
                                    l4482 1E25                                      l3770 1236  
                                    l3762 11ED                                      l3498 1CA7  
                                    l2938 07E5                                      l2962 1BB4  
                                    l2882 1780                                      l2890 178D  
                                    l2866 174B                                      l2858 171D  
                                    l2794 1662                                      l2786 165A  
                                    l2778 1650                                      l2970 1D22  
                                    l4474 071E                                      l4458 0529  
                                    l4466 0653                                      l4394 010E  
                                    l4386 00E8                                      l4634 1EA4  
                                    l4626 1E83                                      l4618 1E6E  
                                    l2956 1C24                                      l3772 1BBF  
                                    l4492 1E37                                      l4484 1E27  
                                    l3764 11FD                                      l2980 1250  
                                    l2964 1BBC                                      l2884 1784  
                                    l2876 1770                                      l2868 1752  
                                    l2892 1791                                      l2796 1664  
                                    l2788 165C                                      l2972 1D25  
                                    l4476 073F                                      l4468 067F  
                                    l4396 0115                                      l4388 00EF  
                                    l4636 1EAB                                      l2958 1C28  
                                    l3774 1BC7                                      l4494 1E3A  
                                    l4486 1E2B                                      l3766 1210  
                                    l2990 1267                                      l2982 1254  
                                    l2966 1BBE                                      l2894 1792  
                                    l2886 1786                                      l2878 1777  
                                    l2798 1666                                      l4478 07AB  
                                    l4398 011B                                      l3776 1BC9  
                                    l4496 1E3D                                      l4488 1E2F  
                                    l3768 1223                                      l2992 1268  
                                    l2984 1255                                      l2976 124A  
                                    l2896 1796                                      l2888 178B  
                                    l4498 1E40                                      l2986 125A  
                                    l2994 126A                                      l2978 124E  
                                    l2898 179C                                      l2996 1272  
                                    l2988 125F                                      l2998 1275  
                                    _BRGH 08F2                                      u3000 17DC  
                                    u3001 17DB                                      u3010 17E9  
                                    u3011 17E8                                      u3100 1C30  
                                    u3020 17EE                                      u3101 1C2F  
                                    u3021 17ED                                      u3110 1BBC  
                                    u3111 1BBB                                      u3200 12F5  
                                    u3120 1254                                      u3040 17FE  
                                    u4000 0B07                                      u3201 12F4  
                                    u3121 1253                                      u3041 17FD  
                                    u4001 0B06                                      u3130 125A  
                                    u3050 07DA                                      u4010 0B35  
                                    u3131 1259                                      u3051 07D9  
                                    u3035 17F5                                      u4011 0B34  
                                    u3140 125F                                      u4020 0B3E  
                                    u3141 125E                                      u4021 0B3D  
                                    u4110 1CBB                                      u3310 1357  
                                    u3230 1307                                      u3150 127B  
                                    u3070 07EA                                      u4030 0B61  
                                    u4111 1CBA                                      u3311 1356  
                                    u3231 1306                                      u3215 12F6  
                                    u3151 127A                                      u3071 07E9  
                                    u4031 0B60                                      u4200 1F03  
                                    u4120 1EBC                                      u3400 13DE  
                                    u3320 135C                                      u3160 1281  
                                    u2600 1604                                      u4040 0B6A  
                                    u4201 1F02                                      u4121 1EBB  
                                    u4105 1CB1                                      u3401 13DD  
                                    u3321 135B                                      u3305 1349  
                                    u3225 12FD                                      u3161 1280  
                                    u3065 07DF                                      u2601 1603  
                                    u4041 0B69                                      u4210 1F08  
                                    u4130 1EC7                                      u3330 1370  
                                    u3250 1321                                      u3170 1286  
                                    u2610 1609                                      u4050 0C56  
                                    u4211 1F07                                      u4131 1EC6  
                                    u3331 136F                                      u3251 1320  
                                    u3171 1285                                      u2611 1608  
                                    u4051 0C55                                      u5020 1B99  
                                    u4140 1ED6                                      u3340 1377  
                                    u3260 1332                                      u3180 12A1  
                                    u3420 083F                                      u2700 1697  
                                    u2620 1625                                      u4060 0E87  
                                    u5021 1B98                                      u4141 1ED5  
                                    u3341 1376                                      u3261 1331  
                                    u3245 1309                                      u3181 12A0  
                                    u3421 083E                                      u2621 1624  
                                    u4061 0E86                                      u5030 100F  
                                    u3350 137D                                      u3270 133A  
                                    u3190 12BD                                      u3430 0847  
                                    u2710 16A7                                      u2630 162C  
                                    u4070 0FFE                                      u5031 100E  
                                    u3415 13E5                                      u3351 137C  
                                    u3271 1339                                      u3255 131D  
                                    u3191 12BC                                      u3431 0846  
                                    u2711 16A6                                      u2631 162B  
                                    u4071 0FFD                                      u5040 1BA0  
                                    u4160 1EE4                                      u5120 104A  
                                    u5200 1F4C                                      u4080 1CA7  
                                    u3360 1387                                      u3600 0A03  
                                    u3520 099B                                      u3440 084C  
                                    u2640 1632                                      u5041 1B9F  
                                    u5105 1D0C                                      u4161 1EE3  
                                    u5121 1049                                      u5201 1F4B  
                                    u4081 1CA6                                      u3361 1386  
                                    u3601 0A02                                      u3505 0918  
                                    u3441 084B                                      u2641 1631  
                                    u5130 1066                                      u4410 1106  
                                    u3370 1395                                      u3290 1347  
                                    u3610 0A0A                                      u3530 09B2  
                                    u3450 086E                                      u2810 16FB  
                                    u2730 16B7                                      u2650 1637  
                                    u4155 1EDA                                      u5131 1065  
                                    u4411 1105                                      u3291 1346  
                                    u3611 0A09                                      u3515 0945  
                                    u3451 086D                                      u2811 16FA  
                                    u2731 16B6                                      u2651 1636  
                                    u2580 1BA9                                      u5060 1C99  
                                    u4180 1EF3                                      u5140 1072  
                                    u5220 1F5A                                      u4500 115B  
                                    u3380 13B0                                      u3620 0A10  
                                    u3460 0876                                      u2900 178B  
                                    u2660 1650                                      u3700 1FB4  
                                    u5300 0104                                      u2581 1BA8  
                                    u5061 1C98                                      u4181 1EF2  
                                    u5141 1071                                      u5221 1F59  
                                    u4501 115A                                      u4405 10FA  
                                    u3381 13AF                                      u3285 133D  
                                    u3621 0A0F                                      u3525 0997  
                                    u3461 0875                                      u2901 178A  
                                    u2805 16EE                                      u2725 16AA  
                                    u2661 164F                                      u3701 1FB3  
                                    u5301 0103                                      u5070 1C3C  
                                    u5150 108E                                      u5230 1F61  
                                    u4430 111C                                      u3390 13CB  
                                    u3630 0A1A                                      u3470 087B  
                                    u2910 1791                                      u2830 171D  
                                    u2750 16C9                                      u2670 1654  
                                    u2590 15FE                                      u3710 1FC1  
                                    u5310 0115                                      u5055 1C8B  
                                    u5071 1C3B                                      u4175 1EE5  
                                    u5151 108D                                      u5231 1F60  
                                    u5215 1F4E                                      u4095 1CAC  
                                    u4431 111B                                      u3391 13CA  
                                    u3375 1391                                      u3631 0A19  
                                    u3535 09AE                                      u3471 087A  
                                    u2911 1790                                      u2831 171C  
                                    u2751 16C8                                      u2671 1653  
                                    u2591 15FD                                      u5311 0114  
                                    u5080 1C43                                      u5160 10BC  
                                    u3640 0A28                                      u3560 09DA  
                                    u3480 0896                                      u2920 1796  
                                    u2840 174B                                      u2760 16CD  
                                    u2680 168C                                      u3720 1FCB  
                                    u3800 1427                                      u5400 0379  
                                    u5320 011B                                      u5081 1C42  
                                    u4185 1EEF                                      u5161 10BB  
                                    u4425 1110                                      u3385 13AC  
                                    u3561 09D9                                      u3545 09BD  
                                    u3481 0895                                      u2921 1795  
                                    u2841 174A                                      u2833 1719  
                                    u2825 16FE                                      u2761 16CC  
                                    u2745 16BA                                      u2681 168B  
                                    u3721 1FCA                                      u3801 1426  
                                    u5401 0378                                      u5321 011A  
                                    u5305 0100                                      u5250 1F70  
                                    u5170 1F1C                                      u4450 112A  
                                    u4370 10C7                                      u3650 0A43  
                                    u3490 089B                                      u2930 179C  
                                    u2850 1762                                      u2770 16D2  
                                    u2690 1696                                      u3730 1FDB  
                                    u3810 144A                                      u5410 050A  
                                    u5330 0125                                      u4195 1EF9  
                                    u5251 1F6F                                      u5171 1F1B  
                                    u4451 1129                                      u4371 10C6  
                                    u3395 13C7                                      u3651 0A42  
                                    u3555 09D0                                      u3491 089A  
                                    u2931 179B                                      u2851 1761  
                                    u2771 16D1                                      u2691 1694  
                                    u3731 1FDA                                      u3715 1FBD  
                                    u3811 1449                                      u5411 0509  
                                    u5331 0124                                      u5260 1F75  
                                    u5180 1F32                                      u4460 1130  
                                    u4380 10CB                                      u3660 0A5B  
                                    u3580 09EA                                      u2940 17A3  
                                    u2860 1767                                      u2780 16E7  
                                    u3740 1FE8                                      u3900 1561  
                                    u3820 145F                                      u5420 0529  
                                    u5340 0134                                      u5165 10B8  
                                    u5261 1F74                                      u5245 1F63  
                                    u4461 112F                                      u4445 1120  
                                    u4381 10CA                                      u3661 0A5A  
                                    u3645 0A24                                      u3581 09E9  
                                    u2941 17A2                                      u2861 1766  
                                    u2781 16E6                                      u2685 1688  
                                    u3901 1560                                      u3821 145E  
                                    u5421 0528                                      u5341 0133  
                                    u5190 1F45                                      u4470 1134  
                                    u4390 10EB                                      u3670 0A75  
                                    u3590 09EF                                      u2950 17A9  
                                    u2790 16EB                                      u3750 1FF3  
                                    u3830 146C                                      u5430 069E  
                                    u5350 0141                                      u5095 1D05  
                                    u5191 1F44                                      u4471 1133  
                                    u4391 10EA                                      u3671 0A74  
                                    u3655 0A3F                                      u3591 09EE  
                                    u3575 09DC                                      u2951 17A8  
                                    u2791 16EA                                      u3751 1FF1  
                                    u3903 155D                                      u3831 146B  
                                    u5431 069D                                      u5351 0140  
                                    u5335 0121                                      u4480 1148  
                                    u2960 17B3                                      u2880 177B  
                                    u3760 1FF4                                      u3920 159C  
                                    u3840 1492                                      u5360 0166  
                                    u5185 1F2E                                      u3665 0A57  
                                    u2961 17B2                                      u2881 177A  
                                    u3745 1FE4                                      u3921 159B  
                                    u5361 0165                                      u4490 1157  
                                    u2970 17C1                                      u2890 1780  
                                    u3690 1FA6                                      u3930 15A4  
                                    u3850 14A4                                      u5370 0182  
                                    u5507 1D5B                                      u4491 1156  
                                    u2891 177F                                      u2875 1771  
                                    u3931 15A3                                      u3915 158E  
                                    u3851 14A3                                      u5371 0181  
                                    u5355 013D                                      u2980 17D0  
                                    u3940 15C6                                      u3780 140E  
                                    u5380 01E5                                      u5460 1EA4  
                                    u5517 1D66                                      u4485 1144  
                                    u3685 0A79                                      u2981 17CF  
                                    u3845 148E                                      u3781 140D  
                                    u5381 01E4                                      u5365 0162  
                                    u5461 1EA3                                      u2990 17D7  
                                    u3950 15E1                                      u3870 14BE  
                                    u3790 1423                                      u5390 0204  
                                    u5470 1EAB                                      u5527 1D71  
                                    u2991 17D6                                      u2975 17BD  
                                    u3695 1FA2                                      u3871 14BD  
                                    u3791 1422                                      u5391 0203  
                                    u5471 1EAA                                      u3960 0AA5  
                                    u3880 1506                                      u5537 1D7D  
                                    u3961 0AA3                                      u3945 15C2  
                                    u3881 1505                                      u3865 14AE  
                                    u3970 0AA6                                      u5547 1D89  
                                    u3955 15DD                                      u3980 0AB7  
                                    u5557 080A                                      u3981 0AB6  
                                    u3990 0AC9                                      u5567 1C9C  
                                    u3991 0AC8                                      u3895 1510  
                                    u5487 1E74                                      u5577 1C25  
                                    u5497 1EAF                          ??_initialize_all 007C  
                                    _main 1E69                                      fsr0h 0005  
                                    fsr1h 0007                                      indf0 0000  
                                    fsr0l 0004                                      indf1 0001  
                                    fsr1l 0006                                      btemp 007E  
                           ___fpclassifyf 1F81                                      start 002A  
                        __end_of_I2C_stop 1BA1                           ___fldiv@new_exp 00C4  
               HAL_Write_Init_Nibble@byte 0079                                     ??_ISR 0070  
                           I2C_write@data 0071                             ___fltol@sign1 006E  
                         __end_of___fladd 1800                                     ?_main 0070  
                         __end_of___fldiv 13EE                           __end_of___awdiv 1F12  
                         __end_of___flneg 1BBF                                     _BRG16 08FB  
                         __end_of___flmul 0A90                           __end_of___flsub 1D58  
                         __end_of___fltol 1F81                           ___awdiv@divisor 0071  
         HAL_I2C_Master_Transmit@dataByte 0072                                     i1l462 0028  
                         ___awdiv@counter 0075                          ?_UART_SendBuffer 0072  
                                   _fabsf 080F                                     _angle 00E8  
                                   _atanf 0A90                                     _errno 015C  
                                   _speed 0158                                     _sqrtf 13EE  
                                   status 0003                         __end_of_I2C_start 1B9A  
                                   wtemp0 007E                            ?___fpclassifyf 0071  
                       __end_of_I2C_write 1014                           __initialization 002C  
                            __end_of_main 1EB7                        _HAL_Set_Entry_Mode 1C31  
                       __end_of_HAL_Clear 080F                                    ??_main 014A  
                   __end_of_MotorSettings 1C82                       ?_HAL_Set_Entry_Mode 0020  
                                  ?_fabsf 0071               vectorCalculations@magnitude 00E6  
                                  ?_atanf 00CC                          ___awdiv@dividend 0073  
                                  ?_sqrtf 002A                                    _RC1REG 0119  
                                  _RC3PPS 0F23                                    _RC4PPS 0F24  
                                  _RC5PPS 0F25                                    i1l4110 0025  
                                  i1l4102 0006                                    i1l4104 000B  
                                  i1l4112 0027                                    i1l4106 0019  
                                  i1l4108 0021                            HAL_LED_OFF@LED 0071  
                                  u487_20 000B                                    u487_21 000A  
                                  u488_20 0019                                    u488_21 0018  
                                  u488_25 0015                                    _TX1REG 011A  
                        __end_of___xxtofl 1165                      ??_HAL_Set_Entry_Mode 0079  
                                  _Flysky 1BBF                                    ___flge 1035  
                               ??___fladd 005A                                    ___wmul 1CA1  
                               ??___fldiv 00BA                                 ??___awdiv 0075  
                               ??___flneg 0075                                 ??___flmul 00A0  
                               ??___flsub 007B                                 ??___fltol 006A  
                                  _atanhi 1810                                    _atanlo 1800  
                        __end_of_init_LCD 1C07                                    fabsf@u 0075  
                                  fabsf@x 0071                          __end_of_initinit 1D92  
                        ___awdiv@quotient 0077                                    atanf@w 013D  
                                  atanf@x 00CC                                    atanf@z 0142  
                     MotorSettings@motorA 00AD                       MotorSettings@motorB 00A1  
                        _right_Joystick_X 00EE                          _right_Joystick_Y 00EC  
                         ___fpclassifyf@e 0020                           ___fpclassifyf@u 0022  
                         ___fpclassifyf@x 0071                              ??_HAL_LED_ON 0073  
                               ?_I2C_stop 0070                                _Rover_Team 0220  
                                  sqrtf@i 003A                                    sqrtf@m 0046  
                                  sqrtf@q 003E                                    sqrtf@r 004A  
                                  sqrtf@s 0036                                    sqrtf@t 0042  
                                  sqrtf@x 002A                                ___flge@ff1 0071  
                         ??___fpclassifyf 0075                                ___flge@ff2 0075  
                            ___xxtofl@arg 0026                              ___xxtofl@exp 0025  
                            ___xxtofl@val 0077                         ?_HAL_Pulse_Enable 0070  
                       UART_sendData@byte 0071                   __end_of__initialization 0072  
                              ___flneg@f1 0071                     _HAL_Write_Init_Nibble 1D01  
                      ??_HAL_Pulse_Enable 0075                                ___fltol@f1 0066  
                          __pcstackCOMMON 0070                              __pidataBANK2 0002  
                            __pidataBANK3 1CC0                              __pidataBANK4 1DD8  
                            __pidataBANK5 07EF                             __end_of_fabsf 0831  
                      __end_of_HAL_LED_ON 1035                             __end_of_atanf 1000  
             HAL_Write_Init_Nibble@nibble 0078                             __end_of_sqrtf 15F4  
                      _vectorCalculations 0076                       ?_vectorCalculations 0070  
                              ??_I2C_stop 0071                                   ??_fabsf 0075  
                                 ??_atanf 00D0                     __end_of_UART_sendData 1BAA  
                                 ??_sqrtf 002E                                __pbssBANK1 00E8  
                              __pbssBANK2 014C                                __pbssBANK3 01A0  
                              _atanf$1914 0134                                _atanf$1915 0120  
                              _atanf$1916 0138                                _atanf$1917 0124  
                              _atanf$1918 0128                         __end_of__Umul8_16 07EF  
                                 ?_Flysky 0070                      ??_vectorCalculations 00D6  
                              __pmaintext 1E69                                   ?___flge 0071  
                                 ?___wmul 0071                                __pintentry 0004  
                          _SSP2DATPPSbits 0EC9                                 ?___xxtofl 0077  
                                 _SP1BRGH 011C                                   _SP1BRGL 011B  
                              _configPins 1D92                            _SSP2CLKPPSbits 0EC8  
                                 _SSP2BUF 0196                                   _LT_Home 023C  
                               ?_init_LCD 0070                    ?_HAL_Write_Init_Nibble 0070  
                               ?_initinit 0070                                _freq_digit 01BA  
                                 _Loading 01D8                         __end_of_configI2C 1BB4  
                               _I2C_start 1B93                                 _I2C_write 1000  
                       __end_of_configISR 1B82                                   ___fladd 15F4  
                                 ___fldiv 124A                                   ___awdiv 1EB7  
                                 ___flneg 1BB4                                   ___flmul 0831  
                                 ___flsub 1D22                                   ___fltol 1F12  
                ?_HAL_I2C_Master_Transmit 0072                     HAL_Set_Entry_Mode@inc 0020  
                                 __ptext1 0076                                   __ptext2 13EE  
                                 __ptext3 0A90                                   __ptext4 080F  
                                 __ptext5 1F81                                   __ptext6 1D22  
                                 __ptext7 15F4                                   __ptext8 1BB4  
                                 __ptext9 0831                           _left_Joystick_X 0164  
                         _left_Joystick_Y 0162                                   _confirm 0168  
                               _HAL_Clear 0803                      HAL_Pulse_Enable@byte 0075  
                                 _counter 015E                                ??___xxtofl 0020  
                                 _message 0166                                   atanf@s1 012C  
                                 atanf@s2 0130                                   atanf@id 0141  
                                 atanf@ix 0146                                 _FFT_Home1 0258  
                               _FFT_Home2 0248                                   clrloop0 1B88  
                    MotorSettings@message 00A3                         _UART_Not_Recieved 007C  
                    end_of_initialization 0072                                ??_init_LCD 007B  
                                 init_ram 1B8D                                   initloop 1B8E  
                              ??_initinit 007B                             ??_HAL_LED_OFF 0073  
                              ?_I2C_start 0070                                ?_I2C_write 0070  
                                 sqrtf@ix 004E                                 _PORTBbits 000D  
                              ?_HAL_Clear 0070                          __write_byte@byte 0076  
                             ___fladd@grs 0065                               ?_configPins 0070  
                           ___xxtofl@sign 0024                                 _TRISAbits 0011  
                               _TRISBbits 0012                                 _TRISCbits 0013  
                             ___fldiv@grs 00C6                               ___fldiv@rem 00BF  
                             ___flmul@grs 00A6                             ??_configUART1 0071  
                          __end_of_Flysky 1BD1           __end_of_HAL_I2C_Master_Transmit 1C1A  
                          __end_of___flge 10C0                            __end_of___wmul 1CC0  
                     __end_of_HAL_LED_OFF 1D01                            __end_of_atanhi 1820  
                          __end_of_atanlo 1810                            _HAL_Display_On 1B82  
                        UART_SendBuffer@i 0074                             ??__write_byte 0076  
                     start_initialization 002C                               __end_of_ISR 002A  
                             __end_of_aT0 1834                               __end_of_aT1 1830  
                             __end_of_aT2 182C                               __end_of_aT3 1828  
                             __end_of_aT4 1824                   MotorSettings@motorA_pwm 00A0  
                 MotorSettings@motorB_pwm 00A2                            _mergeVariables 1165  
                   __end_of___fpclassifyf 2000                             HAL_LED_ON@LED 0071  
                                ??_Flysky 0075                               ??_I2C_start 0071  
                             ??_I2C_write 0071                       __end_of_configUART1 1BE3  
                                ??___flge 0020                         ??_UART_SendBuffer 0074  
                                ??___wmul 0075                                 __Umul8_16 07CC  
                             __pdataBANK2 016E                               __pdataBANK3 01CA  
                             __pdataBANK4 0220                               __pdataBANK5 02A0  
                  __end_of_HAL_Display_On 1B87                             Flysky@message 0075  
                             ??_HAL_Clear 0079                                 ___fladd@a 0056  
                               ___fladd@b 0052                             _MotorSettings 1C65  
                               ___fldiv@a 00B2                                 ___fldiv@b 00B6  
                               ___flmul@a 006A                                 ___flmul@b 0066  
                             __pbssCOMMON 007C                                 ___flsub@a 00A0  
                               ___flsub@b 00A4                                 ___latbits 0002  
                           __pcstackBANK0 0020                             __pcstackBANK1 00A0  
                           __pcstackBANK2 0120                   ??_HAL_Write_Init_Nibble 0076  
                  __end_of_mergeVariables 124A                       __end_of__write_byte 1BF5  
                             _HAL_LED_OFF 1CE0                            _initialize_all 1E20  
                                ?___fladd 0052                                  ?___fldiv 00B2  
                                ?___awdiv 0071                                  ?___flneg 0071  
                                ?___flmul 0066                                  ?___flsub 00A0  
                                ?___fltol 0066                                ?__Umul8_16 0071  
                 HAL_Set_Entry_Mode@shift 0022                                 _configI2C 1BAA  
                               _configISR 1B7D                           ?_HAL_Display_On 0070  
                          ?_MotorSettings 00A0                                 fabsf@F465 01C2  
                               _freq_char 016A                                  _I2C_stop 1B9A  
                               _frequency 016E                           ?_mergeVariables 0070  
                          ___wmul@product 0075                               _configUART1 1BD1  
                                _LATAbits 0016                                  _LATBbits 0017  
                               clear_ram0 1B87                                  _PIE3bits 0719  
                  __end_of_initialize_all 1E69                                  _MA_Home1 02A0  
                                _MA_Home2 01D1                                  _PIR3bits 070F  
                               atanf@sign 013C                                  _IR_Home1 0230  
                                _IR_Home2 01CA                                ?_configI2C 0070  
                        _HAL_Pulse_Enable 1C49                                ?_configISR 0070  
                             _FFT_Result1 01DC                               _FFT_Result2 01E7  
                    HAL_Write_Command@cmd 0078                         ___wmul@multiplier 0071  
                                _WPUBbits 0F44                              ??_configPins 0071  
                             __write_byte 1BE3                             _UART_sendData 1BA1  
                         ?_initialize_all 0070                        __end_of_configPins 1DD8  
                             ??__Umul8_16 0073                           ??_MotorSettings 007B  
                   UART_SendBuffer@buffer 0072                                _ANSELAbits 0F38  
                              _ANSELBbits 0F43                                _ANSELCbits 0F4E  
                   UART_SendBuffer@length 0073                        ___fpclassifyf@F465 01C6  
                       _HAL_Write_Command 1C82                                  ___xxtofl 10C0  
                      ?_HAL_Write_Command 0070                                _HAL_LED_ON 1014  
                                __ptext10 07CC                                  __ptext11 124A  
                                __ptext20 1E20                                  __ptext12 10C0  
                                __ptext21 1D58                                  __ptext13 1CA1  
                                __ptext30 1C07                                  __ptext22 1BF5  
                                __ptext14 1F12                                  __ptext31 1000  
                                __ptext23 1C31                                  __ptext15 1035  
                                __ptext40 1C1A                                  __ptext32 1B9A  
                                __ptext24 1B82                                  __ptext16 1C65  
                                __ptext41 1BA1                                  __ptext33 1B93  
                                __ptext25 0803                                  __ptext17 1014  
                                __ptext34 1BD1                                  __ptext26 1C82  
                                __ptext18 1165                                  __ptext35 1D92  
                                __ptext27 1BE3                                  __ptext19 1EB7  
                                __ptext36 1B7D                                  __ptext28 1D01  
                                __ptext37 1BAA                                  __ptext29 1C49  
                                __ptext38 1CE0                                  __ptext39 1BBF  
                          ?_UART_sendData 0070                              _SSP2CON1bits 019A  
                            _SSP2CON2bits 019B                                  _left_Pot 0160  
                     ??_HAL_Write_Command 0077                           _UART_SendBuffer 1C1A  
                                _init_LCD 1BF5                __end_of_HAL_Set_Entry_Mode 1C49  
                                _initinit 1D58                                _RC1STAbits 011D  
                                int$flags 007E                                _ODCONBbits 0F45  
                             ??_configI2C 0071                               ??_configISR 0071  
               __end_of_HAL_Write_Command 1CA1                              _SSP2STATbits 0199  
            HAL_Set_Entry_Mode@entry_mode 0079  HAL_I2C_Master_Transmit@numberOfDataBytes 0073  
                              _INTCONbits 000B                   _HAL_I2C_Master_Transmit 1C07  
                                intlevel1 0000             __end_of_HAL_Write_Init_Nibble 1D22  
                             _SSP2ADDbits 0197       HAL_I2C_Master_Transmit@slaveAddress 0074  
                             _PPSLOCKbits 0E8F                              ?_HAL_LED_OFF 0071  
                        ??_HAL_Display_On 0079                             __pstringtext1 1800  
                           __pstringtext2 1810                             __pstringtext3 1820  
                           __pstringtext4 1824                             __pstringtext5 1828  
                           __pstringtext6 182C                             __pstringtext7 1830  
                  __Umul8_16@multiplicand 0071                          ??_mergeVariables 0020  
                             ?_HAL_LED_ON 0071                   __end_of_UART_SendBuffer 1C31  
                         ??_UART_sendData 0071                                _TX1STAbits 011E  
                           ___fladd@signs 0062                  __end_of_HAL_Pulse_Enable 1C65  
                            ___fladd@aexp 0063                              ___fladd@bexp 0064  
                            ?_configUART1 0070                      __Umul8_16@multiplier 0079  
              __end_of_vectorCalculations 07CC                         __Umul8_16@product 0075  
